---
triple:          'arm64-apple-darwin'
binary-path:     'build/packet_fuzzer'
relocations:
  - { offset: 0x390, size: 0x8, addend: 0x0, symName: __ZN6fuzzer18MutationDispatcher9CrossOverEPKhmS2_mPhm, symObjAddr: 0x0, symBinAddr: 0x100000F94, symSize: 0x1A4 }
  - { offset: 0x6881, size: 0x8, addend: 0x0, symName: __ZN6fuzzer18MutationDispatcher9CrossOverEPKhmS2_mPhm, symObjAddr: 0x0, symBinAddr: 0x100000F94, symSize: 0x1A4 }
  - { offset: 0x8EF6, size: 0x8, addend: 0x0, symName: __ZN6fuzzer13BlockCoverage14AppendCoverageERKNSt3__112basic_stringIcNS1_11char_traitsIcEENS1_9allocatorIcEEEE, symObjAddr: 0x0, symBinAddr: 0x100001138, symSize: 0x1E0 }
  - { offset: 0x8F1C, size: 0x8, addend: 0x0, symName: __ZN6fuzzer15CollectDataFlowERKNSt3__112basic_stringIcNS0_11char_traitsIcEENS0_9allocatorIcEEEES8_RKNS0_6vectorINS_9SizedFileENS4_ISA_EEEE, symObjAddr: 0x25C4, symBinAddr: 0x1000036FC, symSize: 0x54C }
  - { offset: 0x8F47, size: 0x8, addend: 0x0, symName: __ZZN6fuzzer15CollectDataFlowERKNSt3__112basic_stringIcNS0_11char_traitsIcEENS0_9allocatorIcEEEES8_RKNS0_6vectorINS_9SizedFileENS4_ISA_EEEEE8DFSanEnv, symObjAddr: 0x5C7E, symBinAddr: 0x100044280, symSize: 0x0 }
  - { offset: 0xAB33, size: 0x8, addend: 0x0, symName: __ZNK6fuzzer7Command8toStringEv, symObjAddr: 0x2B10, symBinAddr: 0x100003C48, symSize: 0x3F8 }
  - { offset: 0xED6F, size: 0x8, addend: 0x0, symName: __ZNSt3__119piecewise_constructE, symObjAddr: 0x5CA1, symBinAddr: 0x10003BFA0, symSize: 0x0 }
  - { offset: 0x197A4, size: 0x8, addend: 0x0, symName: __ZNSt3__124__put_character_sequenceB8nn210106IcNS_11char_traitsIcEEEERNS_13basic_ostreamIT_T0_EES7_PKS4_m, symObjAddr: 0x33D8, symBinAddr: 0x100004510, symSize: 0x124 }
  - { offset: 0x25DC7, size: 0x8, addend: 0x0, symName: __ZNSt3__17getlineB8nn210106IcNS_11char_traitsIcEENS_9allocatorIcEEEERNS_13basic_istreamIT_T0_EES9_RNS_12basic_stringIS6_S7_T1_EES6_, symObjAddr: 0x8E8, symBinAddr: 0x100001A20, symSize: 0x2CC }
  - { offset: 0x29727, size: 0x8, addend: 0x0, symName: __ZNSt3__120__throw_length_errorB8nn210106EPKc, symObjAddr: 0x2F1C, symBinAddr: 0x100004054, symSize: 0x1C }
  - { offset: 0x29754, size: 0x8, addend: 0x0, symName: __ZSt28__throw_bad_array_new_lengthB8nn210106v, symObjAddr: 0x2F38, symBinAddr: 0x100004070, symSize: 0x14 }
  - { offset: 0x2A116, size: 0x8, addend: 0x0, symName: __ZNSt3__116__pad_and_outputB8nn210106IcNS_11char_traitsIcEEEENS_19ostreambuf_iteratorIT_T0_EES6_PKS4_S8_S8_RNS_8ios_baseES4_, symObjAddr: 0x34FC, symBinAddr: 0x100004634, symSize: 0x22C }
  - { offset: 0x2A636, size: 0x8, addend: 0x0, symName: __ZNSt3__112basic_stringIcNS_11char_traitsIcEENS_9allocatorIcEEE20__throw_length_errorB8nn210106Ev, symObjAddr: 0x3728, symBinAddr: 0x100004860, symSize: 0x14 }
  - { offset: 0x2A6EF, size: 0x8, addend: 0x0, symName: __ZNSt3__120__throw_out_of_rangeB8nn210106EPKc, symObjAddr: 0x3750, symBinAddr: 0x100004888, symSize: 0x1C }
  - { offset: 0x2A71C, size: 0x8, addend: 0x0, symName: __ZNSt3__112basic_stringIcNS_11char_traitsIcEENS_9allocatorIcEEE25__init_copy_ctor_externalEPKcm, symObjAddr: 0x376C, symBinAddr: 0x1000048A4, symSize: 0x8C }
  - { offset: 0x2C374, size: 0x8, addend: 0x0, symName: __ZSt28__throw_bad_array_new_lengthB8nn210106v, symObjAddr: 0x2F38, symBinAddr: 0x100004070, symSize: 0x14 }
  - { offset: 0x2C392, size: 0x8, addend: 0x0, symName: __ZNSt3__16vectorINS_12basic_stringIcNS_11char_traitsIcEENS_9allocatorIcEEEENS4_IS6_EEE6insertENS_11__wrap_iterIPKS6_EERSA_, symObjAddr: 0x2F4C, symBinAddr: 0x100004084, symSize: 0x260 }
  - { offset: 0x2DF25, size: 0x8, addend: 0x0, symName: __ZN6fuzzer13BlockCoverage14AppendCoverageERKNSt3__112basic_stringIcNS1_11char_traitsIcEENS1_9allocatorIcEEEE, symObjAddr: 0x0, symBinAddr: 0x100001138, symSize: 0x1E0 }
  - { offset: 0x2E267, size: 0x8, addend: 0x0, symName: __ZN6fuzzer13BlockCoverage14AppendCoverageERNSt3__113basic_istreamIcNS1_11char_traitsIcEEEE, symObjAddr: 0x1E0, symBinAddr: 0x100001318, symSize: 0x708 }
  - { offset: 0x2F646, size: 0x8, addend: 0x0, symName: __ZNSt3__17getlineB8nn210106IcNS_11char_traitsIcEENS_9allocatorIcEEEERNS_13basic_istreamIT_T0_EES9_RNS_12basic_stringIS6_S7_T1_EES6_, symObjAddr: 0x8E8, symBinAddr: 0x100001A20, symSize: 0x2CC }
  - { offset: 0x301FF, size: 0x8, addend: 0x0, symName: __ZNSt3__112__hash_tableImNS_4hashImEENS_8equal_toImEENS_9allocatorImEEE25__emplace_unique_key_argsImJRKmEEENS_4pairINS_15__hash_iteratorIPNS_11__hash_nodeImPvEEEEbEERKT_DpOT0_, symObjAddr: 0x39B8, symBinAddr: 0x100004AF0, symSize: 0x320 }
  - { offset: 0x3073E, size: 0x8, addend: 0x0, symName: __ZNSt3__112__hash_tableINS_17__hash_value_typeImNS_6vectorIjNS_9allocatorIjEEEEEENS_22__unordered_map_hasherImNS_4pairIKmS5_EENS_4hashImEENS_8equal_toImEELb1EEENS_21__unordered_map_equalImSA_SE_SC_Lb1EEENS3_ISA_EEE25__emplace_unique_key_argsImJSA_EEENS8_INS_15__hash_iteratorIPNS_11__hash_nodeIS6_PvEEEEbEERKT_DpOT0_, symObjAddr: 0x3EB8, symBinAddr: 0x100004FF0, symSize: 0x338 }
  - { offset: 0x30D5D, size: 0x8, addend: 0x0, symName: __ZNSt3__16vectorIjNS_9allocatorIjEEE20__throw_length_errorB8nn210106Ev, symObjAddr: 0x3EA4, symBinAddr: 0x100004FDC, symSize: 0x14 }
  - { offset: 0x30D75, size: 0x8, addend: 0x0, symName: __ZNSt3__112__hash_tableINS_17__hash_value_typeImNS_6vectorIjNS_9allocatorIjEEEEEENS_22__unordered_map_hasherImNS_4pairIKmS5_EENS_4hashImEENS_8equal_toImEELb1EEENS_21__unordered_map_equalImSA_SE_SC_Lb1EEENS3_ISA_EEE25__emplace_unique_key_argsImJSA_EEENS8_INS_15__hash_iteratorIPNS_11__hash_nodeIS6_PvEEEEbEERKT_DpOT0_, symObjAddr: 0x3EB8, symBinAddr: 0x100004FF0, symSize: 0x338 }
  - { offset: 0x30D80, size: 0x8, addend: 0x0, symName: __ZNSt3__112basic_stringIcNS_11char_traitsIcEENS_9allocatorIcEEE20__throw_length_errorB8nn210106Ev, symObjAddr: 0x3728, symBinAddr: 0x100004860, symSize: 0x14 }
  - { offset: 0x30D98, size: 0x8, addend: 0x0, symName: __ZNSt3__112basic_stringIcNS_11char_traitsIcEENS_9allocatorIcEEE20__throw_out_of_rangeB8nn210106Ev, symObjAddr: 0x373C, symBinAddr: 0x100004874, symSize: 0x14 }
  - { offset: 0x30FB9, size: 0x8, addend: 0x0, symName: __ZNSt3__112basic_stringIcNS_11char_traitsIcEENS_9allocatorIcEEE6appendB8nn210106IPKcTnNS_9enable_ifIXsr31__has_forward_iterator_categoryIT_EE5valueEiE4typeELi0EEERS5_SA_SA_, symObjAddr: 0x37F8, symBinAddr: 0x100004930, symSize: 0x1C0 }
  - { offset: 0x31723, size: 0x8, addend: 0x0, symName: __ZNSt3__112__hash_tableImNS_4hashImEENS_8equal_toImEENS_9allocatorImEEE25__emplace_unique_key_argsImJRKmEEENS_4pairINS_15__hash_iteratorIPNS_11__hash_nodeImPvEEEEbEERKT_DpOT0_, symObjAddr: 0x39B8, symBinAddr: 0x100004AF0, symSize: 0x320 }
  - { offset: 0x31C63, size: 0x8, addend: 0x0, symName: __ZNK6fuzzer13BlockCoverage15FunctionWeightsEm, symObjAddr: 0xBB4, symBinAddr: 0x100001CEC, symSize: 0x378 }
  - { offset: 0x32485, size: 0x8, addend: 0x0, symName: __ZN6fuzzer13DataFlowTrace12ReadCoverageERKNSt3__112basic_stringIcNS1_11char_traitsIcEENS1_9allocatorIcEEEE, symObjAddr: 0xF2C, symBinAddr: 0x100002064, symSize: 0x274 }
  - { offset: 0x32490, size: 0x8, addend: 0x0, symName: __ZNSt3__16vectorIdNS_9allocatorIdEEE20__throw_length_errorB8nn210106Ev, symObjAddr: 0x43BC, symBinAddr: 0x1000054F4, symSize: 0x14 }
  - { offset: 0x324A8, size: 0x8, addend: 0x0, symName: __ZNKSt3__112__hash_tableINS_12basic_stringIcNS_11char_traitsIcEENS_9allocatorIcEEEENS_4hashIS6_EENS_8equal_toIS6_EENS4_IS6_EEE4findIS6_EENS_21__hash_const_iteratorIPNS_11__hash_nodeIS6_PvEEEERKT_, symObjAddr: 0x43D0, symBinAddr: 0x100005508, symSize: 0x1DC }
  - { offset: 0x32CCD, size: 0x8, addend: 0x0, symName: __ZN6fuzzer13DataFlowTrace12ReadCoverageERKNSt3__112basic_stringIcNS1_11char_traitsIcEENS1_9allocatorIcEEEE, symObjAddr: 0xF2C, symBinAddr: 0x100002064, symSize: 0x274 }
  - { offset: 0x335AC, size: 0x8, addend: 0x0, symName: __ZN6fuzzer13DataFlowTrace4InitERKNSt3__112basic_stringIcNS1_11char_traitsIcEENS1_9allocatorIcEEEEPS7_RNS1_6vectorINS_9SizedFileENS5_ISC_EEEERNS_6RandomE, symObjAddr: 0x11A0, symBinAddr: 0x1000022D8, symSize: 0x1238 }
  - { offset: 0x335D3, size: 0x8, addend: 0x0, symName: __ZNKSt3__112__hash_tableINS_12basic_stringIcNS_11char_traitsIcEENS_9allocatorIcEEEENS_4hashIS6_EENS_8equal_toIS6_EENS4_IS6_EEE4findIS6_EENS_21__hash_const_iteratorIPNS_11__hash_nodeIS6_PvEEEERKT_, symObjAddr: 0x43D0, symBinAddr: 0x100005508, symSize: 0x1DC }
  - { offset: 0x33945, size: 0x8, addend: 0x0, symName: __ZNSt3__112basic_stringIcNS_11char_traitsIcEENS_9allocatorIcEEE20__throw_out_of_rangeB8nn210106Ev, symObjAddr: 0x373C, symBinAddr: 0x100004874, symSize: 0x14 }
  - { offset: 0x3395D, size: 0x8, addend: 0x0, symName: __ZNSt3__120__throw_out_of_rangeB8nn210106EPKc, symObjAddr: 0x3750, symBinAddr: 0x100004888, symSize: 0x1C }
  - { offset: 0x34819, size: 0x8, addend: 0x0, symName: __ZN6fuzzer13DataFlowTrace4InitERKNSt3__112basic_stringIcNS1_11char_traitsIcEENS1_9allocatorIcEEEEPS7_RNS1_6vectorINS_9SizedFileENS5_ISC_EEEERNS_6RandomE, symObjAddr: 0x11A0, symBinAddr: 0x1000022D8, symSize: 0x1238 }
  - { offset: 0x384E4, size: 0x8, addend: 0x0, symName: __ZN6fuzzer13BlockCoverage24GetNumberOfCoveredBlocksEm, symObjAddr: 0x23D8, symBinAddr: 0x100003510, symSize: 0x1EC }
  - { offset: 0x384F9, size: 0x8, addend: 0x0, symName: __ZNSt3__112__hash_tableINS_12basic_stringIcNS_11char_traitsIcEENS_9allocatorIcEEEENS_4hashIS6_EENS_8equal_toIS6_EENS4_IS6_EEE25__emplace_unique_key_argsIS6_JS6_EEENS_4pairINS_15__hash_iteratorIPNS_11__hash_nodeIS6_PvEEEEbEERKT_DpOT0_, symObjAddr: 0x45AC, symBinAddr: 0x1000056E4, symSize: 0x3C0 }
  - { offset: 0x38C8C, size: 0x8, addend: 0x0, symName: __ZNSt3__112basic_stringIcNS_11char_traitsIcEENS_9allocatorIcEEE25__init_copy_ctor_externalEPKcm, symObjAddr: 0x376C, symBinAddr: 0x1000048A4, symSize: 0x8C }
  - { offset: 0x38E35, size: 0x8, addend: 0x0, symName: __ZNSt3__112basic_stringIcNS_11char_traitsIcEENS_9allocatorIcEEE6appendB8nn210106IPKcTnNS_9enable_ifIXsr31__has_forward_iterator_categoryIT_EE5valueEiE4typeELi0EEERS5_SA_SA_, symObjAddr: 0x37F8, symBinAddr: 0x100004930, symSize: 0x1C0 }
  - { offset: 0x38E40, size: 0x8, addend: 0x0, symName: __ZNSt3__131piecewise_constant_distributionIdE10param_typeC2INS_11__wrap_iterIPdEES6_EET_S7_T0_, symObjAddr: 0x4B38, symBinAddr: 0x100005C70, symSize: 0x1A4 }
  - { offset: 0x395CF, size: 0x8, addend: 0x0, symName: __ZNSt3__16vectorIdNS_9allocatorIdEEE6assignEmRKd, symObjAddr: 0x4CDC, symBinAddr: 0x100005E14, symSize: 0x1EC }
  - { offset: 0x395EC, size: 0x8, addend: 0x0, symName: __ZN6fuzzer13BlockCoverage24GetNumberOfCoveredBlocksEm, symObjAddr: 0x23D8, symBinAddr: 0x100003510, symSize: 0x1EC }
  - { offset: 0x3964F, size: 0x8, addend: 0x0, symName: __ZN6fuzzer13BlockCoverage24GetNumberOfCoveredBlocksEm, symObjAddr: 0x23D8, symBinAddr: 0x100003510, symSize: 0x1EC }
  - { offset: 0x3966A, size: 0x8, addend: 0x0, symName: __ZN6fuzzer13BlockCoverage24GetNumberOfCoveredBlocksEm, symObjAddr: 0x23D8, symBinAddr: 0x100003510, symSize: 0x1EC }
  - { offset: 0x3968F, size: 0x8, addend: 0x0, symName: __ZN6fuzzer13BlockCoverage24GetNumberOfCoveredBlocksEm, symObjAddr: 0x23D8, symBinAddr: 0x100003510, symSize: 0x1EC }
  - { offset: 0x396AB, size: 0x8, addend: 0x0, symName: __ZN6fuzzer13BlockCoverage24GetNumberOfCoveredBlocksEm, symObjAddr: 0x23D8, symBinAddr: 0x100003510, symSize: 0x1EC }
  - { offset: 0x3982C, size: 0x8, addend: 0x0, symName: __ZNSt3__112__hash_tableINS_17__hash_value_typeINS_12basic_stringIcNS_11char_traitsIcEENS_9allocatorIcEEEENS_6vectorIhNS5_IhEEEEEENS_22__unordered_map_hasherIS7_NS_4pairIKS7_SA_EENS_4hashIS7_EENS_8equal_toIS7_EELb1EEENS_21__unordered_map_equalIS7_SF_SJ_SH_Lb1EEENS5_ISF_EEE25__emplace_unique_key_argsIS7_JRKNS_21piecewise_construct_tENS_5tupleIJRSE_EEENST_IJEEEEEENSD_INS_15__hash_iteratorIPNS_11__hash_nodeISB_PvEEEEbEERKT_DpOT0_, symObjAddr: 0x53B0, symBinAddr: 0x1000064E8, symSize: 0x3DC }
  - { offset: 0x3A0DC, size: 0x8, addend: 0x0, symName: __ZNSt3__16vectorINS_12basic_stringIcNS_11char_traitsIcEENS_9allocatorIcEEEENS4_IS6_EEE20__throw_length_errorB8nn210106Ev, symObjAddr: 0x33C4, symBinAddr: 0x1000044FC, symSize: 0x14 }
  - { offset: 0x3A0F4, size: 0x8, addend: 0x0, symName: __ZNSt3__124__put_character_sequenceB8nn210106IcNS_11char_traitsIcEEEERNS_13basic_ostreamIT_T0_EES7_PKS4_m, symObjAddr: 0x33D8, symBinAddr: 0x100004510, symSize: 0x124 }
  - { offset: 0x3A0FF, size: 0x8, addend: 0x0, symName: __ZNSt3__16vectorIhNS_9allocatorIhEEE20__throw_length_errorB8nn210106Ev, symObjAddr: 0x2F08, symBinAddr: 0x100004040, symSize: 0x14 }
  - { offset: 0x3A117, size: 0x8, addend: 0x0, symName: __ZNSt3__120__throw_length_errorB8nn210106EPKc, symObjAddr: 0x2F1C, symBinAddr: 0x100004054, symSize: 0x1C }
  - { offset: 0x3A2C2, size: 0x8, addend: 0x0, symName: __ZNSt3__16vectorINS_12basic_stringIcNS_11char_traitsIcEENS_9allocatorIcEEEENS4_IS6_EEE6insertENS_11__wrap_iterIPKS6_EERSA_, symObjAddr: 0x2F4C, symBinAddr: 0x100004084, symSize: 0x260 }
  - { offset: 0x3AB49, size: 0x8, addend: 0x0, symName: __ZNSt3__114__split_bufferINS_12basic_stringIcNS_11char_traitsIcEENS_9allocatorIcEEEERNS4_IS6_EEE12emplace_backIJRKS6_EEEvDpOT_, symObjAddr: 0x31AC, symBinAddr: 0x1000042E4, symSize: 0x218 }
  - { offset: 0x3AB54, size: 0x8, addend: 0x0, symName: __ZNK6fuzzer7Command8toStringEv, symObjAddr: 0x2B10, symBinAddr: 0x100003C48, symSize: 0x3F8 }
  - { offset: 0x3B803, size: 0x8, addend: 0x0, symName: __ZNSt3__16vectorIhNS_9allocatorIhEEE20__throw_length_errorB8nn210106Ev, symObjAddr: 0x2F08, symBinAddr: 0x100004040, symSize: 0x14 }
  - { offset: 0x3BDBE, size: 0x8, addend: 0x0, symName: __ZNSt3__114__split_bufferINS_12basic_stringIcNS_11char_traitsIcEENS_9allocatorIcEEEERNS4_IS6_EEE12emplace_backIJRKS6_EEEvDpOT_, symObjAddr: 0x31AC, symBinAddr: 0x1000042E4, symSize: 0x218 }
  - { offset: 0x3C5B4, size: 0x8, addend: 0x0, symName: __ZNSt3__16vectorINS_12basic_stringIcNS_11char_traitsIcEENS_9allocatorIcEEEENS4_IS6_EEE20__throw_length_errorB8nn210106Ev, symObjAddr: 0x33C4, symBinAddr: 0x1000044FC, symSize: 0x14 }
  - { offset: 0x3CE5A, size: 0x8, addend: 0x0, symName: __ZNSt3__112__hash_tableImNS_4hashImEENS_8equal_toImEENS_9allocatorImEEE11__do_rehashILb1EEEvm, symObjAddr: 0x3CD8, symBinAddr: 0x100004E10, symSize: 0x1CC }
  - { offset: 0x3D1D8, size: 0x8, addend: 0x0, symName: __ZNSt3__16vectorIjNS_9allocatorIjEEE20__throw_length_errorB8nn210106Ev, symObjAddr: 0x3EA4, symBinAddr: 0x100004FDC, symSize: 0x14 }
  - { offset: 0x3D53C, size: 0x8, addend: 0x0, symName: __ZNSt3__112__hash_tableINS_17__hash_value_typeImNS_6vectorIjNS_9allocatorIjEEEEEENS_22__unordered_map_hasherImNS_4pairIKmS5_EENS_4hashImEENS_8equal_toImEELb1EEENS_21__unordered_map_equalImSA_SE_SC_Lb1EEENS3_ISA_EEE11__do_rehashILb1EEEvm, symObjAddr: 0x41F0, symBinAddr: 0x100005328, symSize: 0x1CC }
  - { offset: 0x3D8BA, size: 0x8, addend: 0x0, symName: __ZNSt3__16vectorIdNS_9allocatorIdEEE20__throw_length_errorB8nn210106Ev, symObjAddr: 0x43BC, symBinAddr: 0x1000054F4, symSize: 0x14 }
  - { offset: 0x3DCA1, size: 0x8, addend: 0x0, symName: __ZNSt3__112__hash_tableINS_12basic_stringIcNS_11char_traitsIcEENS_9allocatorIcEEEENS_4hashIS6_EENS_8equal_toIS6_EENS4_IS6_EEE11__do_rehashILb1EEEvm, symObjAddr: 0x496C, symBinAddr: 0x100005AA4, symSize: 0x1CC }
  - { offset: 0x3E01F, size: 0x8, addend: 0x0, symName: __ZNSt3__131piecewise_constant_distributionIdE10param_typeC2INS_11__wrap_iterIPdEES6_EET_S7_T0_, symObjAddr: 0x4B38, symBinAddr: 0x100005C70, symSize: 0x1A4 }
  - { offset: 0x3E4C9, size: 0x8, addend: 0x0, symName: __ZNSt3__16vectorIdNS_9allocatorIdEEE8__appendEm, symObjAddr: 0x5204, symBinAddr: 0x10000633C, symSize: 0x1AC }
  - { offset: 0x3E8F1, size: 0x8, addend: 0x0, symName: __ZNSt3__112__hash_tableINS_17__hash_value_typeINS_12basic_stringIcNS_11char_traitsIcEENS_9allocatorIcEEEENS_6vectorIhNS5_IhEEEEEENS_22__unordered_map_hasherIS7_NS_4pairIKS7_SA_EENS_4hashIS7_EENS_8equal_toIS7_EELb1EEENS_21__unordered_map_equalIS7_SF_SJ_SH_Lb1EEENS5_ISF_EEE25__emplace_unique_key_argsIS7_JRKNS_21piecewise_construct_tENS_5tupleIJRSE_EEENST_IJEEEEEENSD_INS_15__hash_iteratorIPNS_11__hash_nodeISB_PvEEEEbEERKT_DpOT0_, symObjAddr: 0x53B0, symBinAddr: 0x1000064E8, symSize: 0x3DC }
  - { offset: 0x3E8FC, size: 0x8, addend: 0x0, symName: __ZNSt3__16vectorIdNS_9allocatorIdEEE6assignEmRKd, symObjAddr: 0x4CDC, symBinAddr: 0x100005E14, symSize: 0x1EC }
  - { offset: 0x3EDC1, size: 0x8, addend: 0x0, symName: __ZNSt3__16vectorIdNS_9allocatorIdEEE9push_backB8nn210106ERKd, symObjAddr: 0x4EC8, symBinAddr: 0x100006000, symSize: 0xF8 }
  - { offset: 0x3EDCC, size: 0x8, addend: 0x0, symName: __ZNSt3__16vectorIdNS_9allocatorIdEEE9push_backB8nn210106ERKd, symObjAddr: 0x4EC8, symBinAddr: 0x100006000, symSize: 0xF8 }
  - { offset: 0x3F1E3, size: 0x8, addend: 0x0, symName: __ZNSt3__131piecewise_constant_distributionIdE10param_type6__initEv, symObjAddr: 0x4FC0, symBinAddr: 0x1000060F8, symSize: 0x244 }
  - { offset: 0x3F1EE, size: 0x8, addend: 0x0, symName: __ZNSt3__131piecewise_constant_distributionIdE10param_type6__initEv, symObjAddr: 0x4FC0, symBinAddr: 0x1000060F8, symSize: 0x244 }
  - { offset: 0x3FBA1, size: 0x8, addend: 0x0, symName: __ZNSt3__112__hash_tableINS_17__hash_value_typeINS_12basic_stringIcNS_11char_traitsIcEENS_9allocatorIcEEEENS_6vectorIhNS5_IhEEEEEENS_22__unordered_map_hasherIS7_NS_4pairIKS7_SA_EENS_4hashIS7_EENS_8equal_toIS7_EELb1EEENS_21__unordered_map_equalIS7_SF_SJ_SH_Lb1EEENS5_ISF_EEE11__do_rehashILb1EEEvm, symObjAddr: 0x578C, symBinAddr: 0x1000068C4, symSize: 0x1CC }
  - { offset: 0x41D5C, size: 0x8, addend: 0x0, symName: __ZN6fuzzerL2MuE, symObjAddr: 0x99A8, symBinAddr: 0x1000442A8, symSize: 0x0 }
  - { offset: 0x41D77, size: 0x8, addend: 0x0, symName: __ZN6fuzzer2EFE, symObjAddr: 0x148CD0, symBinAddr: 0x100044400, symSize: 0x0 }
  - { offset: 0x41E98, size: 0x8, addend: 0x0, symName: __MergedGlobals, symObjAddr: 0x148CD8, symBinAddr: 0x100078008, symSize: 0x0 }
  - { offset: 0x422C0, size: 0x8, addend: 0x0, symName: __MergedGlobals, symObjAddr: 0x148CD8, symBinAddr: 0x100078008, symSize: 0x0 }
  - { offset: 0x422DC, size: 0x8, addend: 0x0, symName: __MergedGlobals, symObjAddr: 0x148CD8, symBinAddr: 0x100078008, symSize: 0x0 }
  - { offset: 0x42305, size: 0x8, addend: 0x0, symName: __ZN6fuzzerL16FlagDescriptionsE, symObjAddr: 0xCA08, symBinAddr: 0x100040558, symSize: 0x0 }
  - { offset: 0x43E1F, size: 0x8, addend: 0x0, symName: __ZN6fuzzer17CloneArgsWithoutXERKNSt3__16vectorINS0_12basic_stringIcNS0_11char_traitsIcEENS0_9allocatorIcEEEENS5_IS7_EEEEPKcSD_, symObjAddr: 0x4, symBinAddr: 0x100006A94, symSize: 0x244 }
  - { offset: 0x44682, size: 0x8, addend: 0x0, symName: __ZN6fuzzer10RunOneTestEPNS_6FuzzerEPKcm, symObjAddr: 0x248, symBinAddr: 0x100006CD8, symSize: 0x160 }
  - { offset: 0x4468D, size: 0x8, addend: 0x0, symName: __ZN6fuzzer10RunOneTestEPNS_6FuzzerEPKcm, symObjAddr: 0x248, symBinAddr: 0x100006CD8, symSize: 0x160 }
  - { offset: 0x44C97, size: 0x8, addend: 0x0, symName: __ZNSt3__112basic_stringIcNS_11char_traitsIcEENS_9allocatorIcEEEC1B8nn210106ILi0EEEPKc, symObjAddr: 0x3A8, symBinAddr: 0x100006E38, symSize: 0xA8 }
  - { offset: 0x44CC1, size: 0x8, addend: 0x0, symName: __ZN6fuzzer17CleanseCrashInputERKNSt3__16vectorINS0_12basic_stringIcNS0_11char_traitsIcEENS0_9allocatorIcEEEENS5_IS7_EEEERKNS_14FuzzingOptionsE, symObjAddr: 0x450, symBinAddr: 0x100006EE0, symSize: 0x9D4 }
  - { offset: 0x46CDA, size: 0x8, addend: 0x0, symName: __ZN6fuzzer7Command10removeFlagERKNSt3__112basic_stringIcNS1_11char_traitsIcEENS1_9allocatorIcEEEE, symObjAddr: 0xE24, symBinAddr: 0x1000078B4, symSize: 0x21C }
  - { offset: 0x46D5C, size: 0x8, addend: 0x0, symName: __ZN6fuzzer18MinimizeCrashInputERKNSt3__16vectorINS0_12basic_stringIcNS0_11char_traitsIcEENS0_9allocatorIcEEEENS5_IS7_EEEERKNS_14FuzzingOptionsE, symObjAddr: 0x11F0, symBinAddr: 0x100007C80, symSize: 0xEEC }
  - { offset: 0x4B3D3, size: 0x8, addend: 0x0, symName: __ZN6fuzzer7Command7addFlagERKNSt3__112basic_stringIcNS1_11char_traitsIcEENS1_9allocatorIcEEEES9_, symObjAddr: 0x20DC, symBinAddr: 0x100008B6C, symSize: 0x1A8 }
  - { offset: 0x4B3F8, size: 0x8, addend: 0x0, symName: __ZN6fuzzerL26GetDedupTokenFromCmdOutputERKNSt3__112basic_stringIcNS0_11char_traitsIcEENS0_9allocatorIcEEEE, symObjAddr: 0x267C, symBinAddr: 0x100008D14, symSize: 0x240 }
  - { offset: 0x4BB29, size: 0x8, addend: 0x0, symName: __ZN6fuzzer30MinimizeCrashInputInternalStepEPNS_6FuzzerEPNS_11InputCorpusE, symObjAddr: 0x28BC, symBinAddr: 0x100008F54, symSize: 0xFC }
  - { offset: 0x4BB49, size: 0x8, addend: 0x0, symName: __ZN6fuzzer30MinimizeCrashInputInternalStepEPNS_6FuzzerEPNS_11InputCorpusE, symObjAddr: 0x28BC, symBinAddr: 0x100008F54, symSize: 0xFC }
  - { offset: 0x4BD56, size: 0x8, addend: 0x0, symName: __ZN6fuzzer5MergeEPNS_6FuzzerERNS_14FuzzingOptionsERKNSt3__16vectorINS4_12basic_stringIcNS4_11char_traitsIcEENS4_9allocatorIcEEEENS9_ISB_EEEESF_PKc, symObjAddr: 0x29B8, symBinAddr: 0x100009050, symSize: 0x334 }
  - { offset: 0x4BD67, size: 0x8, addend: 0x0, symName: __ZN6fuzzer5MergeEPNS_6FuzzerERNS_14FuzzingOptionsERKNSt3__16vectorINS4_12basic_stringIcNS4_11char_traitsIcEENS4_9allocatorIcEEEENS9_ISB_EEEESF_PKc, symObjAddr: 0x29B8, symBinAddr: 0x100009050, symSize: 0x334 }
  - { offset: 0x4CB95, size: 0x8, addend: 0x0, symName: __ZN6fuzzer17AnalyzeDictionaryEPNS_6FuzzerERKNSt3__16vectorINS3_IhNS2_9allocatorIhEEEENS4_IS6_EEEERS8_, symObjAddr: 0x2CEC, symBinAddr: 0x100009384, symSize: 0x698 }
  - { offset: 0x4CBFF, size: 0x8, addend: 0x0, symName: __ZN6fuzzer17AnalyzeDictionaryEPNS_6FuzzerERKNSt3__16vectorINS3_IhNS2_9allocatorIhEEEENS4_IS6_EEEERS8_, symObjAddr: 0x2CEC, symBinAddr: 0x100009384, symSize: 0x698 }
  - { offset: 0x4E1A4, size: 0x8, addend: 0x0, symName: '__ZNK6fuzzer7TracePC15CollectFeaturesIZNS_17AnalyzeDictionaryEPNS_6FuzzerERKNSt3__16vectorINS5_IhNS4_9allocatorIhEEEENS6_IS8_EEEERSA_E3$_0EEmT_', symObjAddr: 0x3384, symBinAddr: 0x100009A1C, symSize: 0x290 }
  - { offset: 0x4E8D5, size: 0x8, addend: 0x0, symName: '__ZN6fuzzer18ForEachNonZeroByteIZNKS_7TracePC15CollectFeaturesIZNS_17AnalyzeDictionaryEPNS_6FuzzerERKNSt3__16vectorINS6_IhNS5_9allocatorIhEEEENS7_IS9_EEEERSB_E3$_0EEmT_EUlmmhE_EEmPKhSJ_mSG_', symObjAddr: 0x8F70, symBinAddr: 0x10000ED18, symSize: 0x3D8 }
  - { offset: 0x4EDC3, size: 0x8, addend: 0x0, symName: __ZNSt3__16vectorImNS_9allocatorImEEE9push_backB8nn210106ERKm, symObjAddr: 0x9348, symBinAddr: 0x10000F0F0, symSize: 0xF8 }
  - { offset: 0x4EDF5, size: 0x8, addend: 0x0, symName: '__ZN6fuzzer18ForEachNonZeroByteIZNKS_7TracePC15CollectFeaturesIZNS_17AnalyzeDictionaryEPNS_6FuzzerERKNSt3__16vectorINS6_IhNS5_9allocatorIhEEEENS7_IS9_EEEERSB_E3$_1EEmT_EUlmmhE_EEmPKhSJ_mSG_', symObjAddr: 0x9454, symBinAddr: 0x10000F1FC, symSize: 0x3D8 }
  - { offset: 0x4F2E3, size: 0x8, addend: 0x0, symName: __ZNSt3__16vectorINS_12basic_stringIcNS_11char_traitsIcEENS_9allocatorIcEEEENS4_IS6_EEE16__init_with_sizeB8nn210106IPPcSB_EEvT_T0_m, symObjAddr: 0x982C, symBinAddr: 0x10000F5D4, symSize: 0x118 }
  - { offset: 0x4F2F7, size: 0x8, addend: 0x0, symName: __ZN6fuzzer14ParseSeedInutsEPKc, symObjAddr: 0x38A4, symBinAddr: 0x100009F3C, symSize: 0x49C }
  - { offset: 0x50707, size: 0x8, addend: 0x0, symName: __ZNSt3__16vectorINS_12basic_stringIcNS_11char_traitsIcEENS_9allocatorIcEEEENS4_IS6_EEE9push_backB8nn210106EOS6_, symObjAddr: 0x3D40, symBinAddr: 0x10000A3D8, symSize: 0x140 }
  - { offset: 0x509C1, size: 0x8, addend: 0x0, symName: __ZN6fuzzer12FuzzerDriverEPiPPPcPFiPKhmE, symObjAddr: 0x3F00, symBinAddr: 0x10000A598, symSize: 0x1F54 }
  - { offset: 0x56ADD, size: 0x8, addend: 0x0, symName: __ZN6fuzzerL23ValidateDirectoryExistsERKNSt3__112basic_stringIcNS0_11char_traitsIcEENS0_9allocatorIcEEEEb, symObjAddr: 0x5E54, symBinAddr: 0x10000C4EC, symSize: 0xBC }
  - { offset: 0x56B32, size: 0x8, addend: 0x0, symName: __ZN6fuzzerL23ValidateDirectoryExistsERKNSt3__112basic_stringIcNS0_11char_traitsIcEENS0_9allocatorIcEEEEb, symObjAddr: 0x5E54, symBinAddr: 0x10000C4EC, symSize: 0xBC }
  - { offset: 0x56D20, size: 0x8, addend: 0x0, symName: __ZN6fuzzerL11ReadCorporaERKNSt3__16vectorINS0_12basic_stringIcNS0_11char_traitsIcEENS0_9allocatorIcEEEENS5_IS7_EEEESB_, symObjAddr: 0x5F10, symBinAddr: 0x10000C5A8, symSize: 0x188 }
  - { offset: 0x56DAB, size: 0x8, addend: 0x0, symName: __ZN6fuzzerL11ReadCorporaERKNSt3__16vectorINS0_12basic_stringIcNS0_11char_traitsIcEENS0_9allocatorIcEEEENS5_IS7_EEEESB_, symObjAddr: 0x5F10, symBinAddr: 0x10000C5A8, symSize: 0x188 }
  - { offset: 0x5740E, size: 0x8, addend: 0x0, symName: __ZN6fuzzerL11PulseThreadEv, symObjAddr: 0x6CF4, symBinAddr: 0x10000CB3C, symSize: 0x40 }
  - { offset: 0x57507, size: 0x8, addend: 0x0, symName: __ZN6fuzzerL12WorkerThreadERKNS_7CommandEPNSt3__16atomicIjEEjPNS4_IbEE, symObjAddr: 0x6D34, symBinAddr: 0x10000CB7C, symSize: 0x2D0 }
  - { offset: 0x581CE, size: 0x8, addend: 0x0, symName: __ZN6fuzzerL9RssThreadEPNS_6FuzzerEm, symObjAddr: 0x764C, symBinAddr: 0x10000D494, symSize: 0x34 }
  - { offset: 0x705DC, size: 0x8, addend: 0x0, symName: __ZNSt3__111__introsortINS_17_ClassicAlgPolicyERNS_6__lessIvvEEPN6fuzzer9SizedFileELb0EEEvT1_S8_T0_NS_15iterator_traitsIS8_E15difference_typeEb, symObjAddr: 0x7A50, symBinAddr: 0x10000D7F8, symSize: 0x528 }
  - { offset: 0x714F0, size: 0x8, addend: 0x0, symName: __ZNSt3__111__sift_downB8nn210106INS_17_ClassicAlgPolicyERNS_6__lessIvvEEPN6fuzzer9SizedFileEEEvT1_OT0_NS_15iterator_traitsIS8_E15difference_typeES8_, symObjAddr: 0x8B50, symBinAddr: 0x10000E8F8, symSize: 0x178 }
  - { offset: 0x719BA, size: 0x8, addend: 0x0, symName: __ZNSt3__131__partition_with_equals_on_leftB8nn210106INS_17_ClassicAlgPolicyEPN6fuzzer9SizedFileERNS_6__lessIvvEEEET0_S8_S8_T1_, symObjAddr: 0x8598, symBinAddr: 0x10000E340, symSize: 0x1AC }
  - { offset: 0x72123, size: 0x8, addend: 0x0, symName: __ZNSt3__132__partition_with_equals_on_rightB8nn210106INS_17_ClassicAlgPolicyEPN6fuzzer9SizedFileERNS_6__lessIvvEEEENS_4pairIT0_bEES9_S9_T1_, symObjAddr: 0x8744, symBinAddr: 0x10000E4EC, symSize: 0x1B8 }
  - { offset: 0x72897, size: 0x8, addend: 0x0, symName: __ZNSt3__127__insertion_sort_incompleteB8nn210106INS_17_ClassicAlgPolicyERNS_6__lessIvvEEPN6fuzzer9SizedFileEEEbT1_S8_T0_, symObjAddr: 0x88FC, symBinAddr: 0x10000E6A4, symSize: 0x254 }
  - { offset: 0x77080, size: 0x8, addend: 0x0, symName: __ZNSt3__19remove_ifB8nn210106INS_11__wrap_iterIPNS_12basic_stringIcNS_11char_traitsIcEENS_9allocatorIcEEEEEEZN6fuzzer7Command10removeFlagERKS7_EUlSD_E_EET_SF_SF_T0_, symObjAddr: 0x6164, symBinAddr: 0x10000C7B8, symSize: 0x134 }
  - { offset: 0x7770C, size: 0x8, addend: 0x0, symName: __ZNSt3__16removeB8nn210106INS_11__wrap_iterIPNS_12basic_stringIcNS_11char_traitsIcEENS_9allocatorIcEEEEEES7_EET_SA_SA_RKT0_, symObjAddr: 0x62C8, symBinAddr: 0x10000C8EC, symSize: 0x140 }
  - { offset: 0x7CF9A, size: 0x8, addend: 0x0, symName: __ZNSt3__16removeB8nn210106INS_11__wrap_iterIPNS_12basic_stringIcNS_11char_traitsIcEENS_9allocatorIcEEEEEES7_EET_SA_SA_RKT0_, symObjAddr: 0x62C8, symBinAddr: 0x10000C8EC, symSize: 0x140 }
  - { offset: 0x7D95B, size: 0x8, addend: 0x0, symName: __ZNSt3__114__thread_proxyB8nn210106INS_5tupleIJNS_10unique_ptrINS_15__thread_structENS_14default_deleteIS3_EEEEPFvvEEEEEEPvSA_, symObjAddr: 0x7004, symBinAddr: 0x10000CE4C, symSize: 0x60 }
  - { offset: 0x7DEA4, size: 0x8, addend: 0x0, symName: __ZNSt3__114__thread_proxyB8nn210106INS_5tupleIJNS_10unique_ptrINS_15__thread_structENS_14default_deleteIS3_EEEEPFvRKN6fuzzer7CommandEPNS_6atomicIjEEjPNSB_IbEEENS_17reference_wrapperIS8_EESD_jSF_EEEEEPvSL_, symObjAddr: 0x72F8, symBinAddr: 0x10000D140, symSize: 0x6C }
  - { offset: 0x7E429, size: 0x8, addend: 0x0, symName: __ZNSt3__114__thread_proxyB8nn210106INS_5tupleIJNS_10unique_ptrINS_15__thread_structENS_14default_deleteIS3_EEEEPFvPN6fuzzer6FuzzerEmES9_mEEEEEPvSD_, symObjAddr: 0x7680, symBinAddr: 0x10000D4C8, symSize: 0x64 }
  - { offset: 0x7EAB4, size: 0x8, addend: 0x0, symName: __ZNSt3__17__sort3B8nn210106INS_17_ClassicAlgPolicyERNS_6__lessIvvEEPN6fuzzer9SizedFileETnNS_9enable_ifIXnt21__use_branchless_sortIT0_T1_EEiE4typeELi0EEEbSA_SA_SA_S9_, symObjAddr: 0x7F78, symBinAddr: 0x10000DD20, symSize: 0x298 }
  - { offset: 0x7F70F, size: 0x8, addend: 0x0, symName: __ZNSt3__17__sort5B8nn210106INS_17_ClassicAlgPolicyERNS_6__lessIvvEEPN6fuzzer9SizedFileETnNS_9enable_ifIXnt21__use_branchless_sortIT0_T1_EEiE4typeELi0EEEvSA_SA_SA_SA_SA_S9_, symObjAddr: 0x83A8, symBinAddr: 0x10000E150, symSize: 0x1F0 }
  - { offset: 0x8031E, size: 0x8, addend: 0x0, symName: __ZNSt3__17__sort4B8nn210106INS_17_ClassicAlgPolicyERNS_6__lessIvvEEPN6fuzzer9SizedFileETnNS_9enable_ifIXnt21__use_branchless_sortIT0_T1_EEiE4typeELi0EEEvSA_SA_SA_SA_S9_, symObjAddr: 0x8210, symBinAddr: 0x10000DFB8, symSize: 0x198 }
  - { offset: 0x80C3E, size: 0x8, addend: 0x0, symName: __ZNSt3__110__pop_heapB8nn210106INS_17_ClassicAlgPolicyENS_6__lessIvvEEPN6fuzzer9SizedFileEEEvT1_S7_RT0_NS_15iterator_traitsIS7_E15difference_typeE, symObjAddr: 0x8CC8, symBinAddr: 0x10000EA70, symSize: 0x24C }
  - { offset: 0x82828, size: 0x8, addend: 0x0, symName: __ZNSt3__19remove_ifB8nn210106INS_11__wrap_iterIPNS_12basic_stringIcNS_11char_traitsIcEENS_9allocatorIcEEEEEEZN6fuzzer7Command10removeFlagERKS7_EUlSD_E_EET_SF_SF_T0_, symObjAddr: 0x6164, symBinAddr: 0x10000C7B8, symSize: 0x134 }
  - { offset: 0x8464C, size: 0x8, addend: 0x0, symName: ___libfuzzer_is_present, symObjAddr: 0x0, symBinAddr: 0x100006A90, symSize: 0x4 }
  - { offset: 0x84AAD, size: 0x8, addend: 0x0, symName: __ZN6fuzzerL11PulseThreadEv, symObjAddr: 0x6CF4, symBinAddr: 0x10000CB3C, symSize: 0x40 }
  - { offset: 0x84D04, size: 0x8, addend: 0x0, symName: __ZNSt3__112basic_stringIcNS_11char_traitsIcEENS_9allocatorIcEEEC1B8nn210106ILi0EEEPKc, symObjAddr: 0x3A8, symBinAddr: 0x100006E38, symSize: 0xA8 }
  - { offset: 0x84F58, size: 0x8, addend: 0x0, symName: __ZN6fuzzer17CleanseCrashInputERKNSt3__16vectorINS0_12basic_stringIcNS0_11char_traitsIcEENS0_9allocatorIcEEEENS5_IS7_EEEERKNS_14FuzzingOptionsE, symObjAddr: 0x450, symBinAddr: 0x100006EE0, symSize: 0x9D4 }
  - { offset: 0x858A0, size: 0x8, addend: 0x0, symName: __ZNSt3__16vectorINS_12basic_stringIcNS_11char_traitsIcEENS_9allocatorIcEEEENS4_IS6_EEE24__emplace_back_slow_pathIJRKS6_EEEPS6_DpOT_, symObjAddr: 0x78F8, symBinAddr: 0x10000D6B4, symSize: 0x130 }
  - { offset: 0x858AB, size: 0x8, addend: 0x0, symName: __ZN6fuzzer7Command10removeFlagERKNSt3__112basic_stringIcNS1_11char_traitsIcEENS1_9allocatorIcEEEE, symObjAddr: 0xE24, symBinAddr: 0x1000078B4, symSize: 0x21C }
  - { offset: 0x86118, size: 0x8, addend: 0x0, symName: __ZN6fuzzer7Command14removeArgumentERKNSt3__112basic_stringIcNS1_11char_traitsIcEENS1_9allocatorIcEEEE, symObjAddr: 0x1040, symBinAddr: 0x100007AD0, symSize: 0x1B0 }
  - { offset: 0x8614E, size: 0x8, addend: 0x0, symName: __ZN6fuzzer7Command14removeArgumentERKNSt3__112basic_stringIcNS1_11char_traitsIcEENS1_9allocatorIcEEEE, symObjAddr: 0x1040, symBinAddr: 0x100007AD0, symSize: 0x1B0 }
  - { offset: 0x86722, size: 0x8, addend: 0x0, symName: __ZN6fuzzer18MinimizeCrashInputERKNSt3__16vectorINS0_12basic_stringIcNS0_11char_traitsIcEENS0_9allocatorIcEEEENS5_IS7_EEEERKNS_14FuzzingOptionsE, symObjAddr: 0x11F0, symBinAddr: 0x100007C80, symSize: 0xEEC }
  - { offset: 0x86CCE, size: 0x8, addend: 0x0, symName: __ZNSt3__16vectorINS_12basic_stringIcNS_11char_traitsIcEENS_9allocatorIcEEEENS4_IS6_EEE20__throw_out_of_rangeB8nn210106Ev, symObjAddr: 0x7A3C, symBinAddr: 0x10000D7E4, symSize: 0x14 }
  - { offset: 0x86CE6, size: 0x8, addend: 0x0, symName: __ZNSt3__111__introsortINS_17_ClassicAlgPolicyERNS_6__lessIvvEEPN6fuzzer9SizedFileELb0EEEvT1_S8_T0_NS_15iterator_traitsIS8_E15difference_typeEb, symObjAddr: 0x7A50, symBinAddr: 0x10000D7F8, symSize: 0x528 }
  - { offset: 0x86F56, size: 0x8, addend: 0x0, symName: __ZN6fuzzer7Command7addFlagERKNSt3__112basic_stringIcNS1_11char_traitsIcEENS1_9allocatorIcEEEES9_, symObjAddr: 0x20DC, symBinAddr: 0x100008B6C, symSize: 0x1A8 }
  - { offset: 0x87E3D, size: 0x8, addend: 0x0, symName: __ZN6fuzzerL26GetDedupTokenFromCmdOutputERKNSt3__112basic_stringIcNS0_11char_traitsIcEENS0_9allocatorIcEEEE, symObjAddr: 0x267C, symBinAddr: 0x100008D14, symSize: 0x240 }
  - { offset: 0x88547, size: 0x8, addend: 0x0, symName: __ZNSt3__16__treeIjNS_4lessIjEENS_9allocatorIjEEE7destroyEPNS_11__tree_nodeIjPvEE, symObjAddr: 0x8F14, symBinAddr: 0x10000ECBC, symSize: 0x48 }
  - { offset: 0x890C8, size: 0x8, addend: 0x0, symName: '__ZNK6fuzzer7TracePC15CollectFeaturesIZNS_17AnalyzeDictionaryEPNS_6FuzzerERKNSt3__16vectorINS5_IhNS4_9allocatorIhEEEENS6_IS8_EEEERSA_E3$_0EEmT_', symObjAddr: 0x3384, symBinAddr: 0x100009A1C, symSize: 0x290 }
  - { offset: 0x8970D, size: 0x8, addend: 0x0, symName: '__ZNK6fuzzer7TracePC15CollectFeaturesIZNS_17AnalyzeDictionaryEPNS_6FuzzerERKNSt3__16vectorINS5_IhNS4_9allocatorIhEEEENS6_IS8_EEEERSA_E3$_1EEmT_', symObjAddr: 0x3614, symBinAddr: 0x100009CAC, symSize: 0x290 }
  - { offset: 0x8975E, size: 0x8, addend: 0x0, symName: '__ZNK6fuzzer7TracePC15CollectFeaturesIZNS_17AnalyzeDictionaryEPNS_6FuzzerERKNSt3__16vectorINS5_IhNS4_9allocatorIhEEEENS6_IS8_EEEERSA_E3$_1EEmT_', symObjAddr: 0x3614, symBinAddr: 0x100009CAC, symSize: 0x290 }
  - { offset: 0x89DA3, size: 0x8, addend: 0x0, symName: __ZN6fuzzer14ParseSeedInutsEPKc, symObjAddr: 0x38A4, symBinAddr: 0x100009F3C, symSize: 0x49C }
  - { offset: 0x89DFE, size: 0x8, addend: 0x0, symName: __ZNSt3__16vectorINS_12basic_stringIcNS_11char_traitsIcEENS_9allocatorIcEEEENS4_IS6_EEE20__throw_out_of_rangeB8nn210106Ev, symObjAddr: 0x7A3C, symBinAddr: 0x10000D7E4, symSize: 0x14 }
  - { offset: 0x89E09, size: 0x8, addend: 0x0, symName: __ZNSt3__16vectorIiNS_9allocatorIiEEE20__throw_length_errorB8nn210106Ev, symObjAddr: 0x8F5C, symBinAddr: 0x10000ED04, symSize: 0x14 }
  - { offset: 0x89E21, size: 0x8, addend: 0x0, symName: '__ZN6fuzzer18ForEachNonZeroByteIZNKS_7TracePC15CollectFeaturesIZNS_17AnalyzeDictionaryEPNS_6FuzzerERKNSt3__16vectorINS6_IhNS5_9allocatorIhEEEENS7_IS9_EEEERSB_E3$_0EEmT_EUlmmhE_EEmPKhSJ_mSG_', symObjAddr: 0x8F70, symBinAddr: 0x10000ED18, symSize: 0x3D8 }
  - { offset: 0x8A226, size: 0x8, addend: 0x0, symName: __ZNSt3__16vectorImNS_9allocatorImEEE9push_backB8nn210106ERKm, symObjAddr: 0x9348, symBinAddr: 0x10000F0F0, symSize: 0xF8 }
  - { offset: 0x8A631, size: 0x8, addend: 0x0, symName: __ZNSt3__16vectorImNS_9allocatorImEEE20__throw_length_errorB8nn210106Ev, symObjAddr: 0x9440, symBinAddr: 0x10000F1E8, symSize: 0x14 }
  - { offset: 0x8A63C, size: 0x8, addend: 0x0, symName: __ZNSt3__16vectorImNS_9allocatorImEEE20__throw_length_errorB8nn210106Ev, symObjAddr: 0x9440, symBinAddr: 0x10000F1E8, symSize: 0x14 }
  - { offset: 0x8A654, size: 0x8, addend: 0x0, symName: '__ZN6fuzzer18ForEachNonZeroByteIZNKS_7TracePC15CollectFeaturesIZNS_17AnalyzeDictionaryEPNS_6FuzzerERKNSt3__16vectorINS6_IhNS5_9allocatorIhEEEENS7_IS9_EEEERSB_E3$_1EEmT_EUlmmhE_EEmPKhSJ_mSG_', symObjAddr: 0x9454, symBinAddr: 0x10000F1FC, symSize: 0x3D8 }
  - { offset: 0x8AA73, size: 0x8, addend: 0x0, symName: __ZNSt3__16vectorINS_12basic_stringIcNS_11char_traitsIcEENS_9allocatorIcEEEENS4_IS6_EEE9push_backB8nn210106EOS6_, symObjAddr: 0x3D40, symBinAddr: 0x10000A3D8, symSize: 0x140 }
  - { offset: 0x8AF27, size: 0x8, addend: 0x0, symName: __ZNSt3__16vectorINS_12basic_stringIcNS_11char_traitsIcEENS_9allocatorIcEEEENS4_IS6_EEED1B8nn210106Ev, symObjAddr: 0x3E80, symBinAddr: 0x10000A518, symSize: 0x80 }
  - { offset: 0x8B06E, size: 0x8, addend: 0x0, symName: __ZNSt3__16vectorINS_12basic_stringIcNS_11char_traitsIcEENS_9allocatorIcEEEENS4_IS6_EEED1B8nn210106Ev, symObjAddr: 0x3E80, symBinAddr: 0x10000A518, symSize: 0x80 }
  - { offset: 0x8CB30, size: 0x8, addend: 0x0, symName: __ZNSt3__16vectorINS_12basic_stringIcNS_11char_traitsIcEENS_9allocatorIcEEEENS4_IS6_EEE16__init_with_sizeB8nn210106IPPcSB_EEvT_T0_m, symObjAddr: 0x982C, symBinAddr: 0x10000F5D4, symSize: 0x118 }
  - { offset: 0x8CFF0, size: 0x8, addend: 0x0, symName: __ZNSt3__16vectorINS_12basic_stringIcNS_11char_traitsIcEENS_9allocatorIcEEEENS4_IS6_EEE24__emplace_back_slow_pathIJRKS6_EEEPS6_DpOT_, symObjAddr: 0x78F8, symBinAddr: 0x10000D6B4, symSize: 0x130 }
  - { offset: 0x8D434, size: 0x8, addend: 0x0, symName: __ZNSt3__16vectorINS_6threadENS_9allocatorIS1_EEE8__appendEm, symObjAddr: 0x7064, symBinAddr: 0x10000CEAC, symSize: 0x280 }
  - { offset: 0x8D9C5, size: 0x8, addend: 0x0, symName: __ZNSt3__16vectorINS_6threadENS_9allocatorIS1_EEE20__throw_length_errorB8nn210106Ev, symObjAddr: 0x72E4, symBinAddr: 0x10000D12C, symSize: 0x14 }
  - { offset: 0x8D9D0, size: 0x8, addend: 0x0, symName: __ZN6fuzzer11InputCorpusC2ERKNSt3__112basic_stringIcNS1_11char_traitsIcEENS1_9allocatorIcEEEENS_15EntropicOptionsE, symObjAddr: 0x74BC, symBinAddr: 0x10000D304, symSize: 0x190 }
  - { offset: 0x8E26E, size: 0x8, addend: 0x0, symName: __ZN6fuzzer14FuzzingOptionsD2Ev, symObjAddr: 0x76E4, symBinAddr: 0x10000D52C, symSize: 0x188 }
  - { offset: 0x8ED43, size: 0x8, addend: 0x0, symName: __ZNSt3__16vectorINS0_IhNS_9allocatorIhEEEENS1_IS3_EEED1B8nn210106Ev, symObjAddr: 0x6098, symBinAddr: 0x10000C730, symSize: 0x84 }
  - { offset: 0x8F1C0, size: 0x8, addend: 0x0, symName: __ZNSt3__16vectorIN6fuzzer9SizedFileENS_9allocatorIS2_EEE24__emplace_back_slow_pathIJS2_EEEPS2_DpOT_, symObjAddr: 0x7364, symBinAddr: 0x10000D1AC, symSize: 0x144 }
  - { offset: 0x8F85D, size: 0x8, addend: 0x0, symName: __ZNSt3__16vectorIN6fuzzer9SizedFileENS_9allocatorIS2_EEE20__throw_length_errorB8nn210106Ev, symObjAddr: 0x74A8, symBinAddr: 0x10000D2F0, symSize: 0x14 }
  - { offset: 0x8F875, size: 0x8, addend: 0x0, symName: _LLVMFuzzerRunDriver, symObjAddr: 0x611C, symBinAddr: 0x10000C7B4, symSize: 0x4 }
  - { offset: 0x8F8C1, size: 0x8, addend: 0x0, symName: _LLVMFuzzerRunDriver, symObjAddr: 0x611C, symBinAddr: 0x10000C7B4, symSize: 0x4 }
  - { offset: 0x90093, size: 0x8, addend: 0x0, symName: __ZN6fuzzer7CommandC2ERKS0_, symObjAddr: 0x6880, symBinAddr: 0x10000CA2C, symSize: 0x110 }
  - { offset: 0x90196, size: 0x8, addend: 0x0, symName: __ZN6fuzzer7CommandC2ERKS0_, symObjAddr: 0x6880, symBinAddr: 0x10000CA2C, symSize: 0x110 }
  - { offset: 0x91057, size: 0x8, addend: 0x0, symName: __ZNSt3__16vectorINS_6threadENS_9allocatorIS1_EEE20__throw_length_errorB8nn210106Ev, symObjAddr: 0x72E4, symBinAddr: 0x10000D12C, symSize: 0x14 }
  - { offset: 0x9106F, size: 0x8, addend: 0x0, symName: __ZNSt3__114__thread_proxyB8nn210106INS_5tupleIJNS_10unique_ptrINS_15__thread_structENS_14default_deleteIS3_EEEEPFvRKN6fuzzer7CommandEPNS_6atomicIjEEjPNSB_IbEEENS_17reference_wrapperIS8_EESD_jSF_EEEEEPvSL_, symObjAddr: 0x72F8, symBinAddr: 0x10000D140, symSize: 0x6C }
  - { offset: 0x9130C, size: 0x8, addend: 0x0, symName: __ZNSt3__16vectorIN6fuzzer9SizedFileENS_9allocatorIS2_EEE20__throw_length_errorB8nn210106Ev, symObjAddr: 0x74A8, symBinAddr: 0x10000D2F0, symSize: 0x14 }
  - { offset: 0x91324, size: 0x8, addend: 0x0, symName: __ZN6fuzzer11InputCorpusC2ERKNSt3__112basic_stringIcNS1_11char_traitsIcEENS1_9allocatorIcEEEENS_15EntropicOptionsE, symObjAddr: 0x74BC, symBinAddr: 0x10000D304, symSize: 0x190 }
  - { offset: 0x91C47, size: 0x8, addend: 0x0, symName: __GLOBAL__sub_I_FuzzerDriver.cpp, symObjAddr: 0x9988, symBinAddr: 0x10000F6EC, symSize: 0x1C }
  - { offset: 0x91C5F, size: 0x8, addend: 0x0, symName: __GLOBAL__sub_I_FuzzerDriver.cpp, symObjAddr: 0x9988, symBinAddr: 0x10000F6EC, symSize: 0x1C }
  - { offset: 0x93A92, size: 0x8, addend: 0x0, symName: __ZN6fuzzer17ExternalFunctionsC2Ev, symObjAddr: 0x0, symBinAddr: 0x10000F708, symSize: 0x2F4 }
  - { offset: 0x94062, size: 0x8, addend: 0x0, symName: __ZN6fuzzer17ExternalFunctionsC2Ev, symObjAddr: 0x0, symBinAddr: 0x10000F708, symSize: 0x2F4 }
  - { offset: 0x946F6, size: 0x8, addend: 0x0, symName: __ZN6fuzzer17ExternalFunctionsC1Ev, symObjAddr: 0x2F4, symBinAddr: 0x10000F9FC, symSize: 0x4 }
  - { offset: 0x94724, size: 0x8, addend: 0x0, symName: __ZN6fuzzer17ExternalFunctionsC1Ev, symObjAddr: 0x2F4, symBinAddr: 0x10000F9FC, symSize: 0x4 }
  - { offset: 0x97170, size: 0x8, addend: 0x0, symName: __ZN6fuzzer18ExtraCountersBeginEv, symObjAddr: 0x0, symBinAddr: 0x10000FA00, symSize: 0x8 }
  - { offset: 0x97183, size: 0x8, addend: 0x0, symName: __ZN6fuzzer18ExtraCountersBeginEv, symObjAddr: 0x0, symBinAddr: 0x10000FA00, symSize: 0x8 }
  - { offset: 0x971A1, size: 0x8, addend: 0x0, symName: __ZN6fuzzer16ExtraCountersEndEv, symObjAddr: 0x8, symBinAddr: 0x10000FA08, symSize: 0x8 }
  - { offset: 0x971BF, size: 0x8, addend: 0x0, symName: __ZN6fuzzer18ClearExtraCountersEv, symObjAddr: 0x10, symBinAddr: 0x10000FA10, symSize: 0x4 }
  - { offset: 0x9731A, size: 0x8, addend: 0x0, symName: __ZN6fuzzer12WorkerThreadEPNS_8JobQueueES1_, symObjAddr: 0x0, symBinAddr: 0x10000FA14, symSize: 0xC4 }
  - { offset: 0xA6330, size: 0x8, addend: 0x0, symName: __ZNSt3__1rsB8nn210106IcNS_11char_traitsIcEENS_9allocatorIcEEEERNS_13basic_istreamIT_T0_EES9_RNS_12basic_stringIS6_S7_T1_EE, symObjAddr: 0x7100, symBinAddr: 0x10001538C, symSize: 0x1D0 }
  - { offset: 0xB1510, size: 0x8, addend: 0x0, symName: __ZNSt3__127__tree_balance_after_insertB8nn210106IPNS_16__tree_node_baseIPvEEEEvT_S5_, symObjAddr: 0x621C, symBinAddr: 0x100014D10, symSize: 0x1D4 }
  - { offset: 0xB3F7A, size: 0x8, addend: 0x0, symName: __ZNK6fuzzer7Command12getFlagValueERKNSt3__112basic_stringIcNS1_11char_traitsIcEENS1_9allocatorIcEEEE, symObjAddr: 0x6C58, symBinAddr: 0x100014EE4, symSize: 0x2A8 }
  - { offset: 0xB6A89, size: 0x8, addend: 0x0, symName: __ZNSt3__114__thread_proxyB8nn210106INS_5tupleIJNS_10unique_ptrINS_15__thread_structENS_14default_deleteIS3_EEEEPFvPN6fuzzer8JobQueueES9_ES9_S9_EEEEEPvSD_, symObjAddr: 0x8F60, symBinAddr: 0x100015AF8, symSize: 0x64 }
  - { offset: 0xB7F19, size: 0x8, addend: 0x0, symName: __ZN6fuzzer12WorkerThreadEPNS_8JobQueueES1_, symObjAddr: 0x0, symBinAddr: 0x10000FA14, symSize: 0xC4 }
  - { offset: 0xB82E3, size: 0x8, addend: 0x0, symName: __ZN6fuzzer12FuzzWithForkERNS_6RandomERKNS_14FuzzingOptionsERKNSt3__16vectorINS5_12basic_stringIcNS5_11char_traitsIcEENS5_9allocatorIcEEEENSA_ISC_EEEESG_i, symObjAddr: 0x1A4, symBinAddr: 0x10000FBB8, symSize: 0x1724 }
  - { offset: 0xBE49B, size: 0x8, addend: 0x0, symName: __ZNSt3__13setIjNS_4lessIjEENS_9allocatorIjEEE6insertB8nn210106INS_21__tree_const_iteratorIjPNS_11__tree_nodeIjPvEElEEEEvT_SD_, symObjAddr: 0x18C8, symBinAddr: 0x1000112DC, symSize: 0x104 }
  - { offset: 0xBFC19, size: 0x8, addend: 0x0, symName: __ZN6fuzzer8JobQueue3PopEv, symObjAddr: 0xC4, symBinAddr: 0x10000FAD8, symSize: 0xE0 }
  - { offset: 0xBFEF9, size: 0x8, addend: 0x0, symName: __ZNSt3__15dequeIPN6fuzzer7FuzzJobENS_9allocatorIS3_EEE19__add_back_capacityEv, symObjAddr: 0x4434, symBinAddr: 0x100013B7C, symSize: 0x2F0 }
  - { offset: 0xC0A0B, size: 0x8, addend: 0x0, symName: __ZNSt3__114__split_bufferIPPN6fuzzer7FuzzJobENS_9allocatorIS4_EEE12emplace_backIJRS4_EEEvDpOT_, symObjAddr: 0x4724, symBinAddr: 0x100013E6C, symSize: 0x180 }
  - { offset: 0xC3028, size: 0x8, addend: 0x0, symName: __ZNSt3__16vectorINS_12basic_stringIcNS_11char_traitsIcEENS_9allocatorIcEEEENS4_IS6_EEE18__assign_with_sizeB8nn210106IPS6_SA_EEvT_T0_l, symObjAddr: 0x7468, symBinAddr: 0x1000156CC, symSize: 0x28C }
  - { offset: 0xC3CA3, size: 0x8, addend: 0x0, symName: __ZNSt3__13setIjNS_4lessIjEENS_9allocatorIjEEE6insertB8nn210106INS_21__tree_const_iteratorIjPNS_11__tree_nodeIjPvEElEEEEvT_SD_, symObjAddr: 0x18C8, symBinAddr: 0x1000112DC, symSize: 0x104 }
  - { offset: 0xC3CEA, size: 0x8, addend: 0x0, symName: __ZNSt3__13setIjNS_4lessIjEENS_9allocatorIjEEE6insertB8nn210106INS_21__tree_const_iteratorIjPNS_11__tree_nodeIjPvEElEEEEvT_SD_, symObjAddr: 0x18C8, symBinAddr: 0x1000112DC, symSize: 0x104 }
  - { offset: 0xC40A3, size: 0x8, addend: 0x0, symName: __ZN6fuzzer9GlobalEnv12CreateNewJobEm, symObjAddr: 0x19CC, symBinAddr: 0x1000113E0, symSize: 0x16C8 }
  - { offset: 0xCACA1, size: 0x8, addend: 0x0, symName: '__ZZN6fuzzer12FuzzWithForkERNS_6RandomERKNS_14FuzzingOptionsERKNSt3__16vectorINS5_12basic_stringIcNS5_11char_traitsIcEENS5_9allocatorIcEEEENSA_ISC_EEEESG_iENK3$_0clEv', symObjAddr: 0x3094, symBinAddr: 0x100012AA8, symSize: 0x19C }
  - { offset: 0xCACAC, size: 0x8, addend: 0x0, symName: __ZN6fuzzer7FuzzJobD2Ev, symObjAddr: 0x8FD8, symBinAddr: 0x100015B5C, symSize: 0x17C }
  - { offset: 0xCB59B, size: 0x8, addend: 0x0, symName: __ZN6fuzzer9GlobalEnv14RunOneMergeJobEPNS_7FuzzJobE, symObjAddr: 0x3230, symBinAddr: 0x100012C44, symSize: 0xEF4 }
  - { offset: 0xCF219, size: 0x8, addend: 0x0, symName: '__ZZN6fuzzer12FuzzWithForkERNS_6RandomERKNS_14FuzzingOptionsERKNSt3__16vectorINS5_12basic_stringIcNS5_11char_traitsIcEENS5_9allocatorIcEEEENSA_ISC_EEEESG_iENK3$_0clEv', symObjAddr: 0x3094, symBinAddr: 0x100012AA8, symSize: 0x19C }
  - { offset: 0xCFA37, size: 0x8, addend: 0x0, symName: __ZNSt3__16vectorINS_12basic_stringIcNS_11char_traitsIcEENS_9allocatorIcEEEENS4_IS6_EEE18__assign_with_sizeB8nn210106IPS6_SA_EEvT_T0_l, symObjAddr: 0x7468, symBinAddr: 0x1000156CC, symSize: 0x28C }
  - { offset: 0xCFA42, size: 0x8, addend: 0x0, symName: __ZNK6fuzzer9GlobalEnv26secondsSinceProcessStartUpEv, symObjAddr: 0x43F0, symBinAddr: 0x100013B38, symSize: 0x44 }
  - { offset: 0xCFAF9, size: 0x8, addend: 0x0, symName: __ZN6fuzzer7FuzzJobD2Ev, symObjAddr: 0x8FD8, symBinAddr: 0x100015B5C, symSize: 0x17C }
  - { offset: 0xCFDFA, size: 0x8, addend: 0x0, symName: __ZNSt3__16__treeIjNS_4lessIjEENS_9allocatorIjEEE12__find_equalIjEERPNS_16__tree_node_baseIPvEENS_21__tree_const_iteratorIjPNS_11__tree_nodeIjS8_EElEERPNS_15__tree_end_nodeISA_EESB_RKT_, symObjAddr: 0x8DC0, symBinAddr: 0x100015958, symSize: 0x1A0 }
  - { offset: 0xCFE5E, size: 0x8, addend: 0x0, symName: __ZNSt3__16__treeIjNS_4lessIjEENS_9allocatorIjEEE12__find_equalIjEERPNS_16__tree_node_baseIPvEENS_21__tree_const_iteratorIjPNS_11__tree_nodeIjS8_EElEERPNS_15__tree_end_nodeISA_EESB_RKT_, symObjAddr: 0x8DC0, symBinAddr: 0x100015958, symSize: 0x1A0 }
  - { offset: 0xCFE7A, size: 0x8, addend: 0x0, symName: __ZNSt3__16__treeIjNS_4lessIjEENS_9allocatorIjEEE12__find_equalIjEERPNS_16__tree_node_baseIPvEENS_21__tree_const_iteratorIjPNS_11__tree_nodeIjS8_EElEERPNS_15__tree_end_nodeISA_EESB_RKT_, symObjAddr: 0x8DC0, symBinAddr: 0x100015958, symSize: 0x1A0 }
  - { offset: 0xD14DD, size: 0x8, addend: 0x0, symName: __ZN6fuzzer9GlobalEnv8StopFileEv, symObjAddr: 0x5138, symBinAddr: 0x1000142F8, symSize: 0xF4 }
  - { offset: 0xD14E8, size: 0x8, addend: 0x0, symName: __ZN6fuzzer9GlobalEnv8StopFileEv, symObjAddr: 0x5138, symBinAddr: 0x1000142F8, symSize: 0xF4 }
  - { offset: 0xD1864, size: 0x8, addend: 0x0, symName: __ZNK6fuzzer7Command7hasFlagERKNSt3__112basic_stringIcNS1_11char_traitsIcEENS1_9allocatorIcEEEE, symObjAddr: 0x522C, symBinAddr: 0x1000143EC, symSize: 0x1A8 }
  - { offset: 0xD186F, size: 0x8, addend: 0x0, symName: __ZNK6fuzzer7Command7hasFlagERKNSt3__112basic_stringIcNS1_11char_traitsIcEENS1_9allocatorIcEEEE, symObjAddr: 0x522C, symBinAddr: 0x1000143EC, symSize: 0x1A8 }
  - { offset: 0xD1FF7, size: 0x8, addend: 0x0, symName: __ZN6fuzzer9GlobalEnv10CollectDFTERKNSt3__112basic_stringIcNS1_11char_traitsIcEENS1_9allocatorIcEEEE, symObjAddr: 0x53D4, symBinAddr: 0x100014594, symSize: 0x570 }
  - { offset: 0xD2002, size: 0x8, addend: 0x0, symName: __ZN6fuzzer9GlobalEnv10CollectDFTERKNSt3__112basic_stringIcNS1_11char_traitsIcEENS1_9allocatorIcEEEE, symObjAddr: 0x53D4, symBinAddr: 0x100014594, symSize: 0x570 }
  - { offset: 0xD52FB, size: 0x8, addend: 0x0, symName: __ZNSt3__16vectorIN6fuzzer9SizedFileENS_9allocatorIS2_EEE24__emplace_back_slow_pathIJRKS2_EEEPS2_DpOT_, symObjAddr: 0x72D0, symBinAddr: 0x10001555C, symSize: 0x170 }
  - { offset: 0xD59E4, size: 0x8, addend: 0x0, symName: __ZNK6fuzzer7Command12getFlagValueERKNSt3__112basic_stringIcNS1_11char_traitsIcEENS1_9allocatorIcEEEE, symObjAddr: 0x6C58, symBinAddr: 0x100014EE4, symSize: 0x2A8 }
  - { offset: 0xD65B6, size: 0x8, addend: 0x0, symName: __ZNSt3__16vectorImNS_9allocatorImEEE6insertENS_11__wrap_iterIPKmEERS5_, symObjAddr: 0x6F00, symBinAddr: 0x10001518C, symSize: 0x200 }
  - { offset: 0xD65C1, size: 0x8, addend: 0x0, symName: __ZNSt3__16vectorImNS_9allocatorImEEE6insertENS_11__wrap_iterIPKmEERS5_, symObjAddr: 0x6F00, symBinAddr: 0x10001518C, symSize: 0x200 }
  - { offset: 0xD6DAD, size: 0x8, addend: 0x0, symName: __ZNSt3__1rsB8nn210106IcNS_11char_traitsIcEENS_9allocatorIcEEEERNS_13basic_istreamIT_T0_EES9_RNS_12basic_stringIS6_S7_T1_EE, symObjAddr: 0x7100, symBinAddr: 0x10001538C, symSize: 0x1D0 }
  - { offset: 0xD78AD, size: 0x8, addend: 0x0, symName: __ZNSt3__114__split_bufferIPPN6fuzzer7FuzzJobENS_9allocatorIS4_EEE12emplace_backIJRS4_EEEvDpOT_, symObjAddr: 0x4724, symBinAddr: 0x100013E6C, symSize: 0x180 }
  - { offset: 0xD7D44, size: 0x8, addend: 0x0, symName: __ZNSt3__114__split_bufferIPPN6fuzzer7FuzzJobENS_9allocatorIS4_EEE12emplace_backIJS4_EEEvDpOT_, symObjAddr: 0x48A4, symBinAddr: 0x100013FEC, symSize: 0x180 }
  - { offset: 0xD7D5C, size: 0x8, addend: 0x0, symName: __ZNSt3__114__split_bufferIPPN6fuzzer7FuzzJobENS_9allocatorIS4_EEE12emplace_backIJS4_EEEvDpOT_, symObjAddr: 0x48A4, symBinAddr: 0x100013FEC, symSize: 0x180 }
  - { offset: 0xD81F3, size: 0x8, addend: 0x0, symName: __ZNSt3__114__split_bufferIPPN6fuzzer7FuzzJobENS_9allocatorIS4_EEE13emplace_frontIJS4_EEEvDpOT_, symObjAddr: 0x4A24, symBinAddr: 0x10001416C, symSize: 0x18C }
  - { offset: 0xD820B, size: 0x8, addend: 0x0, symName: __ZNSt3__114__split_bufferIPPN6fuzzer7FuzzJobENS_9allocatorIS4_EEE13emplace_frontIJS4_EEEvDpOT_, symObjAddr: 0x4A24, symBinAddr: 0x10001416C, symSize: 0x18C }
  - { offset: 0xD8A13, size: 0x8, addend: 0x0, symName: __ZNSt3__16__treeINS_12basic_stringIcNS_11char_traitsIcEENS_9allocatorIcEEEENS_4lessIS6_EENS4_IS6_EEE25__emplace_unique_key_argsIS6_JRKS6_EEENS_4pairINS_15__tree_iteratorIS6_PNS_11__tree_nodeIS6_PvEElEEbEERKT_DpOT0_, symObjAddr: 0x6010, symBinAddr: 0x100014B04, symSize: 0xE0 }
  - { offset: 0xD9132, size: 0x8, addend: 0x0, symName: __ZNSt3__16__treeINS_12basic_stringIcNS_11char_traitsIcEENS_9allocatorIcEEEENS_4lessIS6_EENS4_IS6_EEE12__find_equalIS6_EERPNS_16__tree_node_baseIPvEERPNS_15__tree_end_nodeISF_EERKT_, symObjAddr: 0x60F0, symBinAddr: 0x100014BE4, symSize: 0x12C }
  - { offset: 0xDCB36, size: 0x8, addend: 0x0, symName: __ZN6fuzzerL10OutputFileE, symObjAddr: 0x5E418, symBinAddr: 0x1000781C0, symSize: 0x0 }
  - { offset: 0xDCB9D, size: 0x8, addend: 0x0, symName: __ZN6fuzzer13GetOutputFileEv, symObjAddr: 0x0, symBinAddr: 0x100015CD8, symSize: 0xC }
  - { offset: 0xDCBBB, size: 0x8, addend: 0x0, symName: __ZN6fuzzer13SetOutputFileEP7__sFILE, symObjAddr: 0xC, symBinAddr: 0x100015CE4, symSize: 0xC }
  - { offset: 0xDCBE4, size: 0x8, addend: 0x0, symName: __ZN6fuzzer8GetEpochERKNSt3__112basic_stringIcNS0_11char_traitsIcEENS0_9allocatorIcEEEE, symObjAddr: 0x18, symBinAddr: 0x100015CF0, symSize: 0x54 }
  - { offset: 0xDCC92, size: 0x8, addend: 0x0, symName: __ZN6fuzzer12FileToVectorERKNSt3__112basic_stringIcNS0_11char_traitsIcEENS0_9allocatorIcEEEEmb, symObjAddr: 0x6C, symBinAddr: 0x100015D44, symSize: 0x2BC }
  - { offset: 0xDD158, size: 0x8, addend: 0x0, symName: __ZN6fuzzer6PrintfEPKcz, symObjAddr: 0x328, symBinAddr: 0x100016000, symSize: 0x44 }
  - { offset: 0xDD169, size: 0x8, addend: 0x0, symName: __ZN6fuzzer6PrintfEPKcz, symObjAddr: 0x328, symBinAddr: 0x100016000, symSize: 0x44 }
  - { offset: 0xDD1CC, size: 0x8, addend: 0x0, symName: __ZN6fuzzer12FileToStringERKNSt3__112basic_stringIcNS0_11char_traitsIcEENS0_9allocatorIcEEEE, symObjAddr: 0x36C, symBinAddr: 0x100016044, symSize: 0x1E4 }
  - { offset: 0xDD61D, size: 0x8, addend: 0x0, symName: __ZN6fuzzer13CopyFileToErrERKNSt3__112basic_stringIcNS0_11char_traitsIcEENS0_9allocatorIcEEEE, symObjAddr: 0x550, symBinAddr: 0x100016228, symSize: 0x78 }
  - { offset: 0xDD811, size: 0x8, addend: 0x0, symName: __ZN6fuzzer4PutsEPKc, symObjAddr: 0x5C8, symBinAddr: 0x1000162A0, symSize: 0x28 }
  - { offset: 0xDD88C, size: 0x8, addend: 0x0, symName: __ZN6fuzzer11WriteToFileERKNSt3__16vectorIhNS0_9allocatorIhEEEERKNS0_12basic_stringIcNS0_11char_traitsIcEENS2_IcEEEE, symObjAddr: 0x5F0, symBinAddr: 0x1000162C8, symSize: 0x70 }
  - { offset: 0xDD9D5, size: 0x8, addend: 0x0, symName: __ZN6fuzzer11WriteToFileEPKhmRKNSt3__112basic_stringIcNS2_11char_traitsIcEENS2_9allocatorIcEEEE, symObjAddr: 0x660, symBinAddr: 0x100016338, symSize: 0x74 }
  - { offset: 0xDDAC2, size: 0x8, addend: 0x0, symName: __ZN6fuzzer11WriteToFileERKNSt3__112basic_stringIcNS0_11char_traitsIcEENS0_9allocatorIcEEEES8_, symObjAddr: 0x6D4, symBinAddr: 0x1000163AC, symSize: 0x8C }
  - { offset: 0xDDC87, size: 0x8, addend: 0x0, symName: __ZN6fuzzer12AppendToFileERKNSt3__112basic_stringIcNS0_11char_traitsIcEENS0_9allocatorIcEEEES8_, symObjAddr: 0x760, symBinAddr: 0x100016438, symSize: 0x8C }
  - { offset: 0xDDDFC, size: 0x8, addend: 0x0, symName: __ZN6fuzzer12AppendToFileEPKhmRKNSt3__112basic_stringIcNS2_11char_traitsIcEENS2_9allocatorIcEEEE, symObjAddr: 0x7EC, symBinAddr: 0x1000164C4, symSize: 0x74 }
  - { offset: 0xDDF11, size: 0x8, addend: 0x0, symName: __ZN6fuzzer22ReadDirToVectorOfUnitsEPKcPNSt3__16vectorINS3_IhNS2_9allocatorIhEEEENS4_IS6_EEEEPlmbPNS3_INS2_12basic_stringIcNS2_11char_traitsIcEENS4_IcEEEENS4_ISF_EEEE, symObjAddr: 0x860, symBinAddr: 0x100016538, symSize: 0x380 }
  - { offset: 0xDEE54, size: 0x8, addend: 0x0, symName: __ZN6fuzzer20GetSizedFilesFromDirERKNSt3__112basic_stringIcNS0_11char_traitsIcEENS0_9allocatorIcEEEEPNS0_6vectorINS_9SizedFileENS4_ISA_EEEE, symObjAddr: 0xBE0, symBinAddr: 0x1000168B8, symSize: 0x174 }
  - { offset: 0xDEE7F, size: 0x8, addend: 0x0, symName: __ZN6fuzzer20GetSizedFilesFromDirERKNSt3__112basic_stringIcNS0_11char_traitsIcEENS0_9allocatorIcEEEEPNS0_6vectorINS_9SizedFileENS4_ISA_EEEE, symObjAddr: 0xBE0, symBinAddr: 0x1000168B8, symSize: 0x174 }
  - { offset: 0xDF588, size: 0x8, addend: 0x0, symName: __ZN6fuzzer11DirPlusFileERKNSt3__112basic_stringIcNS0_11char_traitsIcEENS0_9allocatorIcEEEES8_, symObjAddr: 0xD54, symBinAddr: 0x100016A2C, symSize: 0x130 }
  - { offset: 0xDFAE6, size: 0x8, addend: 0x0, symName: __ZN6fuzzer17DupAndCloseStderrEv, symObjAddr: 0xE84, symBinAddr: 0x100016B5C, symSize: 0x70 }
  - { offset: 0xDFB00, size: 0x8, addend: 0x0, symName: __ZN6fuzzer17DupAndCloseStderrEv, symObjAddr: 0xE84, symBinAddr: 0x100016B5C, symSize: 0x70 }
  - { offset: 0xDFBF2, size: 0x8, addend: 0x0, symName: __ZN6fuzzer11CloseStdoutEv, symObjAddr: 0xEF4, symBinAddr: 0x100016BCC, symSize: 0x8 }
  - { offset: 0xDFC21, size: 0x8, addend: 0x0, symName: __ZN6fuzzer7VPrintfEbPKcz, symObjAddr: 0xEFC, symBinAddr: 0x100016BD4, symSize: 0x44 }
  - { offset: 0xDFC8C, size: 0x8, addend: 0x0, symName: __ZN6fuzzer14MkDirRecursiveERKNSt3__112basic_stringIcNS0_11char_traitsIcEENS0_9allocatorIcEEEE, symObjAddr: 0xF40, symBinAddr: 0x100016C18, symSize: 0x60 }
  - { offset: 0xDFD41, size: 0x8, addend: 0x0, symName: __ZN6fuzzerL19MkDirRecursiveInnerERKNSt3__112basic_stringIcNS0_11char_traitsIcEENS0_9allocatorIcEEEE, symObjAddr: 0xFA0, symBinAddr: 0x100016C78, symSize: 0xFC }
  - { offset: 0xE0027, size: 0x8, addend: 0x0, symName: __ZN6fuzzer14RmDirRecursiveERKNSt3__112basic_stringIcNS0_11char_traitsIcEENS0_9allocatorIcEEEE, symObjAddr: 0x109C, symBinAddr: 0x100016D74, symSize: 0x1C }
  - { offset: 0xE0058, size: 0x8, addend: 0x0, symName: __ZN6fuzzer14RmDirRecursiveERKNSt3__112basic_stringIcNS0_11char_traitsIcEENS0_9allocatorIcEEEE, symObjAddr: 0x109C, symBinAddr: 0x100016D74, symSize: 0x1C }
  - { offset: 0xE0118, size: 0x8, addend: 0x0, symName: __ZN6fuzzer8TempPathEPKcS1_, symObjAddr: 0x10B8, symBinAddr: 0x100016D90, symSize: 0x230 }
  - { offset: 0xEF990, size: 0x8, addend: 0x0, symName: '__ZZN6fuzzer14RmDirRecursiveERKNSt3__112basic_stringIcNS0_11char_traitsIcEENS0_9allocatorIcEEEEEN3$_08__invokeES8_', symObjAddr: 0x1318, symBinAddr: 0x100016FC0, symSize: 0x4 }
  - { offset: 0xF2538, size: 0x8, addend: 0x0, symName: __ZNSt3__16vectorINS0_IhNS_9allocatorIhEEEENS1_IS3_EEE24__emplace_back_slow_pathIJRKS3_EEEPS3_DpOT_, symObjAddr: 0x1408, symBinAddr: 0x100016FCC, symSize: 0x138 }
  - { offset: 0xF2B88, size: 0x8, addend: 0x0, symName: __ZNSt3__16vectorINS0_IhNS_9allocatorIhEEEENS1_IS3_EEE20__throw_length_errorB8nn210106Ev, symObjAddr: 0x1540, symBinAddr: 0x100017104, symSize: 0x14 }
  - { offset: 0xF2F68, size: 0x8, addend: 0x0, symName: __ZNSt3__16vectorINS0_IhNS_9allocatorIhEEEENS1_IS3_EEE24__emplace_back_slow_pathIJRKS3_EEEPS3_DpOT_, symObjAddr: 0x1408, symBinAddr: 0x100016FCC, symSize: 0x138 }
  - { offset: 0xF37E0, size: 0x8, addend: 0x0, symName: '__ZZN6fuzzer14RmDirRecursiveERKNSt3__112basic_stringIcNS0_11char_traitsIcEENS0_9allocatorIcEEEEEN3$_08__invokeES8_', symObjAddr: 0x1318, symBinAddr: 0x100016FC0, symSize: 0x4 }
  - { offset: 0xF3837, size: 0x8, addend: 0x0, symName: '__ZZN6fuzzer14RmDirRecursiveERKNSt3__112basic_stringIcNS0_11char_traitsIcEENS0_9allocatorIcEEEEEN3$_18__invokeES8_', symObjAddr: 0x131C, symBinAddr: 0x100016FC4, symSize: 0x4 }
  - { offset: 0xF3860, size: 0x8, addend: 0x0, symName: '__ZZN6fuzzer14RmDirRecursiveERKNSt3__112basic_stringIcNS0_11char_traitsIcEENS0_9allocatorIcEEEEEN3$_18__invokeES8_', symObjAddr: 0x131C, symBinAddr: 0x100016FC4, symSize: 0x4 }
  - { offset: 0xF387D, size: 0x8, addend: 0x0, symName: '__ZZN6fuzzer14RmDirRecursiveERKNSt3__112basic_stringIcNS0_11char_traitsIcEENS0_9allocatorIcEEEEEN3$_18__invokeES8_', symObjAddr: 0x131C, symBinAddr: 0x100016FC4, symSize: 0x4 }
  - { offset: 0xF38C3, size: 0x8, addend: 0x0, symName: '__ZZN6fuzzer14RmDirRecursiveERKNSt3__112basic_stringIcNS0_11char_traitsIcEENS0_9allocatorIcEEEEEN3$_28__invokeES8_', symObjAddr: 0x1320, symBinAddr: 0x100016FC8, symSize: 0x4 }
  - { offset: 0xF38EC, size: 0x8, addend: 0x0, symName: '__ZZN6fuzzer14RmDirRecursiveERKNSt3__112basic_stringIcNS0_11char_traitsIcEENS0_9allocatorIcEEEEEN3$_28__invokeES8_', symObjAddr: 0x1320, symBinAddr: 0x100016FC8, symSize: 0x4 }
  - { offset: 0xF3909, size: 0x8, addend: 0x0, symName: '__ZZN6fuzzer14RmDirRecursiveERKNSt3__112basic_stringIcNS0_11char_traitsIcEENS0_9allocatorIcEEEEEN3$_28__invokeES8_', symObjAddr: 0x1320, symBinAddr: 0x100016FC8, symSize: 0x4 }
  - { offset: 0xF3B22, size: 0x8, addend: 0x0, symName: __ZNSt3__16vectorINS0_IhNS_9allocatorIhEEEENS1_IS3_EEE20__throw_length_errorB8nn210106Ev, symObjAddr: 0x1540, symBinAddr: 0x100017104, symSize: 0x14 }
  - { offset: 0xF3F31, size: 0x8, addend: 0x0, symName: __GLOBAL__sub_I_FuzzerIO.cpp, symObjAddr: 0x17F0, symBinAddr: 0x100017118, symSize: 0x18 }
  - { offset: 0xF3F43, size: 0x8, addend: 0x0, symName: __GLOBAL__sub_I_FuzzerIO.cpp, symObjAddr: 0x17F0, symBinAddr: 0x100017118, symSize: 0x18 }
  - { offset: 0xF3F5B, size: 0x8, addend: 0x0, symName: __GLOBAL__sub_I_FuzzerIO.cpp, symObjAddr: 0x17F0, symBinAddr: 0x100017118, symSize: 0x18 }
  - { offset: 0xF5BC0, size: 0x8, addend: 0x0, symName: __ZN6fuzzer6IsFileERKNSt3__112basic_stringIcNS0_11char_traitsIcEENS0_9allocatorIcEEEE, symObjAddr: 0x0, symBinAddr: 0x100017130, symSize: 0x60 }
  - { offset: 0xF5BE6, size: 0x8, addend: 0x0, symName: __ZN6fuzzer10getDevNullEv, symObjAddr: 0xEF0, symBinAddr: 0x100017F78, symSize: 0x80 }
  - { offset: 0xF5C10, size: 0x8, addend: 0x0, symName: __MergedGlobals, symObjAddr: 0x23698, symBinAddr: 0x1000781C8, symSize: 0x0 }
  - { offset: 0xF5C31, size: 0x8, addend: 0x0, symName: __ZN6fuzzer6IsFileERKNSt3__112basic_stringIcNS0_11char_traitsIcEENS0_9allocatorIcEEEE, symObjAddr: 0x0, symBinAddr: 0x100017130, symSize: 0x60 }
  - { offset: 0xF5CDF, size: 0x8, addend: 0x0, symName: __ZN6fuzzer11IsDirectoryERKNSt3__112basic_stringIcNS0_11char_traitsIcEENS0_9allocatorIcEEEE, symObjAddr: 0x60, symBinAddr: 0x100017190, symSize: 0x60 }
  - { offset: 0xF5D8D, size: 0x8, addend: 0x0, symName: __ZN6fuzzer8FileSizeERKNSt3__112basic_stringIcNS0_11char_traitsIcEENS0_9allocatorIcEEEE, symObjAddr: 0xC0, symBinAddr: 0x1000171F0, symSize: 0x54 }
  - { offset: 0xF5E51, size: 0x8, addend: 0x0, symName: __ZN6fuzzer8BasenameERKNSt3__112basic_stringIcNS0_11char_traitsIcEENS0_9allocatorIcEEEE, symObjAddr: 0x114, symBinAddr: 0x100017244, symSize: 0x154 }
  - { offset: 0xF61C2, size: 0x8, addend: 0x0, symName: __ZN6fuzzer12GetSeparatorEv, symObjAddr: 0x268, symBinAddr: 0x100017398, symSize: 0x8 }
  - { offset: 0xF61CD, size: 0x8, addend: 0x0, symName: __ZN6fuzzer12GetSeparatorEv, symObjAddr: 0x268, symBinAddr: 0x100017398, symSize: 0x8 }
  - { offset: 0xF623B, size: 0x8, addend: 0x0, symName: __ZN6fuzzer23ListFilesInDirRecursiveERKNSt3__112basic_stringIcNS0_11char_traitsIcEENS0_9allocatorIcEEEEPlPNS0_6vectorIS6_NS4_IS6_EEEEb, symObjAddr: 0x270, symBinAddr: 0x1000173A0, symSize: 0x3FC }
  - { offset: 0xF6FAA, size: 0x8, addend: 0x0, symName: __ZN6fuzzer19IterateDirRecursiveERKNSt3__112basic_stringIcNS0_11char_traitsIcEENS0_9allocatorIcEEEEPFvS8_ESA_SA_, symObjAddr: 0x714, symBinAddr: 0x10001779C, symSize: 0x258 }
  - { offset: 0xF76F1, size: 0x8, addend: 0x0, symName: __ZN6fuzzer11IsSeparatorEc, symObjAddr: 0x96C, symBinAddr: 0x1000179F4, symSize: 0xC }
  - { offset: 0xF76FC, size: 0x8, addend: 0x0, symName: __ZN6fuzzer11IsSeparatorEc, symObjAddr: 0x96C, symBinAddr: 0x1000179F4, symSize: 0xC }
  - { offset: 0xF772A, size: 0x8, addend: 0x0, symName: __ZN6fuzzer8OpenFileEiPKc, symObjAddr: 0x978, symBinAddr: 0x100017A00, symSize: 0x4 }
  - { offset: 0xF7768, size: 0x8, addend: 0x0, symName: __ZN6fuzzer8OpenFileEiPKc, symObjAddr: 0x978, symBinAddr: 0x100017A00, symSize: 0x4 }
  - { offset: 0xF7782, size: 0x8, addend: 0x0, symName: __ZN6fuzzer9CloseFileEi, symObjAddr: 0x97C, symBinAddr: 0x100017A04, symSize: 0x4 }
  - { offset: 0xF77B2, size: 0x8, addend: 0x0, symName: __ZN6fuzzer9CloseFileEi, symObjAddr: 0x97C, symBinAddr: 0x100017A04, symSize: 0x4 }
  - { offset: 0xF77C5, size: 0x8, addend: 0x0, symName: __ZN6fuzzer13DuplicateFileEi, symObjAddr: 0x980, symBinAddr: 0x100017A08, symSize: 0x4 }
  - { offset: 0xF77F5, size: 0x8, addend: 0x0, symName: __ZN6fuzzer13DuplicateFileEi, symObjAddr: 0x980, symBinAddr: 0x100017A08, symSize: 0x4 }
  - { offset: 0xF7808, size: 0x8, addend: 0x0, symName: __ZN6fuzzer10RemoveFileERKNSt3__112basic_stringIcNS0_11char_traitsIcEENS0_9allocatorIcEEEE, symObjAddr: 0x984, symBinAddr: 0x100017A0C, symSize: 0x14 }
  - { offset: 0xF7834, size: 0x8, addend: 0x0, symName: __ZN6fuzzer10RemoveFileERKNSt3__112basic_stringIcNS0_11char_traitsIcEENS0_9allocatorIcEEEE, symObjAddr: 0x984, symBinAddr: 0x100017A0C, symSize: 0x14 }
  - { offset: 0xF784F, size: 0x8, addend: 0x0, symName: __ZN6fuzzer10RemoveFileERKNSt3__112basic_stringIcNS0_11char_traitsIcEENS0_9allocatorIcEEEE, symObjAddr: 0x984, symBinAddr: 0x100017A0C, symSize: 0x14 }
  - { offset: 0xF786B, size: 0x8, addend: 0x0, symName: __ZN6fuzzer10RemoveFileERKNSt3__112basic_stringIcNS0_11char_traitsIcEENS0_9allocatorIcEEEE, symObjAddr: 0x984, symBinAddr: 0x100017A0C, symSize: 0x14 }
  - { offset: 0xF7887, size: 0x8, addend: 0x0, symName: __ZN6fuzzer10RemoveFileERKNSt3__112basic_stringIcNS0_11char_traitsIcEENS0_9allocatorIcEEEE, symObjAddr: 0x984, symBinAddr: 0x100017A0C, symSize: 0x14 }
  - { offset: 0xF78B3, size: 0x8, addend: 0x0, symName: __ZN6fuzzer10RenameFileERKNSt3__112basic_stringIcNS0_11char_traitsIcEENS0_9allocatorIcEEEES8_, symObjAddr: 0x998, symBinAddr: 0x100017A20, symSize: 0x24 }
  - { offset: 0xF78EE, size: 0x8, addend: 0x0, symName: __ZN6fuzzer10RenameFileERKNSt3__112basic_stringIcNS0_11char_traitsIcEENS0_9allocatorIcEEEES8_, symObjAddr: 0x998, symBinAddr: 0x100017A20, symSize: 0x24 }
  - { offset: 0xF7909, size: 0x8, addend: 0x0, symName: __ZN6fuzzer10RenameFileERKNSt3__112basic_stringIcNS0_11char_traitsIcEENS0_9allocatorIcEEEES8_, symObjAddr: 0x998, symBinAddr: 0x100017A20, symSize: 0x24 }
  - { offset: 0xF7925, size: 0x8, addend: 0x0, symName: __ZN6fuzzer10RenameFileERKNSt3__112basic_stringIcNS0_11char_traitsIcEENS0_9allocatorIcEEEES8_, symObjAddr: 0x998, symBinAddr: 0x100017A20, symSize: 0x24 }
  - { offset: 0xF7941, size: 0x8, addend: 0x0, symName: __ZN6fuzzer10RenameFileERKNSt3__112basic_stringIcNS0_11char_traitsIcEENS0_9allocatorIcEEEES8_, symObjAddr: 0x998, symBinAddr: 0x100017A20, symSize: 0x24 }
  - { offset: 0xF79E0, size: 0x8, addend: 0x0, symName: __ZN6fuzzer15GetHandleFromFdEi, symObjAddr: 0x9BC, symBinAddr: 0x100017A44, symSize: 0x8 }
  - { offset: 0xF7A0E, size: 0x8, addend: 0x0, symName: __ZN6fuzzer7DirNameERKNSt3__112basic_stringIcNS0_11char_traitsIcEENS0_9allocatorIcEEEE, symObjAddr: 0x9C4, symBinAddr: 0x100017A4C, symSize: 0xFC }
  - { offset: 0xF7D87, size: 0x8, addend: 0x0, symName: __ZN6fuzzer6TmpDirEv, symObjAddr: 0xAC0, symBinAddr: 0x100017B48, symSize: 0x120 }
  - { offset: 0xF7D92, size: 0x8, addend: 0x0, symName: __ZN6fuzzer6TmpDirEv, symObjAddr: 0xAC0, symBinAddr: 0x100017B48, symSize: 0x120 }
  - { offset: 0xF828F, size: 0x8, addend: 0x0, symName: __ZN6fuzzer25IsInterestingCoverageFileERKNSt3__112basic_stringIcNS0_11char_traitsIcEENS0_9allocatorIcEEEE, symObjAddr: 0xBE0, symBinAddr: 0x100017C68, symSize: 0x2B8 }
  - { offset: 0xF829A, size: 0x8, addend: 0x0, symName: __ZN6fuzzer25IsInterestingCoverageFileERKNSt3__112basic_stringIcNS0_11char_traitsIcEENS0_9allocatorIcEEEE, symObjAddr: 0xBE0, symBinAddr: 0x100017C68, symSize: 0x2B8 }
  - { offset: 0xF89C5, size: 0x8, addend: 0x0, symName: __ZN6fuzzer8RawPrintEPKc, symObjAddr: 0xE98, symBinAddr: 0x100017F20, symSize: 0x2C }
  - { offset: 0xF89D0, size: 0x8, addend: 0x0, symName: __ZN6fuzzer8RawPrintEPKc, symObjAddr: 0xE98, symBinAddr: 0x100017F20, symSize: 0x2C }
  - { offset: 0xF8A23, size: 0x8, addend: 0x0, symName: __ZN6fuzzer5MkDirERKNSt3__112basic_stringIcNS0_11char_traitsIcEENS0_9allocatorIcEEEE, symObjAddr: 0xEC4, symBinAddr: 0x100017F4C, symSize: 0x18 }
  - { offset: 0xF8A4F, size: 0x8, addend: 0x0, symName: __ZN6fuzzer5MkDirERKNSt3__112basic_stringIcNS0_11char_traitsIcEENS0_9allocatorIcEEEE, symObjAddr: 0xEC4, symBinAddr: 0x100017F4C, symSize: 0x18 }
  - { offset: 0xF8A6A, size: 0x8, addend: 0x0, symName: __ZN6fuzzer5MkDirERKNSt3__112basic_stringIcNS0_11char_traitsIcEENS0_9allocatorIcEEEE, symObjAddr: 0xEC4, symBinAddr: 0x100017F4C, symSize: 0x18 }
  - { offset: 0xF8A86, size: 0x8, addend: 0x0, symName: __ZN6fuzzer5MkDirERKNSt3__112basic_stringIcNS0_11char_traitsIcEENS0_9allocatorIcEEEE, symObjAddr: 0xEC4, symBinAddr: 0x100017F4C, symSize: 0x18 }
  - { offset: 0xF8AA2, size: 0x8, addend: 0x0, symName: __ZN6fuzzer5MkDirERKNSt3__112basic_stringIcNS0_11char_traitsIcEENS0_9allocatorIcEEEE, symObjAddr: 0xEC4, symBinAddr: 0x100017F4C, symSize: 0x18 }
  - { offset: 0xF8AD6, size: 0x8, addend: 0x0, symName: __ZN6fuzzer5RmDirERKNSt3__112basic_stringIcNS0_11char_traitsIcEENS0_9allocatorIcEEEE, symObjAddr: 0xEDC, symBinAddr: 0x100017F64, symSize: 0x14 }
  - { offset: 0xF8B02, size: 0x8, addend: 0x0, symName: __ZN6fuzzer5RmDirERKNSt3__112basic_stringIcNS0_11char_traitsIcEENS0_9allocatorIcEEEE, symObjAddr: 0xEDC, symBinAddr: 0x100017F64, symSize: 0x14 }
  - { offset: 0xF8B1D, size: 0x8, addend: 0x0, symName: __ZN6fuzzer5RmDirERKNSt3__112basic_stringIcNS0_11char_traitsIcEENS0_9allocatorIcEEEE, symObjAddr: 0xEDC, symBinAddr: 0x100017F64, symSize: 0x14 }
  - { offset: 0xF8B39, size: 0x8, addend: 0x0, symName: __ZN6fuzzer5RmDirERKNSt3__112basic_stringIcNS0_11char_traitsIcEENS0_9allocatorIcEEEE, symObjAddr: 0xEDC, symBinAddr: 0x100017F64, symSize: 0x14 }
  - { offset: 0xF8B55, size: 0x8, addend: 0x0, symName: __ZN6fuzzer5RmDirERKNSt3__112basic_stringIcNS0_11char_traitsIcEENS0_9allocatorIcEEEE, symObjAddr: 0xEDC, symBinAddr: 0x100017F64, symSize: 0x14 }
  - { offset: 0xFD8D8, size: 0x8, addend: 0x0, symName: __ZN6fuzzer19IterateDirRecursiveERKNSt3__112basic_stringIcNS0_11char_traitsIcEENS0_9allocatorIcEEEEPFvS8_ESA_SA_, symObjAddr: 0x714, symBinAddr: 0x10001779C, symSize: 0x258 }
  - { offset: 0xFF983, size: 0x8, addend: 0x0, symName: __ZN6fuzzer6Fuzzer10IsMyThreadE, symObjAddr: 0xA1B4, symBinAddr: 0x100044368, symSize: 0x0 }
  - { offset: 0x1010A5, size: 0x8, addend: 0x0, symName: __ZN6fuzzer19RunningUserCallbackE, symObjAddr: 0x12250D, symBinAddr: 0x100044408, symSize: 0x0 }
  - { offset: 0x1010BF, size: 0x8, addend: 0x0, symName: __MergedGlobals, symObjAddr: 0x122510, symBinAddr: 0x1000781E8, symSize: 0x0 }
  - { offset: 0x101172, size: 0x8, addend: 0x0, symName: __MergedGlobals, symObjAddr: 0x122510, symBinAddr: 0x1000781E8, symSize: 0x0 }
  - { offset: 0x10174D, size: 0x8, addend: 0x0, symName: __ZN6fuzzer10MallocHookEPVKvm, symObjAddr: 0x28, symBinAddr: 0x100018020, symSize: 0xE4 }
  - { offset: 0x10197E, size: 0x8, addend: 0x0, symName: __ZN6fuzzer8FreeHookEPVKv, symObjAddr: 0x18C, symBinAddr: 0x100018184, symSize: 0xC4 }
  - { offset: 0x101D37, size: 0x8, addend: 0x0, symName: __ZN6fuzzerL20RenameFeatureSetFileERKNSt3__112basic_stringIcNS0_11char_traitsIcEENS0_9allocatorIcEEEES8_S8_, symObjAddr: 0x2C4C, symBinAddr: 0x10001AC44, symSize: 0xA0 }
  - { offset: 0x101D88, size: 0x8, addend: 0x0, symName: __ZN6fuzzerL20RenameFeatureSetFileERKNSt3__112basic_stringIcNS0_11char_traitsIcEENS0_9allocatorIcEEEES8_S8_, symObjAddr: 0x2C4C, symBinAddr: 0x10001AC44, symSize: 0xA0 }
  - { offset: 0x101DA4, size: 0x8, addend: 0x0, symName: __ZN6fuzzerL20RenameFeatureSetFileERKNSt3__112basic_stringIcNS0_11char_traitsIcEENS0_9allocatorIcEEEES8_S8_, symObjAddr: 0x2C4C, symBinAddr: 0x10001AC44, symSize: 0xA0 }
  - { offset: 0x101DC0, size: 0x8, addend: 0x0, symName: __ZN6fuzzerL20RenameFeatureSetFileERKNSt3__112basic_stringIcNS0_11char_traitsIcEENS0_9allocatorIcEEEES8_S8_, symObjAddr: 0x2C4C, symBinAddr: 0x10001AC44, symSize: 0xA0 }
  - { offset: 0x102108, size: 0x8, addend: 0x0, symName: '__ZN6fuzzer18ForEachNonZeroByteIZNKS_7TracePC15CollectFeaturesIZNS_6Fuzzer6RunOneEPKhmbPNS_9InputInfoEbPbE3$_0EEmT_EUlmmhE_EEmS5_S5_mSA_', symObjAddr: 0x7520, symBinAddr: 0x10001E258, symSize: 0xAEC }
  - { offset: 0x102FD7, size: 0x8, addend: 0x0, symName: '__ZZN6fuzzer6Fuzzer6RunOneEPKhmbPNS_9InputInfoEbPbENK3$_0clEj', symObjAddr: 0x800C, symBinAddr: 0x10001ED44, symSize: 0x114 }
  - { offset: 0x118F62, size: 0x8, addend: 0x0, symName: __ZNSt3__113__stable_sortINS_17_ClassicAlgPolicyERNS_6__lessIvvEENS_11__wrap_iterIPN6fuzzer9SizedFileEEEEEvT1_SA_T0_NS_15iterator_traitsISA_E15difference_typeEPNSD_10value_typeEl, symObjAddr: 0x8F50, symBinAddr: 0x10001FC88, symSize: 0x2A4 }
  - { offset: 0x119939, size: 0x8, addend: 0x0, symName: __ZNSt3__124__buffered_inplace_mergeB8nn210106INS_17_ClassicAlgPolicyERNS_6__lessIvvEENS_11__wrap_iterIPN6fuzzer9SizedFileEEEEEvT1_SA_SA_OT0_NS_15iterator_traitsISA_E15difference_typeESF_PNSE_10value_typeE, symObjAddr: 0x9AE4, symBinAddr: 0x10002081C, symSize: 0x174 }
  - { offset: 0x11E407, size: 0x8, addend: 0x0, symName: __ZNSt3__115__inplace_mergeINS_17_ClassicAlgPolicyERNS_6__lessIvvEENS_11__wrap_iterIPN6fuzzer9SizedFileEEEEEvT1_SA_SA_OT0_NS_15iterator_traitsISA_E15difference_typeESF_PNSE_10value_typeEl, symObjAddr: 0x964C, symBinAddr: 0x100020384, symSize: 0x2E4 }
  - { offset: 0x11EDE1, size: 0x8, addend: 0x0, symName: __ZNSt3__118__stable_sort_moveINS_17_ClassicAlgPolicyERNS_6__lessIvvEENS_11__wrap_iterIPN6fuzzer9SizedFileEEEEEvT1_SA_T0_NS_15iterator_traitsISA_E15difference_typeEPNSD_10value_typeE, symObjAddr: 0x91F4, symBinAddr: 0x10001FF2C, symSize: 0x2AC }
  - { offset: 0x11F6AF, size: 0x8, addend: 0x0, symName: __ZNSt3__119__merge_move_assignB8nn210106INS_17_ClassicAlgPolicyERNS_6__lessIvvEEPN6fuzzer9SizedFileES7_NS_11__wrap_iterIS7_EEEEvT1_SA_T2_SB_T3_T0_, symObjAddr: 0x94A0, symBinAddr: 0x1000201D8, symSize: 0x1AC }
  - { offset: 0x11FE61, size: 0x8, addend: 0x0, symName: __ZNSt3__121__insertion_sort_moveB8nn210106INS_17_ClassicAlgPolicyERNS_6__lessIvvEENS_11__wrap_iterIPN6fuzzer9SizedFileEEEEEvT1_SA_PNS_15iterator_traitsISA_E10value_typeET0_, symObjAddr: 0x9930, symBinAddr: 0x100020668, symSize: 0x1B4 }
  - { offset: 0x120979, size: 0x8, addend: 0x0, symName: __ZNSt3__116__rotate_forwardB8nn210106INS_17_ClassicAlgPolicyENS_11__wrap_iterIPN6fuzzer9SizedFileEEEEET0_S7_S7_S7_, symObjAddr: 0x9F10, symBinAddr: 0x100020C48, symSize: 0x1E0 }
  - { offset: 0x12100C, size: 0x8, addend: 0x0, symName: __ZNSt3__120__half_inplace_mergeB8nn210106INS_17_ClassicAlgPolicyENS_8__invertIRNS_6__lessIvvEEEENS_16reverse_iteratorIPN6fuzzer9SizedFileEEESB_NS7_INS_11__wrap_iterISA_EEEESE_SE_EEvT1_T2_T3_T4_T5_OT0_, symObjAddr: 0x9D94, symBinAddr: 0x100020ACC, symSize: 0x17C }
  - { offset: 0x1215A9, size: 0x8, addend: 0x0, symName: __ZNSt3__120__half_inplace_mergeB8nn210106INS_17_ClassicAlgPolicyERNS_6__lessIvvEEPN6fuzzer9SizedFileES7_NS_11__wrap_iterIS7_EES9_S9_EEvT1_T2_T3_T4_T5_OT0_, symObjAddr: 0x9C58, symBinAddr: 0x100020990, symSize: 0x13C }
  - { offset: 0x122B18, size: 0x8, addend: 0x0, symName: __ZNSt3__16vectorIhNS_9allocatorIhEEE18__assign_with_sizeB8nn210106IPhS5_EEvT_T0_l, symObjAddr: 0x4C78, symBinAddr: 0x10001CA64, symSize: 0x13C }
  - { offset: 0x123B06, size: 0x8, addend: 0x0, symName: __ZN6fuzzer6Fuzzer23CheckExitOnSrcPosOrItemEv, symObjAddr: 0x140C, symBinAddr: 0x100019404, symSize: 0x320 }
  - { offset: 0x123B2E, size: 0x8, addend: 0x0, symName: __MergedGlobals, symObjAddr: 0x122510, symBinAddr: 0x1000781E8, symSize: 0x0 }
  - { offset: 0x124517, size: 0x8, addend: 0x0, symName: __ZN6fuzzer6Fuzzer18RereadOutputCorpusEm, symObjAddr: 0x172C, symBinAddr: 0x100019724, symSize: 0x2D0 }
  - { offset: 0x124B28, size: 0x8, addend: 0x0, symName: __ZNSt3__124uniform_int_distributionIlEclIN6fuzzer6RandomEEElRT_RKNS1_10param_typeE, symObjAddr: 0x8BA8, symBinAddr: 0x10001F8E0, symSize: 0x1B4 }
  - { offset: 0x124BC4, size: 0x8, addend: 0x0, symName: __ZNSt3__124uniform_int_distributionIlEclIN6fuzzer6RandomEEElRT_RKNS1_10param_typeE, symObjAddr: 0x8BA8, symBinAddr: 0x10001F8E0, symSize: 0x1B4 }
  - { offset: 0x124DA5, size: 0x8, addend: 0x0, symName: __ZN6fuzzer16MallocFreeTracerD1Ev, symObjAddr: 0x0, symBinAddr: 0x100017FF8, symSize: 0x28 }
  - { offset: 0x124F60, size: 0x8, addend: 0x0, symName: __ZN6fuzzer6Fuzzer12HandleMallocEm, symObjAddr: 0x10C, symBinAddr: 0x100018104, symSize: 0x80 }
  - { offset: 0x125008, size: 0x8, addend: 0x0, symName: __ZN6fuzzer8FreeHookEPVKv, symObjAddr: 0x18C, symBinAddr: 0x100018184, symSize: 0xC4 }
  - { offset: 0x125012, size: 0x8, addend: 0x0, symName: __ZN6fuzzer6Fuzzer15DumpCurrentUnitEPKc, symObjAddr: 0x250, symBinAddr: 0x100018248, symSize: 0x18C }
  - { offset: 0x1257BA, size: 0x8, addend: 0x0, symName: __ZN6fuzzer6Fuzzer15PrintFinalStatsEv, symObjAddr: 0x3DC, symBinAddr: 0x1000183D4, symSize: 0x160 }
  - { offset: 0x1257C5, size: 0x8, addend: 0x0, symName: __ZN6fuzzer6Fuzzer15PrintFinalStatsEv, symObjAddr: 0x3DC, symBinAddr: 0x1000183D4, symSize: 0x160 }
  - { offset: 0x125E3D, size: 0x8, addend: 0x0, symName: __ZN6fuzzer6Fuzzer25WriteUnitToFileWithPrefixERKNSt3__16vectorIhNS1_9allocatorIhEEEEPKc, symObjAddr: 0x7D4, symBinAddr: 0x1000187CC, symSize: 0x294 }
  - { offset: 0x1269A6, size: 0x8, addend: 0x0, symName: __ZN6fuzzer6Fuzzer19StaticAlarmCallbackEv, symObjAddr: 0xA68, symBinAddr: 0x100018A60, symSize: 0xC }
  - { offset: 0x1269BB, size: 0x8, addend: 0x0, symName: __ZNSt3__16vectorIjNS_9allocatorIjEEE18__assign_with_sizeB8nn210106IPjS5_EEvT_T0_l, symObjAddr: 0x4DC8, symBinAddr: 0x10001CBA0, symSize: 0x14C }
  - { offset: 0x126A3B, size: 0x8, addend: 0x0, symName: __ZN6fuzzer11InputCorpus10PrintStatsEv, symObjAddr: 0x12E4, symBinAddr: 0x1000192DC, symSize: 0xC8 }
  - { offset: 0x126A60, size: 0x8, addend: 0x0, symName: __ZN6fuzzer11InputCorpus10PrintStatsEv, symObjAddr: 0x12E4, symBinAddr: 0x1000192DC, symSize: 0xC8 }
  - { offset: 0x12720A, size: 0x8, addend: 0x0, symName: __ZN6fuzzer6FuzzerC2EPFiPKhmERNS_11InputCorpusERNS_18MutationDispatcherERKNS_14FuzzingOptionsE, symObjAddr: 0x53C, symBinAddr: 0x100018534, symSize: 0x1F8 }
  - { offset: 0x1278DE, size: 0x8, addend: 0x0, symName: __ZN6fuzzer14FuzzingOptionsC2ERKS0_, symObjAddr: 0x4704, symBinAddr: 0x10001C6FC, symSize: 0x25C }
  - { offset: 0x127D4D, size: 0x8, addend: 0x0, symName: __ZN6fuzzer6Fuzzer19StaticDeathCallbackEv, symObjAddr: 0x734, symBinAddr: 0x10001872C, symSize: 0x34 }
  - { offset: 0x127DA4, size: 0x8, addend: 0x0, symName: __ZN6fuzzer6Fuzzer23AllocateCurrentUnitDataEv, symObjAddr: 0x768, symBinAddr: 0x100018760, symSize: 0x3C }
  - { offset: 0x127DC6, size: 0x8, addend: 0x0, symName: __ZN6fuzzer6FuzzerC1EPFiPKhmERNS_11InputCorpusERNS_18MutationDispatcherERKNS_14FuzzingOptionsE, symObjAddr: 0x7A4, symBinAddr: 0x10001879C, symSize: 0x4 }
  - { offset: 0x127E2C, size: 0x8, addend: 0x0, symName: __ZN6fuzzer6FuzzerC1EPFiPKhmERNS_11InputCorpusERNS_18MutationDispatcherERKNS_14FuzzingOptionsE, symObjAddr: 0x7A4, symBinAddr: 0x10001879C, symSize: 0x4 }
  - { offset: 0x127E5B, size: 0x8, addend: 0x0, symName: __ZN6fuzzer6Fuzzer13DeathCallbackEv, symObjAddr: 0x7A8, symBinAddr: 0x1000187A0, symSize: 0x2C }
  - { offset: 0x12816F, size: 0x8, addend: 0x0, symName: __ZN6fuzzer6Fuzzer19StaticAlarmCallbackEv, symObjAddr: 0xA68, symBinAddr: 0x100018A60, symSize: 0xC }
  - { offset: 0x128194, size: 0x8, addend: 0x0, symName: __ZN6fuzzer6Fuzzer13AlarmCallbackEv, symObjAddr: 0xA74, symBinAddr: 0x100018A6C, symSize: 0x138 }
  - { offset: 0x1282E4, size: 0x8, addend: 0x0, symName: __ZN6fuzzer6Fuzzer25StaticCrashSignalCallbackEv, symObjAddr: 0xBAC, symBinAddr: 0x100018BA4, symSize: 0xC }
  - { offset: 0x128308, size: 0x8, addend: 0x0, symName: __ZN6fuzzer6Fuzzer25StaticCrashSignalCallbackEv, symObjAddr: 0xBAC, symBinAddr: 0x100018BA4, symSize: 0xC }
  - { offset: 0x12832C, size: 0x8, addend: 0x0, symName: __ZN6fuzzer6Fuzzer13CrashCallbackEv, symObjAddr: 0xBB8, symBinAddr: 0x100018BB0, symSize: 0x90 }
  - { offset: 0x1283D1, size: 0x8, addend: 0x0, symName: __ZN6fuzzer6Fuzzer18StaticExitCallbackEv, symObjAddr: 0xC48, symBinAddr: 0x100018C40, symSize: 0xC }
  - { offset: 0x1283DC, size: 0x8, addend: 0x0, symName: __ZN6fuzzer6Fuzzer18StaticExitCallbackEv, symObjAddr: 0xC48, symBinAddr: 0x100018C40, symSize: 0xC }
  - { offset: 0x128400, size: 0x8, addend: 0x0, symName: __ZN6fuzzer6Fuzzer12ExitCallbackEv, symObjAddr: 0xC54, symBinAddr: 0x100018C4C, symSize: 0x94 }
  - { offset: 0x128497, size: 0x8, addend: 0x0, symName: __ZN6fuzzer6Fuzzer23StaticInterruptCallbackEv, symObjAddr: 0xCE8, symBinAddr: 0x100018CE0, symSize: 0x14 }
  - { offset: 0x1284A2, size: 0x8, addend: 0x0, symName: __ZN6fuzzer6Fuzzer23StaticInterruptCallbackEv, symObjAddr: 0xCE8, symBinAddr: 0x100018CE0, symSize: 0x14 }
  - { offset: 0x1284BC, size: 0x8, addend: 0x0, symName: __ZN6fuzzer6Fuzzer17InterruptCallbackEv, symObjAddr: 0xCFC, symBinAddr: 0x100018CF4, symSize: 0x78 }
  - { offset: 0x1284C7, size: 0x8, addend: 0x0, symName: __ZN6fuzzer6Fuzzer17InterruptCallbackEv, symObjAddr: 0xCFC, symBinAddr: 0x100018CF4, symSize: 0x78 }
  - { offset: 0x128593, size: 0x8, addend: 0x0, symName: __ZN6fuzzer6Fuzzer26StaticGracefulExitCallbackEv, symObjAddr: 0xD74, symBinAddr: 0x100018D6C, symSize: 0x1C }
  - { offset: 0x12859E, size: 0x8, addend: 0x0, symName: __ZN6fuzzer6Fuzzer26StaticGracefulExitCallbackEv, symObjAddr: 0xD74, symBinAddr: 0x100018D6C, symSize: 0x1C }
  - { offset: 0x1285C3, size: 0x8, addend: 0x0, symName: __ZN6fuzzer6Fuzzer28StaticFileSizeExceedCallbackEv, symObjAddr: 0xD90, symBinAddr: 0x100018D88, symSize: 0x28 }
  - { offset: 0x1285F8, size: 0x8, addend: 0x0, symName: __ZN6fuzzer6Fuzzer19MaybeExitGracefullyEv, symObjAddr: 0xDB8, symBinAddr: 0x100018DB0, symSize: 0x74 }
  - { offset: 0x128617, size: 0x8, addend: 0x0, symName: __ZN6fuzzer6Fuzzer19MaybeExitGracefullyEv, symObjAddr: 0xDB8, symBinAddr: 0x100018DB0, symSize: 0x74 }
  - { offset: 0x128682, size: 0x8, addend: 0x0, symName: __ZN6fuzzer6Fuzzer17InterruptExitCodeEv, symObjAddr: 0xE2C, symBinAddr: 0x100018E24, symSize: 0x10 }
  - { offset: 0x128693, size: 0x8, addend: 0x0, symName: __ZN6fuzzer6Fuzzer17InterruptExitCodeEv, symObjAddr: 0xE2C, symBinAddr: 0x100018E24, symSize: 0x10 }
  - { offset: 0x1286AA, size: 0x8, addend: 0x0, symName: __ZN6fuzzer6Fuzzer16RssLimitCallbackEv, symObjAddr: 0xE3C, symBinAddr: 0x100018E34, symSize: 0xA0 }
  - { offset: 0x12875E, size: 0x8, addend: 0x0, symName: __ZN6fuzzer6Fuzzer10PrintStatsEPKcS2_mm, symObjAddr: 0xEDC, symBinAddr: 0x100018ED4, symSize: 0x408 }
  - { offset: 0x128901, size: 0x8, addend: 0x0, symName: __ZN6fuzzer6Fuzzer10PrintStatsEPKcS2_mm, symObjAddr: 0xEDC, symBinAddr: 0x100018ED4, symSize: 0x408 }
  - { offset: 0x128DA0, size: 0x8, addend: 0x0, symName: __ZN6fuzzer6Fuzzer14SetMaxInputLenEm, symObjAddr: 0x13AC, symBinAddr: 0x1000193A4, symSize: 0x58 }
  - { offset: 0x128DF8, size: 0x8, addend: 0x0, symName: __ZN6fuzzer6Fuzzer17SetMaxMutationLenEm, symObjAddr: 0x1404, symBinAddr: 0x1000193FC, symSize: 0x8 }
  - { offset: 0x129A6E, size: 0x8, addend: 0x0, symName: __ZN6fuzzer6Fuzzer18RereadOutputCorpusEm, symObjAddr: 0x172C, symBinAddr: 0x100019724, symSize: 0x2D0 }
  - { offset: 0x129ADB, size: 0x8, addend: 0x0, symName: __ZN6fuzzer6Fuzzer18RereadOutputCorpusEm, symObjAddr: 0x172C, symBinAddr: 0x100019724, symSize: 0x2D0 }
  - { offset: 0x129AFA, size: 0x8, addend: 0x0, symName: __ZN6fuzzer6Fuzzer18RereadOutputCorpusEm, symObjAddr: 0x172C, symBinAddr: 0x100019724, symSize: 0x2D0 }
  - { offset: 0x129B19, size: 0x8, addend: 0x0, symName: __ZN6fuzzer6Fuzzer18RereadOutputCorpusEm, symObjAddr: 0x172C, symBinAddr: 0x100019724, symSize: 0x2D0 }
  - { offset: 0x12A588, size: 0x8, addend: 0x0, symName: __ZN6fuzzer6Fuzzer6RunOneEPKhmbPNS_9InputInfoEbPb, symObjAddr: 0x19FC, symBinAddr: 0x1000199F4, symSize: 0x514 }
  - { offset: 0x12BB46, size: 0x8, addend: 0x0, symName: __ZN6fuzzer6Fuzzer28PrintPulseAndReportSlowInputEPKhm, symObjAddr: 0x1F10, symBinAddr: 0x100019F08, symSize: 0x1AC }
  - { offset: 0x12BDCA, size: 0x8, addend: 0x0, symName: __ZN6fuzzer6Fuzzer15ExecuteCallbackEPKhm, symObjAddr: 0x217C, symBinAddr: 0x10001A174, symSize: 0x280 }
  - { offset: 0x12C5BD, size: 0x8, addend: 0x0, symName: '__ZNK6fuzzer7TracePC15CollectFeaturesIZNS_6Fuzzer6RunOneEPKhmbPNS_9InputInfoEbPbE3$_0EEmT_', symObjAddr: 0x23FC, symBinAddr: 0x10001A3F4, symSize: 0x554 }
  - { offset: 0x12C5CD, size: 0x8, addend: 0x0, symName: '__ZNK6fuzzer7TracePC15CollectFeaturesIZNS_6Fuzzer6RunOneEPKhmbPNS_9InputInfoEbPbE3$_0EEmT_', symObjAddr: 0x23FC, symBinAddr: 0x10001A3F4, symSize: 0x554 }
  - { offset: 0x12D484, size: 0x8, addend: 0x0, symName: __ZN6fuzzer11InputCorpus11AddToCorpusERKNSt3__16vectorIhNS1_9allocatorIhEEEEmbbbNS1_6chrono8durationIxNS1_5ratioILl1ELl1000000EEEEERKNS2_IjNS3_IjEEEERKNS_13DataFlowTraceEPKNS_9InputInfoE, symObjAddr: 0x2950, symBinAddr: 0x10001A948, symSize: 0x204 }
  - { offset: 0x12D4D5, size: 0x8, addend: 0x0, symName: __ZN6fuzzer6Fuzzer28PrintPulseAndReportSlowInputEPKhm, symObjAddr: 0x1F10, symBinAddr: 0x100019F08, symSize: 0x1AC }
  - { offset: 0x12DA79, size: 0x8, addend: 0x0, symName: __ZNSt3__16vectorIhNS_9allocatorIhEEEC1B8nn210106IPKhTnNS_9enable_ifIXaasr31__has_forward_iterator_categoryIT_EE5valuesr16is_constructibleIhNS_15iterator_traitsIS8_E9referenceEEE5valueEiE4typeELi0EEES8_S8_, symObjAddr: 0x20BC, symBinAddr: 0x10001A0B4, symSize: 0xC0 }
  - { offset: 0x12DA84, size: 0x8, addend: 0x0, symName: __ZNSt3__16vectorIhNS_9allocatorIhEEEC1B8nn210106IPKhTnNS_9enable_ifIXaasr31__has_forward_iterator_categoryIT_EE5valuesr16is_constructibleIhNS_15iterator_traitsIS8_E9referenceEEE5valueEiE4typeELi0EEES8_S8_, symObjAddr: 0x20BC, symBinAddr: 0x10001A0B4, symSize: 0xC0 }
  - { offset: 0x12DD51, size: 0x8, addend: 0x0, symName: __ZN6fuzzer6Fuzzer15ExecuteCallbackEPKhm, symObjAddr: 0x217C, symBinAddr: 0x10001A174, symSize: 0x280 }
  - { offset: 0x12DD5C, size: 0x8, addend: 0x0, symName: __ZN6fuzzer11InputCorpus7ReplaceEPNS_9InputInfoERKNSt3__16vectorIhNS3_9allocatorIhEEEENS3_6chrono8durationIxNS3_5ratioILl1ELl1000000EEEEE, symObjAddr: 0x2B54, symBinAddr: 0x10001AB4C, symSize: 0xF8 }
  - { offset: 0x12E1F0, size: 0x8, addend: 0x0, symName: __ZN6fuzzer11InputCorpus11AddToCorpusERKNSt3__16vectorIhNS1_9allocatorIhEEEEmbbbNS1_6chrono8durationIxNS1_5ratioILl1ELl1000000EEEEERKNS2_IjNS3_IjEEEERKNS_13DataFlowTraceEPKNS_9InputInfoE, symObjAddr: 0x2950, symBinAddr: 0x10001A948, symSize: 0x204 }
  - { offset: 0x12F2A3, size: 0x8, addend: 0x0, symName: __ZN6fuzzer11InputCorpus10DeleteFileERKNS_9InputInfoE, symObjAddr: 0x56B4, symBinAddr: 0x10001D2AC, symSize: 0xB8 }
  - { offset: 0x12F571, size: 0x8, addend: 0x0, symName: __ZN6fuzzer11InputCorpus14AddRareFeatureEj, symObjAddr: 0x845C, symBinAddr: 0x10001F194, symSize: 0x440 }
  - { offset: 0x12FFE0, size: 0x8, addend: 0x0, symName: __ZNSt3__16vectorINS_4pairIjtEENS_9allocatorIS2_EEE6insertENS_11__wrap_iterIPKS2_EEOS2_, symObjAddr: 0x8994, symBinAddr: 0x10001F6CC, symSize: 0x200 }
  - { offset: 0x1307BF, size: 0x8, addend: 0x0, symName: __ZNSt3__16vectorINS_4pairIjtEENS_9allocatorIS2_EEE20__throw_length_errorB8nn210106Ev, symObjAddr: 0x8B94, symBinAddr: 0x10001F8CC, symSize: 0x14 }
  - { offset: 0x1307CA, size: 0x8, addend: 0x0, symName: __ZNSt3__16vectorINS_4pairIjtEENS_9allocatorIS2_EEE9push_backB8nn210106EOS2_, symObjAddr: 0x889C, symBinAddr: 0x10001F5D4, symSize: 0xF8 }
  - { offset: 0x130BE1, size: 0x8, addend: 0x0, symName: __ZNSt3__16vectorINS_4pairIjtEENS_9allocatorIS2_EEE6insertENS_11__wrap_iterIPKS2_EEOS2_, symObjAddr: 0x8994, symBinAddr: 0x10001F6CC, symSize: 0x200 }
  - { offset: 0x130BEC, size: 0x8, addend: 0x0, symName: '__ZZN6fuzzer6Fuzzer6RunOneEPKhmbPNS_9InputInfoEbPbENK3$_0clEj', symObjAddr: 0x800C, symBinAddr: 0x10001ED44, symSize: 0x114 }
  - { offset: 0x130F15, size: 0x8, addend: 0x0, symName: __ZNSt3__112__hash_tableINS_12basic_stringIcNS_11char_traitsIcEENS_9allocatorIcEEEENS_4hashIS6_EENS_8equal_toIS6_EENS4_IS6_EEE25__emplace_unique_key_argsIS6_JRKS6_EEENS_4pairINS_15__hash_iteratorIPNS_11__hash_nodeIS6_PvEEEEbEERKT_DpOT0_, symObjAddr: 0x4F28, symBinAddr: 0x10001CCEC, symSize: 0x3E4 }
  - { offset: 0x13115B, size: 0x8, addend: 0x0, symName: __ZNSt3__16vectorIPN6fuzzer9InputInfoENS_9allocatorIS3_EEE9push_backB8nn210106EOS3_, symObjAddr: 0x4B3C, symBinAddr: 0x10001C958, symSize: 0xF8 }
  - { offset: 0x131572, size: 0x8, addend: 0x0, symName: __ZNSt3__16vectorIPN6fuzzer9InputInfoENS_9allocatorIS3_EEE20__throw_length_errorB8nn210106Ev, symObjAddr: 0x4C34, symBinAddr: 0x10001CA50, symSize: 0x14 }
  - { offset: 0x13157D, size: 0x8, addend: 0x0, symName: __ZNSt3__16vectorIhNS_9allocatorIhEEE18__assign_with_sizeB8nn210106IPhS5_EEvT_T0_l, symObjAddr: 0x4C78, symBinAddr: 0x10001CA64, symSize: 0x13C }
  - { offset: 0x131F62, size: 0x8, addend: 0x0, symName: __ZNSt3__16vectorIjNS_9allocatorIjEEE18__assign_with_sizeB8nn210106IPjS5_EEvT_T0_l, symObjAddr: 0x4DC8, symBinAddr: 0x10001CBA0, symSize: 0x14C }
  - { offset: 0x132985, size: 0x8, addend: 0x0, symName: __ZNSt3__112__hash_tableINS_12basic_stringIcNS_11char_traitsIcEENS_9allocatorIcEEEENS_4hashIS6_EENS_8equal_toIS6_EENS4_IS6_EEE25__emplace_unique_key_argsIS6_JRKS6_EEENS_4pairINS_15__hash_iteratorIPNS_11__hash_nodeIS6_PvEEEEbEERKT_DpOT0_, symObjAddr: 0x4F28, symBinAddr: 0x10001CCEC, symSize: 0x3E4 }
  - { offset: 0x13313B, size: 0x8, addend: 0x0, symName: __ZNKSt3__112__hash_tableINS_17__hash_value_typeINS_12basic_stringIcNS_11char_traitsIcEENS_9allocatorIcEEEENS_6vectorIhNS5_IhEEEEEENS_22__unordered_map_hasherIS7_NS_4pairIKS7_SA_EENS_4hashIS7_EENS_8equal_toIS7_EELb1EEENS_21__unordered_map_equalIS7_SF_SJ_SH_Lb1EEENS5_ISF_EEE4findIS7_EENS_21__hash_const_iteratorIPNS_11__hash_nodeISB_PvEEEERKT_, symObjAddr: 0x54D8, symBinAddr: 0x10001D0D0, symSize: 0x1DC }
  - { offset: 0x1335CA, size: 0x8, addend: 0x0, symName: __ZNSt3__112__hash_tableINS_12basic_stringIcNS_11char_traitsIcEENS_9allocatorIcEEEENS_4hashIS6_EENS_8equal_toIS6_EENS4_IS6_EEE4findIS6_EENS_15__hash_iteratorIPNS_11__hash_nodeIS6_PvEEEERKT_, symObjAddr: 0x576C, symBinAddr: 0x10001D364, symSize: 0x1DC }
  - { offset: 0x13393C, size: 0x8, addend: 0x0, symName: __ZNSt3__112__hash_tableINS_12basic_stringIcNS_11char_traitsIcEENS_9allocatorIcEEEENS_4hashIS6_EENS_8equal_toIS6_EENS4_IS6_EEE5eraseENS_21__hash_const_iteratorIPNS_11__hash_nodeIS6_PvEEEE, symObjAddr: 0x5948, symBinAddr: 0x10001D540, symSize: 0x170 }
  - { offset: 0x134255, size: 0x8, addend: 0x0, symName: __ZN6fuzzer6Fuzzer20TPCUpdateObservedPCsEv, symObjAddr: 0x2CEC, symBinAddr: 0x10001ACE4, symSize: 0xC }
  - { offset: 0x13427E, size: 0x8, addend: 0x0, symName: __ZNK6fuzzer6Fuzzer28GetCurrentUnitInFuzzingTheadEPPKh, symObjAddr: 0x2CF8, symBinAddr: 0x10001ACF0, symSize: 0x10 }
  - { offset: 0x134319, size: 0x8, addend: 0x0, symName: __ZN6fuzzer6Fuzzer22CrashOnOverwrittenDataEv, symObjAddr: 0x2D08, symBinAddr: 0x10001AD00, symSize: 0x58 }
  - { offset: 0x13439E, size: 0x8, addend: 0x0, symName: __ZN6fuzzer6Fuzzer19WriteToOutputCorpusERKNSt3__16vectorIhNS1_9allocatorIhEEEE, symObjAddr: 0x2D60, symBinAddr: 0x10001AD58, symSize: 0x194 }
  - { offset: 0x134456, size: 0x8, addend: 0x0, symName: __ZN6fuzzer6Fuzzer19WriteToOutputCorpusERKNSt3__16vectorIhNS1_9allocatorIhEEEE, symObjAddr: 0x2D60, symBinAddr: 0x10001AD58, symSize: 0x194 }
  - { offset: 0x13492C, size: 0x8, addend: 0x0, symName: __ZN6fuzzer6Fuzzer21PrintStatusForNewUnitERKNSt3__16vectorIhNS1_9allocatorIhEEEEPKc, symObjAddr: 0x2EF4, symBinAddr: 0x10001AEEC, symSize: 0x184 }
  - { offset: 0x134985, size: 0x8, addend: 0x0, symName: __ZN6fuzzer6Fuzzer21PrintStatusForNewUnitERKNSt3__16vectorIhNS1_9allocatorIhEEEEPKc, symObjAddr: 0x2EF4, symBinAddr: 0x10001AEEC, symSize: 0x184 }
  - { offset: 0x134ACC, size: 0x8, addend: 0x0, symName: __ZN6fuzzer6Fuzzer17ReportNewCoverageEPNS_9InputInfoERKNSt3__16vectorIhNS3_9allocatorIhEEEE, symObjAddr: 0x3078, symBinAddr: 0x10001B070, symSize: 0x1F4 }
  - { offset: 0x134D6A, size: 0x8, addend: 0x0, symName: __ZN6fuzzer6Fuzzer23TryDetectingAMemoryLeakEPKhmb, symObjAddr: 0x326C, symBinAddr: 0x10001B264, symSize: 0x130 }
  - { offset: 0x134EBF, size: 0x8, addend: 0x0, symName: __ZN6fuzzer6Fuzzer16MutateAndTestOneEv, symObjAddr: 0x339C, symBinAddr: 0x10001B394, symSize: 0x2A4 }
  - { offset: 0x13504F, size: 0x8, addend: 0x0, symName: __ZN6fuzzer6Fuzzer16MutateAndTestOneEv, symObjAddr: 0x339C, symBinAddr: 0x10001B394, symSize: 0x2A4 }
  - { offset: 0x135950, size: 0x8, addend: 0x0, symName: __ZN6fuzzer6Fuzzer14PurgeAllocatorEv, symObjAddr: 0x3640, symBinAddr: 0x10001B638, symSize: 0x9C }
  - { offset: 0x13595B, size: 0x8, addend: 0x0, symName: __ZN6fuzzer11InputCorpus21ChooseUnitIdxToMutateERNS_6RandomE, symObjAddr: 0x5E78, symBinAddr: 0x10001D6B0, symSize: 0x128 }
  - { offset: 0x135E1B, size: 0x8, addend: 0x0, symName: __ZN6fuzzer6Fuzzer14PurgeAllocatorEv, symObjAddr: 0x3640, symBinAddr: 0x10001B638, symSize: 0x9C }
  - { offset: 0x13649B, size: 0x8, addend: 0x0, symName: __ZN6fuzzer6Fuzzer25ReadAndExecuteSeedCorporaERNSt3__16vectorINS_9SizedFileENS1_9allocatorIS3_EEEE, symObjAddr: 0x36DC, symBinAddr: 0x10001B6D4, symSize: 0x80C }
  - { offset: 0x138026, size: 0x8, addend: 0x0, symName: __ZN6fuzzer6Fuzzer4LoopERNSt3__16vectorINS_9SizedFileENS1_9allocatorIS3_EEEE, symObjAddr: 0x3EE8, symBinAddr: 0x10001BEE0, symSize: 0x490 }
  - { offset: 0x138DE6, size: 0x8, addend: 0x0, symName: __ZN6fuzzer6Fuzzer17MinimizeCrashLoopERKNSt3__16vectorIhNS1_9allocatorIhEEEE, symObjAddr: 0x4378, symBinAddr: 0x10001C370, symSize: 0x370 }
  - { offset: 0x139654, size: 0x8, addend: 0x0, symName: _LLVMFuzzerMutate, symObjAddr: 0x46E8, symBinAddr: 0x10001C6E0, symSize: 0x1C }
  - { offset: 0x139673, size: 0x8, addend: 0x0, symName: _LLVMFuzzerMutate, symObjAddr: 0x46E8, symBinAddr: 0x10001C6E0, symSize: 0x1C }
  - { offset: 0x139AF0, size: 0x8, addend: 0x0, symName: __ZNSt3__16vectorIPN6fuzzer9InputInfoENS_9allocatorIS3_EEE20__throw_length_errorB8nn210106Ev, symObjAddr: 0x4C34, symBinAddr: 0x10001CA50, symSize: 0x14 }
  - { offset: 0x13A090, size: 0x8, addend: 0x0, symName: __ZNKSt3__112__hash_tableINS_17__hash_value_typeINS_12basic_stringIcNS_11char_traitsIcEENS_9allocatorIcEEEENS_6vectorIhNS5_IhEEEEEENS_22__unordered_map_hasherIS7_NS_4pairIKS7_SA_EENS_4hashIS7_EENS_8equal_toIS7_EELb1EEENS_21__unordered_map_equalIS7_SF_SJ_SH_Lb1EEENS5_ISF_EEE4findIS7_EENS_21__hash_const_iteratorIPNS_11__hash_nodeISB_PvEEEERKT_, symObjAddr: 0x54D8, symBinAddr: 0x10001D0D0, symSize: 0x1DC }
  - { offset: 0x13A698, size: 0x8, addend: 0x0, symName: __ZN6fuzzer11InputCorpus24UpdateCorpusDistributionERNS_6RandomE, symObjAddr: 0x5FA0, symBinAddr: 0x10001D7D8, symSize: 0x5EC }
  - { offset: 0x13B687, size: 0x8, addend: 0x0, symName: __ZN6fuzzer9InputInfo12UpdateEnergyEmbNSt3__16chrono8durationIxNS1_5ratioILl1ELl1000000EEEEE, symObjAddr: 0x658C, symBinAddr: 0x10001DDC4, symSize: 0x178 }
  - { offset: 0x13BCEA, size: 0x8, addend: 0x0, symName: __ZNSt3__131piecewise_constant_distributionIdE10param_typeaSERKS2_, symObjAddr: 0x6F90, symBinAddr: 0x10001DF3C, symSize: 0x1D0 }
  - { offset: 0x13C83F, size: 0x8, addend: 0x0, symName: __ZNSt3__16vectorIdNS_9allocatorIdEEE18__assign_with_sizeB8nn210106IPdS5_EEvT_T0_l, symObjAddr: 0x7160, symBinAddr: 0x10001E10C, symSize: 0x14C }
  - { offset: 0x13D7B2, size: 0x8, addend: 0x0, symName: __ZNSt3__16vectorIdNS_9allocatorIdEEE18__assign_with_sizeB8nn210106IPdS5_EEvT_T0_l, symObjAddr: 0x7160, symBinAddr: 0x10001E10C, symSize: 0x14C }
  - { offset: 0x13E2B2, size: 0x8, addend: 0x0, symName: __ZN6fuzzer11InputCorpus10AddFeatureEmjb, symObjAddr: 0x8120, symBinAddr: 0x10001EE58, symSize: 0x120 }
  - { offset: 0x13E50A, size: 0x8, addend: 0x0, symName: __ZNSt3__16vectorIjNS_9allocatorIjEEE9push_backB8nn210106ERKj, symObjAddr: 0x8240, symBinAddr: 0x10001EF78, symSize: 0xF8 }
  - { offset: 0x13E915, size: 0x8, addend: 0x0, symName: __ZN6fuzzer11InputCorpus22UpdateFeatureFrequencyEPNS_9InputInfoEm, symObjAddr: 0x8338, symBinAddr: 0x10001F070, symSize: 0x124 }
  - { offset: 0x13E920, size: 0x8, addend: 0x0, symName: __ZN6fuzzer11InputCorpus22UpdateFeatureFrequencyEPNS_9InputInfoEm, symObjAddr: 0x8338, symBinAddr: 0x10001F070, symSize: 0x124 }
  - { offset: 0x13F1C8, size: 0x8, addend: 0x0, symName: __ZNSt3__16vectorINS_4pairIjtEENS_9allocatorIS2_EEE20__throw_length_errorB8nn210106Ev, symObjAddr: 0x8B94, symBinAddr: 0x10001F8CC, symSize: 0x14 }
  - { offset: 0x13F1E0, size: 0x8, addend: 0x0, symName: __ZNSt3__124uniform_int_distributionIlEclIN6fuzzer6RandomEEElRT_RKNS1_10param_typeE, symObjAddr: 0x8BA8, symBinAddr: 0x10001F8E0, symSize: 0x1B4 }
  - { offset: 0x13F46C, size: 0x8, addend: 0x0, symName: __ZNSt3__125__independent_bits_engineIN6fuzzer6RandomEmE6__evalENS_17integral_constantIbLb1EEE, symObjAddr: 0x8D5C, symBinAddr: 0x10001FA94, symSize: 0x1F4 }
  - { offset: 0x13FAB5, size: 0x8, addend: 0x0, symName: __GLOBAL__sub_I_FuzzerLoop.cpp, symObjAddr: 0xA170, symBinAddr: 0x100020E48, symSize: 0x44 }
  - { offset: 0x141979, size: 0x8, addend: 0x0, symName: __ZN6fuzzer6Merger5ParseERKNSt3__112basic_stringIcNS1_11char_traitsIcEENS1_9allocatorIcEEEEb, symObjAddr: 0x0, symBinAddr: 0x100020E8C, symSize: 0x188 }
  - { offset: 0x151AFF, size: 0x8, addend: 0x0, symName: '__ZNSt3__111__introsortINS_17_ClassicAlgPolicyERZN6fuzzer6Merger5MergeERKNS_3setIjNS_4lessIjEENS_9allocatorIjEEEEPS9_SB_SC_PNS_6vectorINS_12basic_stringIcNS_11char_traitsIcEENS7_IcEEEENS7_ISI_EEEEE3$_0PNS2_13MergeFileInfoELb0EEEvT1_SQ_T0_NS_15iterator_traitsISQ_E15difference_typeEb', symObjAddr: 0x925C, symBinAddr: 0x100027E14, symSize: 0x1430 }
  - { offset: 0x156B0F, size: 0x8, addend: 0x0, symName: '__ZNSt3__127__insertion_sort_incompleteB8nn210106INS_17_ClassicAlgPolicyERZN6fuzzer6Merger5MergeERKNS_3setIjNS_4lessIjEENS_9allocatorIjEEEEPS9_SB_SC_PNS_6vectorINS_12basic_stringIcNS_11char_traitsIcEENS7_IcEEEENS7_ISI_EEEEE3$_0PNS2_13MergeFileInfoEEEbT1_SQ_T0_', symObjAddr: 0xAA08, symBinAddr: 0x1000295C0, symSize: 0x35C }
  - { offset: 0x163ECE, size: 0x8, addend: 0x0, symName: __ZNSt3__113__tree_removeB8nn210106IPNS_16__tree_node_baseIPvEEEEvT_S5_, symObjAddr: 0xC958, symBinAddr: 0x10002B3E0, symSize: 0x424 }
  - { offset: 0x165904, size: 0x8, addend: 0x0, symName: __ZNSt3__134__uninitialized_allocator_relocateB8nn210106INS_9allocatorIN6fuzzer13MergeFileInfoEEEPS3_EEvRT_T0_S8_S8_, symObjAddr: 0x8A8C, symBinAddr: 0x100027C78, symSize: 0xF8 }
  - { offset: 0x165963, size: 0x8, addend: 0x0, symName: __ZNSt3__134__uninitialized_allocator_relocateB8nn210106INS_9allocatorIN6fuzzer13MergeFileInfoEEEPS3_EEvRT_T0_S8_S8_, symObjAddr: 0x8A8C, symBinAddr: 0x100027C78, symSize: 0xF8 }
  - { offset: 0x166B6C, size: 0x8, addend: 0x0, symName: '__ZNSt3__17__sort3B8nn210106INS_17_ClassicAlgPolicyERZN6fuzzer6Merger5MergeERKNS_3setIjNS_4lessIjEENS_9allocatorIjEEEEPS9_SB_SC_PNS_6vectorINS_12basic_stringIcNS_11char_traitsIcEENS7_IcEEEENS7_ISI_EEEEE3$_0PNS2_13MergeFileInfoETnNS_9enable_ifIXnt21__use_branchless_sortIT0_T1_EEiE4typeELi0EEEbSS_SS_SS_SR_', symObjAddr: 0xA68C, symBinAddr: 0x100029244, symSize: 0x150 }
  - { offset: 0x166F49, size: 0x8, addend: 0x0, symName: __ZNSt3__14swapB8nn210106IN6fuzzer13MergeFileInfoEEENS_9enable_ifIXaasr21is_move_constructibleIT_EE5valuesr18is_move_assignableIS4_EE5valueEvE4typeERS4_S7_, symObjAddr: 0xAD64, symBinAddr: 0x10002991C, symSize: 0x168 }
  - { offset: 0x1677B2, size: 0x8, addend: 0x0, symName: '__ZNSt3__17__sort5B8nn210106INS_17_ClassicAlgPolicyERZN6fuzzer6Merger5MergeERKNS_3setIjNS_4lessIjEENS_9allocatorIjEEEEPS9_SB_SC_PNS_6vectorINS_12basic_stringIcNS_11char_traitsIcEENS7_IcEEEENS7_ISI_EEEEE3$_0PNS2_13MergeFileInfoETnNS_9enable_ifIXnt21__use_branchless_sortIT0_T1_EEiE4typeELi0EEEvSS_SS_SS_SS_SS_SR_', symObjAddr: 0xA8CC, symBinAddr: 0x100029484, symSize: 0x13C }
  - { offset: 0x167B2B, size: 0x8, addend: 0x0, symName: '__ZNSt3__17__sort4B8nn210106INS_17_ClassicAlgPolicyERZN6fuzzer6Merger5MergeERKNS_3setIjNS_4lessIjEENS_9allocatorIjEEEEPS9_SB_SC_PNS_6vectorINS_12basic_stringIcNS_11char_traitsIcEENS7_IcEEEENS7_ISI_EEEEE3$_0PNS2_13MergeFileInfoETnNS_9enable_ifIXnt21__use_branchless_sortIT0_T1_EEiE4typeELi0EEEvSS_SS_SS_SS_SR_', symObjAddr: 0xA7DC, symBinAddr: 0x100029394, symSize: 0xF0 }
  - { offset: 0x16AF9F, size: 0x8, addend: 0x0, symName: '__ZN6fuzzer18ForEachNonZeroByteIZNKS_7TracePC15CollectFeaturesIZNS_6Fuzzer31CrashResistantMergeInternalStepERKNSt3__112basic_stringIcNS4_11char_traitsIcEENS4_9allocatorIcEEEEbE3$_1EEmT_EUlmmhE_EEmPKhSH_mSE_', symObjAddr: 0xB150, symBinAddr: 0x100029BD8, symSize: 0x714 }
  - { offset: 0x16BB54, size: 0x8, addend: 0x0, symName: '__ZN6fuzzer18ForEachNonZeroByteIZNKS_7TracePC15CollectFeaturesIZNS_6Fuzzer31CrashResistantMergeInternalStepERKNSt3__112basic_stringIcNS4_11char_traitsIcEENS4_9allocatorIcEEEEbE3$_2EEmT_EUlmmhE_EEmPKhSH_mSE_', symObjAddr: 0xB9C0, symBinAddr: 0x10002A448, symSize: 0xC5C }
  - { offset: 0x16CBEA, size: 0x8, addend: 0x0, symName: __ZN6fuzzer19CrashResistantMergeERKNSt3__16vectorINS0_12basic_stringIcNS0_11char_traitsIcEENS0_9allocatorIcEEEENS5_IS7_EEEERKNS1_INS_9SizedFileENS5_ISC_EEEESG_PS9_RKNS0_3setIjNS0_4lessIjEENS5_IjEEEEPSM_SO_SP_RKS7_bb, symObjAddr: 0x59D8, symBinAddr: 0x1000262D0, symSize: 0x16EC }
  - { offset: 0x173A8E, size: 0x8, addend: 0x0, symName: __ZN6fuzzer6Merger5ParseERKNSt3__112basic_stringIcNS1_11char_traitsIcEENS1_9allocatorIcEEEEb, symObjAddr: 0x0, symBinAddr: 0x100020E8C, symSize: 0x188 }
  - { offset: 0x173D67, size: 0x8, addend: 0x0, symName: __ZN6fuzzer6Merger5ParseERNSt3__113basic_istreamIcNS1_11char_traitsIcEEEEb, symObjAddr: 0x188, symBinAddr: 0x100021014, symSize: 0xB10 }
  - { offset: 0x1758C8, size: 0x8, addend: 0x0, symName: __ZN6fuzzer6Merger11ParseOrExitERNSt3__113basic_istreamIcNS1_11char_traitsIcEEEEb, symObjAddr: 0xC98, symBinAddr: 0x100021B24, symSize: 0x2C }
  - { offset: 0x17632B, size: 0x8, addend: 0x0, symName: __ZNSt3__16vectorIN6fuzzer13MergeFileInfoENS_9allocatorIS2_EEE6resizeEm, symObjAddr: 0xF90, symBinAddr: 0x100021B50, symSize: 0xCC }
  - { offset: 0x176AC7, size: 0x8, addend: 0x0, symName: __ZNK6fuzzer6Merger28ApproximateMemoryConsumptionEv, symObjAddr: 0x1324, symBinAddr: 0x100021C1C, symSize: 0xE8 }
  - { offset: 0x1771D9, size: 0x8, addend: 0x0, symName: __ZN6fuzzer6Merger11ParseOrExitERNSt3__113basic_istreamIcNS1_11char_traitsIcEEEEb, symObjAddr: 0xC98, symBinAddr: 0x100021B24, symSize: 0x2C }
  - { offset: 0x1778D6, size: 0x8, addend: 0x0, symName: __ZNSt3__16vectorIN6fuzzer13MergeFileInfoENS_9allocatorIS2_EEE8__appendEm, symObjAddr: 0x88EC, symBinAddr: 0x100027AD8, symSize: 0x18C }
  - { offset: 0x177A4D, size: 0x8, addend: 0x0, symName: __ZNSt3__16vectorIN6fuzzer13MergeFileInfoENS_9allocatorIS2_EEE8__appendEm, symObjAddr: 0x88EC, symBinAddr: 0x100027AD8, symSize: 0x18C }
  - { offset: 0x177EB2, size: 0x8, addend: 0x0, symName: __ZNSt3__16vectorIN6fuzzer13MergeFileInfoENS_9allocatorIS2_EEE20__throw_length_errorB8nn210106Ev, symObjAddr: 0x8A78, symBinAddr: 0x100027C64, symSize: 0x14 }
  - { offset: 0x177F8D, size: 0x8, addend: 0x0, symName: __ZNK6fuzzer6Merger28ApproximateMemoryConsumptionEv, symObjAddr: 0x1324, symBinAddr: 0x100021C1C, symSize: 0xE8 }
  - { offset: 0x177FDF, size: 0x8, addend: 0x0, symName: __ZNK6fuzzer6Merger28ApproximateMemoryConsumptionEv, symObjAddr: 0x1324, symBinAddr: 0x100021C1C, symSize: 0xE8 }
  - { offset: 0x178974, size: 0x8, addend: 0x0, symName: __ZN6fuzzer6Merger5MergeERKNSt3__13setIjNS1_4lessIjEENS1_9allocatorIjEEEEPS7_S9_SA_PNS1_6vectorINS1_12basic_stringIcNS1_11char_traitsIcEENS5_IcEEEENS5_ISG_EEEE, symObjAddr: 0x140C, symBinAddr: 0x100021D04, symSize: 0x11CC }
  - { offset: 0x17BB11, size: 0x8, addend: 0x0, symName: __ZNK6fuzzer6Merger11AllFeaturesEv, symObjAddr: 0x25D8, symBinAddr: 0x100022ED0, symSize: 0x358 }
  - { offset: 0x17C1EA, size: 0x8, addend: 0x0, symName: __ZNSt3__16vectorIN6fuzzer13MergeFileInfoENS_9allocatorIS2_EEE16__destroy_vectorclB8nn210106Ev, symObjAddr: 0xAFFC, symBinAddr: 0x100029A84, symSize: 0xC4 }
  - { offset: 0x17C4A3, size: 0x8, addend: 0x0, symName: __ZNK6fuzzer6Merger11AllFeaturesEv, symObjAddr: 0x25D8, symBinAddr: 0x100022ED0, symSize: 0x358 }
  - { offset: 0x17D982, size: 0x8, addend: 0x0, symName: __ZN6fuzzer6Fuzzer31CrashResistantMergeInternalStepERKNSt3__112basic_stringIcNS1_11char_traitsIcEENS1_9allocatorIcEEEEb, symObjAddr: 0x2930, symBinAddr: 0x100023228, symSize: 0xFEC }
  - { offset: 0x1806B4, size: 0x8, addend: 0x0, symName: '__ZNK6fuzzer7TracePC15CollectFeaturesIZNS_6Fuzzer31CrashResistantMergeInternalStepERKNSt3__112basic_stringIcNS3_11char_traitsIcEENS3_9allocatorIcEEEEbE3$_1EEmT_', symObjAddr: 0x391C, symBinAddr: 0x100024214, symSize: 0x4C0 }
  - { offset: 0x1810D8, size: 0x8, addend: 0x0, symName: '__ZNK6fuzzer7TracePC15CollectFeaturesIZNS_6Fuzzer31CrashResistantMergeInternalStepERKNSt3__112basic_stringIcNS3_11char_traitsIcEENS3_9allocatorIcEEEEbE3$_1EEmT_', symObjAddr: 0x391C, symBinAddr: 0x100024214, symSize: 0x4C0 }
  - { offset: 0x181B01, size: 0x8, addend: 0x0, symName: '__ZNK6fuzzer7TracePC15CollectFeaturesIZNS_6Fuzzer31CrashResistantMergeInternalStepERKNSt3__112basic_stringIcNS3_11char_traitsIcEENS3_9allocatorIcEEEEbE3$_2EEmT_', symObjAddr: 0x3DDC, symBinAddr: 0x1000246D4, symSize: 0x6A8 }
  - { offset: 0x1827E9, size: 0x8, addend: 0x0, symName: __ZNSt3__16__treeImNS_4lessImEENS_9allocatorImEEE7destroyEPNS_11__tree_nodeImPvEE, symObjAddr: 0xB0C0, symBinAddr: 0x100029B48, symSize: 0x48 }
  - { offset: 0x1828DE, size: 0x8, addend: 0x0, symName: __ZNSt3__16__treeIPKN6fuzzer7TracePC12PCTableEntryENS_4lessIS5_EENS_9allocatorIS5_EEE7destroyEPNS_11__tree_nodeIS5_PvEE, symObjAddr: 0xB108, symBinAddr: 0x100029B90, symSize: 0x48 }
  - { offset: 0x1829D3, size: 0x8, addend: 0x0, symName: __ZNSt3__16vectorIN6fuzzer13MergeFileInfoENS_9allocatorIS2_EEE16__destroy_vectorclB8nn210106Ev, symObjAddr: 0xAFFC, symBinAddr: 0x100029A84, symSize: 0xC4 }
  - { offset: 0x183418, size: 0x8, addend: 0x0, symName: '__ZZN6fuzzer6Fuzzer31CrashResistantMergeInternalStepERKNSt3__112basic_stringIcNS1_11char_traitsIcEENS1_9allocatorIcEEEEbENK3$_2clEm', symObjAddr: 0xC61C, symBinAddr: 0x10002B0A4, symSize: 0x140 }
  - { offset: 0x183E73, size: 0x8, addend: 0x0, symName: __ZN6fuzzer6Merger13SetCoverMergeERKNSt3__13setIjNS1_4lessIjEENS1_9allocatorIjEEEEPS7_S9_SA_PNS1_6vectorINS1_12basic_stringIcNS1_11char_traitsIcEENS5_IcEEEENS5_ISG_EEEE, symObjAddr: 0x4484, symBinAddr: 0x100024D7C, symSize: 0x1554 }
  - { offset: 0x187998, size: 0x8, addend: 0x0, symName: __ZNSt3__16vectorIbNS_9allocatorIbEEE18__construct_at_endB8nn210106Emb, symObjAddr: 0xC75C, symBinAddr: 0x10002B1E4, symSize: 0x1FC }
  - { offset: 0x1879E4, size: 0x8, addend: 0x0, symName: __ZNSt3__16vectorIbNS_9allocatorIbEEE18__construct_at_endB8nn210106Emb, symObjAddr: 0xC75C, symBinAddr: 0x10002B1E4, symSize: 0x1FC }
  - { offset: 0x187A00, size: 0x8, addend: 0x0, symName: __ZNSt3__16vectorIbNS_9allocatorIbEEE18__construct_at_endB8nn210106Emb, symObjAddr: 0xC75C, symBinAddr: 0x10002B1E4, symSize: 0x1FC }
  - { offset: 0x188AA3, size: 0x8, addend: 0x0, symName: __ZNSt3__16vectorIN6fuzzer13MergeFileInfoENS_9allocatorIS2_EEE18__assign_with_sizeB8nn210106IPS2_S7_EEvT_T0_l, symObjAddr: 0xCD7C, symBinAddr: 0x10002B804, symSize: 0x2C0 }
  - { offset: 0x189895, size: 0x8, addend: 0x0, symName: __ZNSt3__16vectorIN6fuzzer13MergeFileInfoENS_9allocatorIS2_EEE13__vdeallocateEv, symObjAddr: 0xD03C, symBinAddr: 0x10002BAC4, symSize: 0xB4 }
  - { offset: 0x189DEC, size: 0x8, addend: 0x0, symName: __ZNSt3__113unordered_setINS_12basic_stringIcNS_11char_traitsIcEENS_9allocatorIcEEEENS_4hashIS6_EENS_8equal_toIS6_EENS4_IS6_EEEC2ERKSC_, symObjAddr: 0x7A4C, symBinAddr: 0x1000279BC, symSize: 0x11C }
  - { offset: 0x18AD82, size: 0x8, addend: 0x0, symName: __ZNSt3__16vectorIN6fuzzer13MergeFileInfoENS_9allocatorIS2_EEE18__insert_with_sizeB8nn210106INS_11__wrap_iterIPS2_EES9_EES9_NS7_IPKS2_EET_T0_l, symObjAddr: 0xD20C, symBinAddr: 0x10002BC94, symSize: 0x354 }
  - { offset: 0x18B9A8, size: 0x8, addend: 0x0, symName: __ZNSt3__16vectorIN6fuzzer13MergeFileInfoENS_9allocatorIS2_EEE27__insert_assign_n_uncheckedB8nn210106INS_11__wrap_iterIPS2_EETnNS_9enable_ifIXntsr7is_sameIODTdeclsr3stdE7declvalIRT_EEEOS2_EE5valueEiE4typeELi0EEEvSB_lS8_, symObjAddr: 0xD560, symBinAddr: 0x10002BFE8, symSize: 0x14C }
  - { offset: 0x18C626, size: 0x8, addend: 0x0, symName: __ZNSt3__113unordered_setINS_12basic_stringIcNS_11char_traitsIcEENS_9allocatorIcEEEENS_4hashIS6_EENS_8equal_toIS6_EENS4_IS6_EEEC2ERKSC_, symObjAddr: 0x7A4C, symBinAddr: 0x1000279BC, symSize: 0x11C }
  - { offset: 0x18D75B, size: 0x8, addend: 0x0, symName: __ZNSt3__114__split_bufferIN6fuzzer13MergeFileInfoERNS_9allocatorIS2_EEED2Ev, symObjAddr: 0x8B84, symBinAddr: 0x100027D70, symSize: 0xA4 }
  - { offset: 0x18DC8C, size: 0x8, addend: 0x0, symName: __ZNSt3__16vectorIN6fuzzer13MergeFileInfoENS_9allocatorIS2_EEE20__throw_length_errorB8nn210106Ev, symObjAddr: 0x8A78, symBinAddr: 0x100027C64, symSize: 0x14 }
  - { offset: 0x18DCA4, size: 0x8, addend: 0x0, symName: __ZNSt3__134__uninitialized_allocator_relocateB8nn210106INS_9allocatorIN6fuzzer13MergeFileInfoEEEPS3_EEvRT_T0_S8_S8_, symObjAddr: 0x8A8C, symBinAddr: 0x100027C78, symSize: 0xF8 }
  - { offset: 0x18E43D, size: 0x8, addend: 0x0, symName: '__ZZNK6fuzzer7TracePC15CollectFeaturesIZNS_6Fuzzer31CrashResistantMergeInternalStepERKNSt3__112basic_stringIcNS3_11char_traitsIcEENS3_9allocatorIcEEEEbE3$_1EEmT_ENKUlmmhE_clEmmh', symObjAddr: 0xB864, symBinAddr: 0x10002A2EC, symSize: 0x15C }
  - { offset: 0x18EA63, size: 0x8, addend: 0x0, symName: __ZNSt3__16vectorIN6fuzzer13MergeFileInfoENS_9allocatorIS2_EEE13__vdeallocateEv, symObjAddr: 0xD03C, symBinAddr: 0x10002BAC4, symSize: 0xB4 }
  - { offset: 0x18EFBD, size: 0x8, addend: 0x0, symName: __ZN6fuzzer13MergeFileInfoC2ERKS0_, symObjAddr: 0xD0F0, symBinAddr: 0x10002BB78, symSize: 0x11C }
  - { offset: 0x18F6FD, size: 0x8, addend: 0x0, symName: __ZNSt3__16vectorIN6fuzzer13MergeFileInfoENS_9allocatorIS2_EEE18__insert_with_sizeB8nn210106INS_11__wrap_iterIPS2_EES9_EES9_NS7_IPKS2_EET_T0_l, symObjAddr: 0xD20C, symBinAddr: 0x10002BC94, symSize: 0x354 }
  - { offset: 0x18F98F, size: 0x8, addend: 0x0, symName: __ZNKSt3__120__move_backward_implINS_17_ClassicAlgPolicyEEclB8nn210106IPN6fuzzer13MergeFileInfoES6_S6_EENS_4pairIT_T1_EES8_T0_S9_, symObjAddr: 0xD6AC, symBinAddr: 0x10002C134, symSize: 0x130 }
  - { offset: 0x18FFEA, size: 0x8, addend: 0x0, symName: __ZNSt3__16vectorIN6fuzzer13MergeFileInfoENS_9allocatorIS2_EEE27__insert_assign_n_uncheckedB8nn210106INS_11__wrap_iterIPS2_EETnNS_9enable_ifIXntsr7is_sameIODTdeclsr3stdE7declvalIRT_EEEOS2_EE5valueEiE4typeELi0EEEvSB_lS8_, symObjAddr: 0xD560, symBinAddr: 0x10002BFE8, symSize: 0x14C }
  - { offset: 0x190042, size: 0x8, addend: 0x0, symName: __ZNSt3__16vectorIN6fuzzer13MergeFileInfoENS_9allocatorIS2_EEE27__insert_assign_n_uncheckedB8nn210106INS_11__wrap_iterIPS2_EETnNS_9enable_ifIXntsr7is_sameIODTdeclsr3stdE7declvalIRT_EEEOS2_EE5valueEiE4typeELi0EEEvSB_lS8_, symObjAddr: 0xD560, symBinAddr: 0x10002BFE8, symSize: 0x14C }
  - { offset: 0x192749, size: 0x8, addend: 0x0, symName: __ZN6fuzzer18MutationDispatcherC2ERNS_6RandomERKNS_14FuzzingOptionsE, symObjAddr: 0x0, symBinAddr: 0x10002C264, symSize: 0x360 }
  - { offset: 0x192762, size: 0x8, addend: 0x0, symName: __ZN6fuzzer10Dictionary12kMaxDictSizeE, symObjAddr: 0x5688, symBinAddr: 0x10003C080, symSize: 0x0 }
  - { offset: 0x1933EE, size: 0x8, addend: 0x0, symName: __ZN6fuzzerL6RandChERNS_6RandomE, symObjAddr: 0x1AA8, symBinAddr: 0x10002DD0C, symSize: 0xF0 }
  - { offset: 0x19342D, size: 0x8, addend: 0x0, symName: __ZN6fuzzerL6RandChERNS_6RandomE, symObjAddr: 0x1AA8, symBinAddr: 0x10002DD0C, symSize: 0xF0 }
  - { offset: 0x193448, size: 0x8, addend: 0x0, symName: __ZN6fuzzerL6RandChERNS_6RandomE, symObjAddr: 0x1AA8, symBinAddr: 0x10002DD0C, symSize: 0xF0 }
  - { offset: 0x193463, size: 0x8, addend: 0x0, symName: __ZN6fuzzerL6RandChERNS_6RandomE, symObjAddr: 0x1AA8, symBinAddr: 0x10002DD0C, symSize: 0xF0 }
  - { offset: 0x193664, size: 0x8, addend: 0x0, symName: __ZN6fuzzer19ChangeBinaryIntegerItEEmPhmRNS_6RandomE, symObjAddr: 0x33B4, symBinAddr: 0x10002F618, symSize: 0x230 }
  - { offset: 0x193B65, size: 0x8, addend: 0x0, symName: __ZN6fuzzer19ChangeBinaryIntegerIyEEmPhmRNS_6RandomE, symObjAddr: 0x2F60, symBinAddr: 0x10002F1C4, symSize: 0x22C }
  - { offset: 0x194066, size: 0x8, addend: 0x0, symName: __ZN6fuzzer19ChangeBinaryIntegerIhEEmPhmRNS_6RandomE, symObjAddr: 0x35E4, symBinAddr: 0x10002F848, symSize: 0x200 }
  - { offset: 0x19454A, size: 0x8, addend: 0x0, symName: __ZN6fuzzer19ChangeBinaryIntegerIjEEmPhmRNS_6RandomE, symObjAddr: 0x318C, symBinAddr: 0x10002F3F0, symSize: 0x228 }
  - { offset: 0x19D5E4, size: 0x8, addend: 0x0, symName: __ZNSt3__16vectorIN6fuzzer18MutationDispatcher7MutatorENS_9allocatorIS3_EEE18__insert_with_sizeB8nn210106IPKS3_S9_EENS_11__wrap_iterIPS3_EENSA_IS9_EET_T0_l, symObjAddr: 0x49D0, symBinAddr: 0x100030908, symSize: 0x474 }
  - { offset: 0x19DE28, size: 0x8, addend: 0x0, symName: __ZN6fuzzer18MutationDispatcherC2ERNS_6RandomERKNS_14FuzzingOptionsE, symObjAddr: 0x0, symBinAddr: 0x10002C264, symSize: 0x360 }
  - { offset: 0x19E632, size: 0x8, addend: 0x0, symName: __ZNSt3__16vectorIN6fuzzer18MutationDispatcher7MutatorENS_9allocatorIS3_EEE18__insert_with_sizeB8nn210106IPKS3_S9_EENS_11__wrap_iterIPS3_EENSA_IS9_EET_T0_l, symObjAddr: 0x49D0, symBinAddr: 0x100030908, symSize: 0x474 }
  - { offset: 0x19F13E, size: 0x8, addend: 0x0, symName: __ZNSt3__16vectorIN6fuzzer18MutationDispatcher7MutatorENS_9allocatorIS3_EEE20__throw_length_errorB8nn210106Ev, symObjAddr: 0x4E44, symBinAddr: 0x100030D7C, symSize: 0x14 }
  - { offset: 0x19F15B, size: 0x8, addend: 0x0, symName: __ZNSt3__16vectorIN6fuzzer18MutationDispatcher7MutatorENS_9allocatorIS3_EEE9push_backB8nn210106EOS3_, symObjAddr: 0x12CC, symBinAddr: 0x10002D530, symSize: 0x130 }
  - { offset: 0x19F56C, size: 0x8, addend: 0x0, symName: __ZN6fuzzer18MutationDispatcher22Mutate_AddWordFromTORCEPhmm, symObjAddr: 0x13FC, symBinAddr: 0x10002D660, symSize: 0x41C }
  - { offset: 0x19F577, size: 0x8, addend: 0x0, symName: __ZNSt3__16vectorIN6fuzzer18MutationDispatcher7MutatorENS_9allocatorIS3_EEE18__assign_with_sizeB8nn210106IPS3_S8_EEvT_T0_l, symObjAddr: 0x4E58, symBinAddr: 0x100030D90, symSize: 0x180 }
  - { offset: 0x19FF95, size: 0x8, addend: 0x0, symName: __ZNSt3__16vectorIhNS_9allocatorIhEEE8__appendEm, symObjAddr: 0x4FD8, symBinAddr: 0x100030F10, symSize: 0x220 }
  - { offset: 0x1A0081, size: 0x8, addend: 0x0, symName: __ZN6fuzzer18MutationDispatcher17Mutate_EraseBytesEPhmm, symObjAddr: 0x360, symBinAddr: 0x10002C5C4, symSize: 0xE4 }
  - { offset: 0x1A02AD, size: 0x8, addend: 0x0, symName: __ZN6fuzzer18MutationDispatcher17Mutate_InsertByteEPhmm, symObjAddr: 0x444, symBinAddr: 0x10002C6A8, symSize: 0xB8 }
  - { offset: 0x1A043F, size: 0x8, addend: 0x0, symName: __ZN6fuzzer18MutationDispatcher26Mutate_InsertRepeatedBytesEPhmm, symObjAddr: 0x4FC, symBinAddr: 0x10002C760, symSize: 0x248 }
  - { offset: 0x1A0759, size: 0x8, addend: 0x0, symName: __ZN6fuzzer18MutationDispatcher17Mutate_ChangeByteEPhmm, symObjAddr: 0x744, symBinAddr: 0x10002C9A8, symSize: 0xAC }
  - { offset: 0x1A08B1, size: 0x8, addend: 0x0, symName: __ZN6fuzzer18MutationDispatcher16Mutate_ChangeBitEPhmm, symObjAddr: 0x7F0, symBinAddr: 0x10002CA54, symSize: 0xC0 }
  - { offset: 0x1A0BA5, size: 0x8, addend: 0x0, symName: __ZN6fuzzer18MutationDispatcher19Mutate_ShuffleBytesEPhmm, symObjAddr: 0x8B0, symBinAddr: 0x10002CB14, symSize: 0x140 }
  - { offset: 0x1A10A9, size: 0x8, addend: 0x0, symName: __ZN6fuzzer18MutationDispatcher25Mutate_ChangeASCIIIntegerEPhmm, symObjAddr: 0x9F0, symBinAddr: 0x10002CC54, symSize: 0x238 }
  - { offset: 0x1A1473, size: 0x8, addend: 0x0, symName: __ZN6fuzzer18MutationDispatcher26Mutate_ChangeBinaryIntegerEPhmm, symObjAddr: 0xC28, symBinAddr: 0x10002CE8C, symSize: 0xC8 }
  - { offset: 0x1A1647, size: 0x8, addend: 0x0, symName: __ZN6fuzzer18MutationDispatcher15Mutate_CopyPartEPhmm, symObjAddr: 0xCF0, symBinAddr: 0x10002CF54, symSize: 0x174 }
  - { offset: 0x1A19FF, size: 0x8, addend: 0x0, symName: __ZN6fuzzer18MutationDispatcher12InsertPartOfEPKhmPhmm, symObjAddr: 0x2D78, symBinAddr: 0x10002EFDC, symSize: 0x1E8 }
  - { offset: 0x1A1F3B, size: 0x8, addend: 0x0, symName: __ZN6fuzzer18MutationDispatcher16Mutate_CrossOverEPhmm, symObjAddr: 0xE64, symBinAddr: 0x10002D0C8, symSize: 0x2CC }
  - { offset: 0x1A24D3, size: 0x8, addend: 0x0, symName: __ZNSt3__16vectorIhNS_9allocatorIhEEE8__appendEm, symObjAddr: 0x4FD8, symBinAddr: 0x100030F10, symSize: 0x220 }
  - { offset: 0x1A291D, size: 0x8, addend: 0x0, symName: __ZN6fuzzer18MutationDispatcher10CopyPartOfEPKhmPhm, symObjAddr: 0x2C48, symBinAddr: 0x10002EEAC, symSize: 0x130 }
  - { offset: 0x1A2CA7, size: 0x8, addend: 0x0, symName: __ZN6fuzzer18MutationDispatcher34Mutate_AddWordFromManualDictionaryEPhmm, symObjAddr: 0x1130, symBinAddr: 0x10002D394, symSize: 0xCC }
  - { offset: 0x1A2E8B, size: 0x8, addend: 0x0, symName: __ZN6fuzzer18MutationDispatcher20ApplyDictionaryEntryEPhmmRNS_15DictionaryEntryE, symObjAddr: 0x1C6C, symBinAddr: 0x10002DED0, symSize: 0x22C }
  - { offset: 0x1A3315, size: 0x8, addend: 0x0, symName: __ZNSt3__16vectorIPN6fuzzer15DictionaryEntryENS_9allocatorIS3_EEE9push_backB8nn210106EOS3_, symObjAddr: 0x2B50, symBinAddr: 0x10002EDB4, symSize: 0xF8 }
  - { offset: 0x1A372C, size: 0x8, addend: 0x0, symName: __ZN6fuzzer18MutationDispatcher10CopyPartOfEPKhmPhm, symObjAddr: 0x2C48, symBinAddr: 0x10002EEAC, symSize: 0x130 }
  - { offset: 0x1A3737, size: 0x8, addend: 0x0, symName: __ZN6fuzzer18MutationDispatcher42Mutate_AddWordFromPersistentAutoDictionaryEPhmm, symObjAddr: 0x11FC, symBinAddr: 0x10002D460, symSize: 0xD0 }
  - { offset: 0x1A3C85, size: 0x8, addend: 0x0, symName: __ZNSt3__16vectorIN6fuzzer18MutationDispatcher7MutatorENS_9allocatorIS3_EEE20__throw_length_errorB8nn210106Ev, symObjAddr: 0x4E44, symBinAddr: 0x100030D7C, symSize: 0x14 }
  - { offset: 0x1A3C9D, size: 0x8, addend: 0x0, symName: __ZNSt3__16vectorIN6fuzzer18MutationDispatcher7MutatorENS_9allocatorIS3_EEE18__assign_with_sizeB8nn210106IPS3_S8_EEvT_T0_l, symObjAddr: 0x4E58, symBinAddr: 0x100030D90, symSize: 0x180 }
  - { offset: 0x1A3DEE, size: 0x8, addend: 0x0, symName: __ZN6fuzzer18MutationDispatcher22Mutate_AddWordFromTORCEPhmm, symObjAddr: 0x13FC, symBinAddr: 0x10002D660, symSize: 0x41C }
  - { offset: 0x1A4601, size: 0x8, addend: 0x0, symName: __ZN6fuzzer18MutationDispatcher26MakeDictionaryEntryFromCMPIjEENS_15DictionaryEntryET_S3_PKhm, symObjAddr: 0x29FC, symBinAddr: 0x10002EC60, symSize: 0x154 }
  - { offset: 0x1A4A2F, size: 0x8, addend: 0x0, symName: __ZN6fuzzer18MutationDispatcher26MakeDictionaryEntryFromCMPIyEENS_15DictionaryEntryET_S3_PKhm, symObjAddr: 0x2754, symBinAddr: 0x10002E9B8, symSize: 0x154 }
  - { offset: 0x1A4E5C, size: 0x8, addend: 0x0, symName: __ZN6fuzzer18MutationDispatcher26MakeDictionaryEntryFromCMPEPKvS2_S2_S2_mPKhm, symObjAddr: 0x1E98, symBinAddr: 0x10002E0FC, symSize: 0x89C }
  - { offset: 0x1A55C6, size: 0x8, addend: 0x0, symName: __ZN6fuzzer18MutationDispatcher26MakeDictionaryEntryFromCMPItEENS_15DictionaryEntryET_S3_PKhm, symObjAddr: 0x28A8, symBinAddr: 0x10002EB0C, symSize: 0x154 }
  - { offset: 0x1A5A02, size: 0x8, addend: 0x0, symName: __ZN6fuzzer18MutationDispatcher13Mutate_CustomEPhmm, symObjAddr: 0x1818, symBinAddr: 0x10002DA7C, symSize: 0xC4 }
  - { offset: 0x1A5B33, size: 0x8, addend: 0x0, symName: __ZN6fuzzer18MutationDispatcher22Mutate_CustomCrossOverEPhmm, symObjAddr: 0x18DC, symBinAddr: 0x10002DB40, symSize: 0x1C8 }
  - { offset: 0x1A5E8A, size: 0x8, addend: 0x0, symName: __ZN6fuzzer18MutationDispatcherC1ERNS_6RandomERKNS_14FuzzingOptionsE, symObjAddr: 0x1AA4, symBinAddr: 0x10002DD08, symSize: 0x4 }
  - { offset: 0x1A5ED4, size: 0x8, addend: 0x0, symName: __ZN6fuzzer18MutationDispatcherC1ERNS_6RandomERKNS_14FuzzingOptionsE, symObjAddr: 0x1AA4, symBinAddr: 0x10002DD08, symSize: 0x4 }
  - { offset: 0x1A5EF5, size: 0x8, addend: 0x0, symName: __ZN6fuzzer18MutationDispatcher21AddWordFromDictionaryERNS_10DictionaryEPhmm, symObjAddr: 0x1B98, symBinAddr: 0x10002DDFC, symSize: 0xD4 }
  - { offset: 0x1A615B, size: 0x8, addend: 0x0, symName: __ZN6fuzzer18MutationDispatcher26MakeDictionaryEntryFromCMPERKNS_9FixedWordILm64EEES4_PKhm, symObjAddr: 0x2734, symBinAddr: 0x10002E998, symSize: 0x20 }
  - { offset: 0x1A65A7, size: 0x8, addend: 0x0, symName: __ZNSt3__16vectorIPN6fuzzer15DictionaryEntryENS_9allocatorIS3_EEE20__throw_length_errorB8nn210106Ev, symObjAddr: 0x55B4, symBinAddr: 0x100031130, symSize: 0x14 }
  - { offset: 0x1A65BF, size: 0x8, addend: 0x0, symName: __ZNSt3__16vectorIN6fuzzer15DictionaryEntryENS_9allocatorIS2_EEE20__throw_length_errorB8nn210106Ev, symObjAddr: 0x55C8, symBinAddr: 0x100031144, symSize: 0x14 }
  - { offset: 0x1A6668, size: 0x8, addend: 0x0, symName: __ZN6fuzzer18MutationDispatcher21StartMutationSequenceEv, symObjAddr: 0x37E4, symBinAddr: 0x10002FA48, symSize: 0x18 }
  - { offset: 0x1A6878, size: 0x8, addend: 0x0, symName: __ZN6fuzzer18MutationDispatcher32RecordSuccessfulMutationSequenceEv, symObjAddr: 0x37FC, symBinAddr: 0x10002FA60, symSize: 0x130 }
  - { offset: 0x1A6E73, size: 0x8, addend: 0x0, symName: __ZN6fuzzer18MutationDispatcher26PrintRecommendedDictionaryEv, symObjAddr: 0x392C, symBinAddr: 0x10002FB90, symSize: 0x268 }
  - { offset: 0x1A755B, size: 0x8, addend: 0x0, symName: __ZN6fuzzer18MutationDispatcher21PrintMutationSequenceEb, symObjAddr: 0x3B94, symBinAddr: 0x10002FDF8, symSize: 0x134 }
  - { offset: 0x1A7566, size: 0x8, addend: 0x0, symName: __ZNSt3__16vectorIN6fuzzer15DictionaryEntryENS_9allocatorIS2_EEE20__throw_length_errorB8nn210106Ev, symObjAddr: 0x55C8, symBinAddr: 0x100031144, symSize: 0x14 }
  - { offset: 0x1A75DF, size: 0x8, addend: 0x0, symName: __ZN6fuzzer18MutationDispatcher21PrintMutationSequenceEb, symObjAddr: 0x3B94, symBinAddr: 0x10002FDF8, symSize: 0x134 }
  - { offset: 0x1A784E, size: 0x8, addend: 0x0, symName: __ZN6fuzzer18MutationDispatcher16MutationSequenceEv, symObjAddr: 0x3CC8, symBinAddr: 0x10002FF2C, symSize: 0x6C }
  - { offset: 0x1A7A34, size: 0x8, addend: 0x0, symName: __ZN6fuzzer18MutationDispatcher6MutateEPhmm, symObjAddr: 0x3D34, symBinAddr: 0x10002FF98, symSize: 0x154 }
  - { offset: 0x1A7C3E, size: 0x8, addend: 0x0, symName: __ZNSt3__16vectorIN6fuzzer18MutationDispatcher7MutatorENS_9allocatorIS3_EEE9push_backB8nn210106ERKS3_, symObjAddr: 0x412C, symBinAddr: 0x100030390, symSize: 0x130 }
  - { offset: 0x1A804F, size: 0x8, addend: 0x0, symName: __ZN6fuzzer18MutationDispatcher14MutateWithMaskEPhmmRKNSt3__16vectorIhNS2_9allocatorIhEEEE, symObjAddr: 0x425C, symBinAddr: 0x1000304C0, symSize: 0x3D4 }
  - { offset: 0x1A805A, size: 0x8, addend: 0x0, symName: __ZN6fuzzer18MutationDispatcher10MutateImplEPhmmRNSt3__16vectorINS0_7MutatorENS2_9allocatorIS4_EEEE, symObjAddr: 0x3E88, symBinAddr: 0x1000300EC, symSize: 0x150 }
  - { offset: 0x1A822B, size: 0x8, addend: 0x0, symName: __ZN6fuzzer18MutationDispatcher13DefaultMutateEPhmm, symObjAddr: 0x3FD8, symBinAddr: 0x10003023C, symSize: 0x154 }
  - { offset: 0x1A85B3, size: 0x8, addend: 0x0, symName: __ZN6fuzzer18MutationDispatcher14MutateWithMaskEPhmmRKNSt3__16vectorIhNS2_9allocatorIhEEEE, symObjAddr: 0x425C, symBinAddr: 0x1000304C0, symSize: 0x3D4 }
  - { offset: 0x1A879C, size: 0x8, addend: 0x0, symName: __ZN6fuzzer18MutationDispatcher25AddWordToManualDictionaryERKNS_9FixedWordILm64EEE, symObjAddr: 0x4630, symBinAddr: 0x100030894, symSize: 0x74 }
  - { offset: 0x1AB2EC, size: 0x8, addend: 0x0, symName: __ZN6fuzzer11ComputeSHA1EPKhmPh, symObjAddr: 0x0, symBinAddr: 0x100031158, symSize: 0x15C }
  - { offset: 0x1AB30C, size: 0x8, addend: 0x0, symName: __ZN6fuzzer11ComputeSHA1EPKhmPh, symObjAddr: 0x0, symBinAddr: 0x100031158, symSize: 0x15C }
  - { offset: 0x1AB515, size: 0x8, addend: 0x0, symName: __ZN6fuzzer12Sha1ToStringEPKh, symObjAddr: 0x15C, symBinAddr: 0x1000312B4, symSize: 0x2C8 }
  - { offset: 0x1ABACD, size: 0x8, addend: 0x0, symName: __ZN6fuzzer4HashERKNSt3__16vectorIhNS0_9allocatorIhEEEE, symObjAddr: 0x424, symBinAddr: 0x10003157C, symSize: 0x50 }
  - { offset: 0x1B069C, size: 0x8, addend: 0x0, symName: __ZN12_GLOBAL__N_117sha1_addUncountedEPNS_7sha1nfoEj, symObjAddr: 0x474, symBinAddr: 0x1000315CC, symSize: 0x174 }
  - { offset: 0x1B2D08, size: 0x8, addend: 0x0, symName: ___sancov_lowest_stack, symObjAddr: 0x3330, symBinAddr: 0x100044380, symSize: 0x0 }
  - { offset: 0x1B2D2B, size: 0x8, addend: 0x0, symName: __ZN6fuzzer3TPCE, symObjAddr: 0x54E00, symBinAddr: 0x100044600, symSize: 0x0 }
  - { offset: 0x1B3618, size: 0x8, addend: 0x0, symName: __ZN6fuzzer34WarnAboutDeprecatedInstrumentationEPKc, symObjAddr: 0x1DD8, symBinAddr: 0x100033518, symSize: 0x20 }
  - { offset: 0x1B365B, size: 0x8, addend: 0x0, symName: ___sanitizer_cov_trace_pc_guard, symObjAddr: 0x1DF8, symBinAddr: 0x100033538, symSize: 0x28 }
  - { offset: 0x1BA515, size: 0x8, addend: 0x0, symName: __ZNSt3__112__hash_tableINS_17__hash_value_typeImmEENS_22__unordered_map_hasherImNS_4pairIKmmEENS_4hashImEENS_8equal_toImEELb1EEENS_21__unordered_map_equalImS6_SA_S8_Lb1EEENS_9allocatorIS6_EEE11__do_rehashILb1EEEvm, symObjAddr: 0x3094, symBinAddr: 0x100034778, symSize: 0x1CC }
  - { offset: 0x1BAD7A, size: 0x8, addend: 0x0, symName: __ZN6fuzzer7TracePCD1Ev, symObjAddr: 0x0, symBinAddr: 0x100031740, symSize: 0x70 }
  - { offset: 0x1BB16A, size: 0x8, addend: 0x0, symName: __ZN6fuzzer7TracePC18GetTotalPCCoverageEv, symObjAddr: 0x70, symBinAddr: 0x1000317B0, symSize: 0xC }
  - { offset: 0x1BB194, size: 0x8, addend: 0x0, symName: __ZN6fuzzer7TracePC18GetTotalPCCoverageEv, symObjAddr: 0x70, symBinAddr: 0x1000317B0, symSize: 0xC }
  - { offset: 0x1BB1F2, size: 0x8, addend: 0x0, symName: __ZN6fuzzer7TracePC28HandleInline8bitCountersInitEPhS1_, symObjAddr: 0x7C, symBinAddr: 0x1000317BC, symSize: 0x1A8 }
  - { offset: 0x1BB3B0, size: 0x8, addend: 0x0, symName: __ZN6fuzzer7TracePC13HandlePCsInitEPKmS2_, symObjAddr: 0x224, symBinAddr: 0x100031964, symSize: 0x48 }
  - { offset: 0x1BB3E9, size: 0x8, addend: 0x0, symName: __ZN6fuzzer7TracePC15PrintModuleInfoEv, symObjAddr: 0x26C, symBinAddr: 0x1000319AC, symSize: 0x1A8 }
  - { offset: 0x1BB5AB, size: 0x8, addend: 0x0, symName: '__ZNK6fuzzer7TracePC15CollectFeaturesIZNS0_15PrintModuleInfoEvE3$_0EEmT_', symObjAddr: 0x414, symBinAddr: 0x100031B54, symSize: 0xF4 }
  - { offset: 0x1BB5BC, size: 0x8, addend: 0x0, symName: '__ZNK6fuzzer7TracePC15CollectFeaturesIZNS0_15PrintModuleInfoEvE3$_0EEmT_', symObjAddr: 0x414, symBinAddr: 0x100031B54, symSize: 0xF4 }
  - { offset: 0x1BB80F, size: 0x8, addend: 0x0, symName: __ZN6fuzzer7TracePC18HandleCallerCalleeEmm, symObjAddr: 0x508, symBinAddr: 0x100031C48, symSize: 0x4C }
  - { offset: 0x1BB89A, size: 0x8, addend: 0x0, symName: __ZN6fuzzer7TracePC20GetNextInstructionPcEm, symObjAddr: 0x554, symBinAddr: 0x100031C94, symSize: 0x8 }
  - { offset: 0x1BB8D6, size: 0x8, addend: 0x0, symName: __ZN6fuzzer7TracePC17UpdateObservedPCsEv, symObjAddr: 0x55C, symBinAddr: 0x100031C9C, symSize: 0x5F8 }
  - { offset: 0x1BC487, size: 0x8, addend: 0x0, symName: __ZN6fuzzer7TracePC15PCTableEntryIdxEPKNS0_12PCTableEntryE, symObjAddr: 0xB54, symBinAddr: 0x100032294, symSize: 0x54 }
  - { offset: 0x1BCC1A, size: 0x8, addend: 0x0, symName: __ZNSt3__112__hash_tableINS_17__hash_value_typeImmEENS_22__unordered_map_hasherImNS_4pairIKmmEENS_4hashImEENS_8equal_toImEELb1EEENS_21__unordered_map_equalImS6_SA_S8_Lb1EEENS_9allocatorIS6_EEE25__emplace_unique_key_argsImJRKNS_21piecewise_construct_tENS_5tupleIJRS5_EEENSL_IJEEEEEENS4_INS_15__hash_iteratorIPNS_11__hash_nodeIS2_PvEEEEbEERKT_DpOT0_, symObjAddr: 0x2D5C, symBinAddr: 0x100034454, symSize: 0x324 }
  - { offset: 0x1BD247, size: 0x8, addend: 0x0, symName: __ZN6fuzzer7TracePC15PCTableEntryIdxEPKNS0_12PCTableEntryE, symObjAddr: 0xB54, symBinAddr: 0x100032294, symSize: 0x54 }
  - { offset: 0x1BD2B2, size: 0x8, addend: 0x0, symName: __ZN6fuzzer7TracePC17PCTableEntryByIdxEm, symObjAddr: 0xBA8, symBinAddr: 0x1000322E8, symSize: 0x48 }
  - { offset: 0x1BD7FD, size: 0x8, addend: 0x0, symName: __ZN6fuzzer7TracePC16SetFocusFunctionERKNSt3__112basic_stringIcNS1_11char_traitsIcEENS1_9allocatorIcEEEE, symObjAddr: 0xBF0, symBinAddr: 0x100032330, symSize: 0x384 }
  - { offset: 0x1BE26F, size: 0x8, addend: 0x0, symName: __ZN6fuzzer7TracePC21ObservedFocusFunctionEv, symObjAddr: 0xF74, symBinAddr: 0x1000326B4, symSize: 0x24 }
  - { offset: 0x1BE2D5, size: 0x8, addend: 0x0, symName: __ZTW21__sancov_lowest_stack, symObjAddr: 0x32D4, symBinAddr: 0x100034944, symSize: 0x20 }
  - { offset: 0x1BE2E0, size: 0x8, addend: 0x0, symName: __ZN6fuzzer7TracePC21ObservedFocusFunctionEv, symObjAddr: 0xF74, symBinAddr: 0x1000326B4, symSize: 0x24 }
  - { offset: 0x1BE309, size: 0x8, addend: 0x0, symName: __ZN6fuzzer7TracePC13PrintCoverageEb, symObjAddr: 0xF98, symBinAddr: 0x1000326D8, symSize: 0xA58 }
  - { offset: 0x1C052A, size: 0x8, addend: 0x0, symName: __ZN6fuzzer7TracePC17AddValueForMemcmpEPvPKvS3_mb, symObjAddr: 0x19F0, symBinAddr: 0x100033130, symSize: 0x2C4 }
  - { offset: 0x1C090D, size: 0x8, addend: 0x0, symName: __ZN6fuzzer7TracePC17AddValueForMemcmpEPvPKvS3_mb, symObjAddr: 0x19F0, symBinAddr: 0x100033130, symSize: 0x2C4 }
  - { offset: 0x1C0C48, size: 0x8, addend: 0x0, symName: __ZN6fuzzer7TracePC19ClearInlineCountersEv, symObjAddr: 0x1CB4, symBinAddr: 0x1000333F4, symSize: 0xB8 }
  - { offset: 0x1C0DB5, size: 0x8, addend: 0x0, symName: __ZN6fuzzer7TracePC18RecordInitialStackEv, symObjAddr: 0x1D6C, symBinAddr: 0x1000334AC, symSize: 0x3C }
  - { offset: 0x1C0DFC, size: 0x8, addend: 0x0, symName: __ZNK6fuzzer7TracePC17GetMaxStackOffsetEv, symObjAddr: 0x1DA8, symBinAddr: 0x1000334E8, symSize: 0x30 }
  - { offset: 0x1C0E2A, size: 0x8, addend: 0x0, symName: ___sanitizer_cov_trace_pc_guard, symObjAddr: 0x1DF8, symBinAddr: 0x100033538, symSize: 0x28 }
  - { offset: 0x1C0E90, size: 0x8, addend: 0x0, symName: ___sanitizer_cov_trace_pc, symObjAddr: 0x1E20, symBinAddr: 0x100033560, symSize: 0x28 }
  - { offset: 0x1C0EA1, size: 0x8, addend: 0x0, symName: ___sanitizer_cov_trace_pc, symObjAddr: 0x1E20, symBinAddr: 0x100033560, symSize: 0x28 }
  - { offset: 0x1C0EF6, size: 0x8, addend: 0x0, symName: ___sanitizer_cov_trace_pc_guard_init, symObjAddr: 0x1E48, symBinAddr: 0x100033588, symSize: 0x28 }
  - { offset: 0x1C0F07, size: 0x8, addend: 0x0, symName: ___sanitizer_cov_trace_pc_guard_init, symObjAddr: 0x1E48, symBinAddr: 0x100033588, symSize: 0x28 }
  - { offset: 0x1C0F7E, size: 0x8, addend: 0x0, symName: ___sanitizer_cov_8bit_counters_init, symObjAddr: 0x1E70, symBinAddr: 0x1000335B0, symSize: 0x14 }
  - { offset: 0x1C0F8F, size: 0x8, addend: 0x0, symName: ___sanitizer_cov_8bit_counters_init, symObjAddr: 0x1E70, symBinAddr: 0x1000335B0, symSize: 0x14 }
  - { offset: 0x1C1029, size: 0x8, addend: 0x0, symName: ___sanitizer_cov_pcs_init, symObjAddr: 0x1E84, symBinAddr: 0x1000335C4, symSize: 0x64 }
  - { offset: 0x1C1061, size: 0x8, addend: 0x0, symName: ___sanitizer_cov_pcs_init, symObjAddr: 0x1E84, symBinAddr: 0x1000335C4, symSize: 0x64 }
  - { offset: 0x1C10E1, size: 0x8, addend: 0x0, symName: ___sanitizer_cov_trace_pc_indir, symObjAddr: 0x1EE8, symBinAddr: 0x100033628, symSize: 0x60 }
  - { offset: 0x1C1258, size: 0x8, addend: 0x0, symName: ___sanitizer_cov_trace_cmp8, symObjAddr: 0x1F48, symBinAddr: 0x100033688, symSize: 0x88 }
  - { offset: 0x1C139E, size: 0x8, addend: 0x0, symName: ___sanitizer_cov_trace_const_cmp8, symObjAddr: 0x1FD0, symBinAddr: 0x100033710, symSize: 0x88 }
  - { offset: 0x1C1589, size: 0x8, addend: 0x0, symName: ___sanitizer_cov_trace_cmp4, symObjAddr: 0x2058, symBinAddr: 0x100033798, symSize: 0x84 }
  - { offset: 0x1C16BD, size: 0x8, addend: 0x0, symName: ___sanitizer_cov_trace_const_cmp4, symObjAddr: 0x20DC, symBinAddr: 0x10003381C, symSize: 0x84 }
  - { offset: 0x1C185C, size: 0x8, addend: 0x0, symName: ___sanitizer_cov_trace_cmp2, symObjAddr: 0x2160, symBinAddr: 0x1000338A0, symSize: 0x70 }
  - { offset: 0x1C1978, size: 0x8, addend: 0x0, symName: ___sanitizer_cov_trace_const_cmp2, symObjAddr: 0x21D0, symBinAddr: 0x100033910, symSize: 0x70 }
  - { offset: 0x1C1AFF, size: 0x8, addend: 0x0, symName: ___sanitizer_cov_trace_cmp1, symObjAddr: 0x2240, symBinAddr: 0x100033980, symSize: 0x70 }
  - { offset: 0x1C1C1B, size: 0x8, addend: 0x0, symName: ___sanitizer_cov_trace_const_cmp1, symObjAddr: 0x22B0, symBinAddr: 0x1000339F0, symSize: 0x70 }
  - { offset: 0x1C1D37, size: 0x8, addend: 0x0, symName: ___sanitizer_cov_trace_switch, symObjAddr: 0x2320, symBinAddr: 0x100033A60, symSize: 0x2C4 }
  - { offset: 0x1C223E, size: 0x8, addend: 0x0, symName: ___sanitizer_cov_trace_div4, symObjAddr: 0x25E4, symBinAddr: 0x100033D24, symSize: 0x80 }
  - { offset: 0x1C2362, size: 0x8, addend: 0x0, symName: ___sanitizer_cov_trace_div8, symObjAddr: 0x2664, symBinAddr: 0x100033DA4, symSize: 0x84 }
  - { offset: 0x1C2508, size: 0x8, addend: 0x0, symName: ___sanitizer_cov_trace_gep, symObjAddr: 0x26E8, symBinAddr: 0x100033E28, symSize: 0x84 }
  - { offset: 0x1C2643, size: 0x8, addend: 0x0, symName: ___sanitizer_weak_hook_memcmp, symObjAddr: 0x276C, symBinAddr: 0x100033EAC, symSize: 0x44 }
  - { offset: 0x1C26C4, size: 0x8, addend: 0x0, symName: ___sanitizer_weak_hook_strncmp, symObjAddr: 0x27B0, symBinAddr: 0x100033EF0, symSize: 0xA8 }
  - { offset: 0x1C2785, size: 0x8, addend: 0x0, symName: ___sanitizer_weak_hook_strcmp, symObjAddr: 0x2858, symBinAddr: 0x100033F98, symSize: 0x74 }
  - { offset: 0x1C286E, size: 0x8, addend: 0x0, symName: ___sanitizer_weak_hook_strncasecmp, symObjAddr: 0x28CC, symBinAddr: 0x10003400C, symSize: 0xA8 }
  - { offset: 0x1C29BE, size: 0x8, addend: 0x0, symName: ___sanitizer_weak_hook_strcasecmp, symObjAddr: 0x2974, symBinAddr: 0x1000340B4, symSize: 0x74 }
  - { offset: 0x1C2AAD, size: 0x8, addend: 0x0, symName: ___sanitizer_weak_hook_strstr, symObjAddr: 0x29E8, symBinAddr: 0x100034128, symSize: 0x94 }
  - { offset: 0x1C2BAC, size: 0x8, addend: 0x0, symName: ___sanitizer_weak_hook_strcasestr, symObjAddr: 0x2A7C, symBinAddr: 0x1000341BC, symSize: 0x94 }
  - { offset: 0x1C2CAB, size: 0x8, addend: 0x0, symName: ___sanitizer_weak_hook_memmem, symObjAddr: 0x2B10, symBinAddr: 0x100034250, symSize: 0x88 }
  - { offset: 0x1C302B, size: 0x8, addend: 0x0, symName: __ZN6fuzzer7TracePCC2Ev, symObjAddr: 0x2B98, symBinAddr: 0x1000342D8, symSize: 0x17C }
  - { offset: 0x1C381F, size: 0x8, addend: 0x0, symName: __ZNSt3__112__hash_tableINS_17__hash_value_typeImmEENS_22__unordered_map_hasherImNS_4pairIKmmEENS_4hashImEENS_8equal_toImEELb1EEENS_21__unordered_map_equalImS6_SA_S8_Lb1EEENS_9allocatorIS6_EEE11__do_rehashILb1EEEvm, symObjAddr: 0x3094, symBinAddr: 0x100034778, symSize: 0x1CC }
  - { offset: 0x1C3C52, size: 0x8, addend: 0x0, symName: __GLOBAL__sub_I_FuzzerTracePC.cpp, symObjAddr: 0x32F4, symBinAddr: 0x100034964, symSize: 0x3C }
  - { offset: 0x1C5B49, size: 0x8, addend: 0x0, symName: __ZN6fuzzer6Base64ERKNSt3__16vectorIhNS0_9allocatorIhEEEE, symObjAddr: 0x1040, symBinAddr: 0x100035714, symSize: 0x23C }
  - { offset: 0x1C600A, size: 0x8, addend: 0x0, symName: __ZN6fuzzerL14SymbolizeMutexE, symObjAddr: 0x1B18, symBinAddr: 0x1000442E8, symSize: 0x0 }
  - { offset: 0x1C6018, size: 0x8, addend: 0x0, symName: __ZN6fuzzer13PrintHexArrayEPKhmPKc, symObjAddr: 0x0, symBinAddr: 0x1000349A0, symSize: 0x68 }
  - { offset: 0x1C60D5, size: 0x8, addend: 0x0, symName: __ZN6fuzzer5PrintERKNSt3__16vectorIhNS0_9allocatorIhEEEEPKc, symObjAddr: 0x68, symBinAddr: 0x100034A08, symSize: 0x68 }
  - { offset: 0x1C61AB, size: 0x8, addend: 0x0, symName: __ZN6fuzzer14PrintASCIIByteEh, symObjAddr: 0xD0, symBinAddr: 0x100034A70, symSize: 0x88 }
  - { offset: 0x1C621A, size: 0x8, addend: 0x0, symName: __ZN6fuzzer10PrintASCIIEPKhmPKc, symObjAddr: 0x158, symBinAddr: 0x100034AF8, symSize: 0xCC }
  - { offset: 0x1C62D5, size: 0x8, addend: 0x0, symName: __ZN6fuzzer10PrintASCIIERKNSt3__16vectorIhNS0_9allocatorIhEEEEPKc, symObjAddr: 0x224, symBinAddr: 0x100034BC4, symSize: 0xCC }
  - { offset: 0x1C63BB, size: 0x8, addend: 0x0, symName: __ZN6fuzzer7ToASCIIEPhm, symObjAddr: 0x2F0, symBinAddr: 0x100034C90, symSize: 0x54 }
  - { offset: 0x1C64B8, size: 0x8, addend: 0x0, symName: __ZN6fuzzer7IsASCIIERKNSt3__16vectorIhNS0_9allocatorIhEEEE, symObjAddr: 0x344, symBinAddr: 0x100034CE4, symSize: 0xA0 }
  - { offset: 0x1C65D7, size: 0x8, addend: 0x0, symName: __ZN6fuzzer7IsASCIIEPKhm, symObjAddr: 0x3E4, symBinAddr: 0x100034D84, symSize: 0xA8 }
  - { offset: 0x1C65FD, size: 0x8, addend: 0x0, symName: __ZN6fuzzer7IsASCIIEPKhm, symObjAddr: 0x3E4, symBinAddr: 0x100034D84, symSize: 0xA8 }
  - { offset: 0x1C6690, size: 0x8, addend: 0x0, symName: __ZN6fuzzer23ParseOneDictionaryEntryERKNSt3__112basic_stringIcNS0_11char_traitsIcEENS0_9allocatorIcEEEEPNS0_6vectorIhNS4_IhEEEE, symObjAddr: 0x48C, symBinAddr: 0x100034E2C, symSize: 0x4DC }
  - { offset: 0x1C7561, size: 0x8, addend: 0x0, symName: __ZN6fuzzer19ParseDictionaryFileERKNSt3__112basic_stringIcNS0_11char_traitsIcEENS0_9allocatorIcEEEEPNS0_6vectorINS9_IhNS4_IhEEEENS4_ISB_EEEE, symObjAddr: 0x968, symBinAddr: 0x100035308, symSize: 0x40C }
  - { offset: 0x1C756C, size: 0x8, addend: 0x0, symName: __ZN6fuzzer19ParseDictionaryFileERKNSt3__112basic_stringIcNS0_11char_traitsIcEENS0_9allocatorIcEEEEPNS0_6vectorINS9_IhNS4_IhEEEENS4_ISB_EEEE, symObjAddr: 0x968, symBinAddr: 0x100035308, symSize: 0x40C }
  - { offset: 0x1C834E, size: 0x8, addend: 0x0, symName: __ZN6fuzzer10DescribePCEPKcm, symObjAddr: 0x127C, symBinAddr: 0x100035950, symSize: 0x18C }
  - { offset: 0x1C88EC, size: 0x8, addend: 0x0, symName: __ZN6fuzzer7PrintPCEPKcS1_m, symObjAddr: 0x1408, symBinAddr: 0x100035ADC, symSize: 0xA8 }
  - { offset: 0x1C88F7, size: 0x8, addend: 0x0, symName: __ZN6fuzzer7PrintPCEPKcS1_m, symObjAddr: 0x1408, symBinAddr: 0x100035ADC, symSize: 0xA8 }
  - { offset: 0x1C8AE4, size: 0x8, addend: 0x0, symName: __ZN6fuzzer15PrintStackTraceEv, symObjAddr: 0x14B0, symBinAddr: 0x100035B84, symSize: 0x5C }
  - { offset: 0x1C8B80, size: 0x8, addend: 0x0, symName: __ZN6fuzzer18PrintMemoryProfileEv, symObjAddr: 0x150C, symBinAddr: 0x100035BE0, symSize: 0x64 }
  - { offset: 0x1C8C28, size: 0x8, addend: 0x0, symName: __ZN6fuzzer16NumberOfCpuCoresEv, symObjAddr: 0x1570, symBinAddr: 0x100035C44, symSize: 0x30 }
  - { offset: 0x1C8C64, size: 0x8, addend: 0x0, symName: __ZN6fuzzer14SimpleFastHashEPKvmy, symObjAddr: 0x15A0, symBinAddr: 0x100035C74, symSize: 0x20 }
  - { offset: 0x1C8CCC, size: 0x8, addend: 0x0, symName: __ZN6fuzzer14SimpleFastHashEPKvmy, symObjAddr: 0x15A0, symBinAddr: 0x100035C74, symSize: 0x20 }
  - { offset: 0x1D1AA0, size: 0x8, addend: 0x0, symName: __GLOBAL__sub_I_FuzzerUtil.cpp, symObjAddr: 0x1930, symBinAddr: 0x100035C94, symSize: 0x1C }
  - { offset: 0x1D1AB8, size: 0x8, addend: 0x0, symName: __GLOBAL__sub_I_FuzzerUtil.cpp, symObjAddr: 0x1930, symBinAddr: 0x100035C94, symSize: 0x1C }
  - { offset: 0x1D3953, size: 0x8, addend: 0x0, symName: __ZN6fuzzerL11SignalMutexE, symObjAddr: 0xBB8, symBinAddr: 0x100044328, symSize: 0x0 }
  - { offset: 0x1D3961, size: 0x8, addend: 0x0, symName: __ZN6fuzzer14ExecuteCommandERKNS_7CommandE, symObjAddr: 0x0, symBinAddr: 0x100035CB0, symSize: 0x3CC }
  - { offset: 0x1D398B, size: 0x8, addend: 0x0, symName: __MergedGlobals, symObjAddr: 0x27450, symBinAddr: 0x100078260, symSize: 0x0 }
  - { offset: 0x1D4002, size: 0x8, addend: 0x0, symName: __MergedGlobals, symObjAddr: 0x27450, symBinAddr: 0x100078260, symSize: 0x0 }
  - { offset: 0x1D401C, size: 0x8, addend: 0x0, symName: __MergedGlobals, symObjAddr: 0x27450, symBinAddr: 0x100078260, symSize: 0x0 }
  - { offset: 0x1D4038, size: 0x8, addend: 0x0, symName: __MergedGlobals, symObjAddr: 0x27450, symBinAddr: 0x100078260, symSize: 0x0 }
  - { offset: 0x1D4054, size: 0x8, addend: 0x0, symName: __MergedGlobals, symObjAddr: 0x27450, symBinAddr: 0x100078260, symSize: 0x0 }
  - { offset: 0x1D42CC, size: 0x8, addend: 0x0, symName: __ZN6fuzzer13DiscardOutputEi, symObjAddr: 0x7C4, symBinAddr: 0x10003607C, symSize: 0x54 }
  - { offset: 0x1D4343, size: 0x8, addend: 0x0, symName: __ZN6fuzzer13SetThreadNameERNSt3__16threadERKNS0_12basic_stringIcNS0_11char_traitsIcEENS0_9allocatorIcEEEE, symObjAddr: 0x818, symBinAddr: 0x1000360D0, symSize: 0x4 }
  - { offset: 0x1D9154, size: 0x8, addend: 0x0, symName: __GLOBAL__sub_I_FuzzerUtilDarwin.cpp, symObjAddr: 0xB9C, symBinAddr: 0x1000360D4, symSize: 0x1C }
  - { offset: 0x1DAB68, size: 0x8, addend: 0x0, symName: __ZN6fuzzer13DiscardOutputEi, symObjAddr: 0x7C4, symBinAddr: 0x10003607C, symSize: 0x54 }
  - { offset: 0x1DB878, size: 0x8, addend: 0x0, symName: __GLOBAL__sub_I_FuzzerUtilDarwin.cpp, symObjAddr: 0xB9C, symBinAddr: 0x1000360D4, symSize: 0x1C }
  - { offset: 0x1DB890, size: 0x8, addend: 0x0, symName: __GLOBAL__sub_I_FuzzerUtilDarwin.cpp, symObjAddr: 0xB9C, symBinAddr: 0x1000360D4, symSize: 0x1C }
  - { offset: 0x1DD564, size: 0x8, addend: 0x0, symName: __ZN6fuzzer14ExecuteCommandERKNS_7CommandEPNSt3__112basic_stringIcNS3_11char_traitsIcEENS3_9allocatorIcEEEE, symObjAddr: 0x0, symBinAddr: 0x1000360F0, symSize: 0xE0 }
  - { offset: 0x1DD58A, size: 0x8, addend: 0x0, symName: __ZN6fuzzer8PageSizeEv, symObjAddr: 0x970, symBinAddr: 0x100036668, symSize: 0x60 }
  - { offset: 0x1DD5B4, size: 0x8, addend: 0x0, symName: __MergedGlobals, symObjAddr: 0x27228, symBinAddr: 0x1000782A0, symSize: 0x0 }
  - { offset: 0x1DD5DE, size: 0x8, addend: 0x0, symName: __ZN6fuzzerL21upstream_segv_handlerE, symObjAddr: 0x27220, symBinAddr: 0x100078298, symSize: 0x0 }
  - { offset: 0x1DD5EC, size: 0x8, addend: 0x0, symName: __ZN6fuzzer14ExecuteCommandERKNS_7CommandEPNSt3__112basic_stringIcNS3_11char_traitsIcEENS3_9allocatorIcEEEE, symObjAddr: 0x0, symBinAddr: 0x1000360F0, symSize: 0xE0 }
  - { offset: 0x1DDA8E, size: 0x8, addend: 0x0, symName: __ZN6fuzzer8SetTimerEi, symObjAddr: 0x4D8, symBinAddr: 0x1000361D0, symSize: 0x7C }
  - { offset: 0x1DDB04, size: 0x8, addend: 0x0, symName: __ZN6fuzzerL12SetSigactionEiPFviP9__siginfoPvE, symObjAddr: 0x554, symBinAddr: 0x10003624C, symSize: 0xB0 }
  - { offset: 0x1DDB15, size: 0x8, addend: 0x0, symName: __ZN6fuzzerL12SetSigactionEiPFviP9__siginfoPvE, symObjAddr: 0x554, symBinAddr: 0x10003624C, symSize: 0xB0 }
  - { offset: 0x1DDBC9, size: 0x8, addend: 0x0, symName: __ZN6fuzzerL12AlarmHandlerEiP9__siginfoPv, symObjAddr: 0x604, symBinAddr: 0x1000362FC, symSize: 0x4 }
  - { offset: 0x1DDBEC, size: 0x8, addend: 0x0, symName: __ZN6fuzzerL12AlarmHandlerEiP9__siginfoPv, symObjAddr: 0x604, symBinAddr: 0x1000362FC, symSize: 0x4 }
  - { offset: 0x1DDC43, size: 0x8, addend: 0x0, symName: __ZN6fuzzer16SetSignalHandlerERKNS_14FuzzingOptionsE, symObjAddr: 0x608, symBinAddr: 0x100036300, symSize: 0x238 }
  - { offset: 0x1DDD99, size: 0x8, addend: 0x0, symName: __ZN6fuzzerL16InterruptHandlerEiP9__siginfoPv, symObjAddr: 0x840, symBinAddr: 0x100036538, symSize: 0x4 }
  - { offset: 0x1DDDAA, size: 0x8, addend: 0x0, symName: __ZN6fuzzerL16InterruptHandlerEiP9__siginfoPv, symObjAddr: 0x840, symBinAddr: 0x100036538, symSize: 0x4 }
  - { offset: 0x1DDDDD, size: 0x8, addend: 0x0, symName: __ZN6fuzzerL11SegvHandlerEiP9__siginfoPv, symObjAddr: 0x844, symBinAddr: 0x10003653C, symSize: 0x14 }
  - { offset: 0x1DDE2E, size: 0x8, addend: 0x0, symName: __ZN6fuzzerL12CrashHandlerEiP9__siginfoPv, symObjAddr: 0x858, symBinAddr: 0x100036550, symSize: 0x4 }
  - { offset: 0x1DDE61, size: 0x8, addend: 0x0, symName: __ZN6fuzzerL21FileSizeExceedHandlerEiP9__siginfoPv, symObjAddr: 0x85C, symBinAddr: 0x100036554, symSize: 0x4 }
  - { offset: 0x1DDE94, size: 0x8, addend: 0x0, symName: __ZN6fuzzerL19GracefulExitHandlerEiP9__siginfoPv, symObjAddr: 0x860, symBinAddr: 0x100036558, symSize: 0x4 }
  - { offset: 0x1DDEC7, size: 0x8, addend: 0x0, symName: __ZN6fuzzer12SleepSecondsEi, symObjAddr: 0x864, symBinAddr: 0x10003655C, symSize: 0x4 }
  - { offset: 0x1DDEF3, size: 0x8, addend: 0x0, symName: __ZN6fuzzer12SleepSecondsEi, symObjAddr: 0x864, symBinAddr: 0x10003655C, symSize: 0x4 }
  - { offset: 0x1DDF06, size: 0x8, addend: 0x0, symName: __ZN6fuzzer6GetPidEv, symObjAddr: 0x868, symBinAddr: 0x100036560, symSize: 0x18 }
  - { offset: 0x1DDF33, size: 0x8, addend: 0x0, symName: __ZN6fuzzer12GetPeakRSSMbEv, symObjAddr: 0x880, symBinAddr: 0x100036578, symSize: 0x4C }
  - { offset: 0x1DDF7A, size: 0x8, addend: 0x0, symName: __ZN6fuzzer15OpenProcessPipeEPKcS1_, symObjAddr: 0x8CC, symBinAddr: 0x1000365C4, symSize: 0x4 }
  - { offset: 0x1DDFB8, size: 0x8, addend: 0x0, symName: __ZN6fuzzer15OpenProcessPipeEPKcS1_, symObjAddr: 0x8CC, symBinAddr: 0x1000365C4, symSize: 0x4 }
  - { offset: 0x1DDFD2, size: 0x8, addend: 0x0, symName: __ZN6fuzzer16CloseProcessPipeEP7__sFILE, symObjAddr: 0x8D0, symBinAddr: 0x1000365C8, symSize: 0x4 }
  - { offset: 0x1DE002, size: 0x8, addend: 0x0, symName: __ZN6fuzzer16CloseProcessPipeEP7__sFILE, symObjAddr: 0x8D0, symBinAddr: 0x1000365C8, symSize: 0x4 }
  - { offset: 0x1DE015, size: 0x8, addend: 0x0, symName: __ZN6fuzzer12SearchMemoryEPKvmS1_m, symObjAddr: 0x8D4, symBinAddr: 0x1000365CC, symSize: 0x4 }
  - { offset: 0x1DE06F, size: 0x8, addend: 0x0, symName: __ZN6fuzzer12SearchMemoryEPKvmS1_m, symObjAddr: 0x8D4, symBinAddr: 0x1000365CC, symSize: 0x4 }
  - { offset: 0x1DE097, size: 0x8, addend: 0x0, symName: __ZN6fuzzer14DisassembleCmdERKNSt3__112basic_stringIcNS0_11char_traitsIcEENS0_9allocatorIcEEEE, symObjAddr: 0x8D8, symBinAddr: 0x1000365D0, symSize: 0x10 }
  - { offset: 0x1DE0E2, size: 0x8, addend: 0x0, symName: __ZN6fuzzer14SearchRegexCmdERKNSt3__112basic_stringIcNS0_11char_traitsIcEENS0_9allocatorIcEEEE, symObjAddr: 0x8E8, symBinAddr: 0x1000365E0, symSize: 0x88 }
  - { offset: 0x1E4976, size: 0x8, addend: 0x0, symName: __ZN6fuzzer8SetTimerEi, symObjAddr: 0x4D8, symBinAddr: 0x1000361D0, symSize: 0x7C }
  - { offset: 0x1E7425, size: 0x8, addend: 0x0, symName: _main, symObjAddr: 0x0, symBinAddr: 0x1000366C8, symSize: 0x34 }
  - { offset: 0x1E7433, size: 0x8, addend: 0x0, symName: _main, symObjAddr: 0x0, symBinAddr: 0x1000366C8, symSize: 0x34 }
...
