---
triple:          'arm64-apple-darwin'
binary-path:     '/Users/abhishek.kumar/RubymineProjects/onboarding/aixcc-afc-archive/trata/data/example-c/20251130-051254/artifacts/build/fuzzer_packet_fuzzer'
relocations:
  - { offset: 0x395, size: 0x8, addend: 0x0, symName: __ZN6fuzzer18MutationDispatcher9CrossOverEPKhmS2_mPhm, symObjAddr: 0x0, symBinAddr: 0x100000FAC, symSize: 0x1A4 }
  - { offset: 0x6886, size: 0x8, addend: 0x0, symName: __ZN6fuzzer18MutationDispatcher9CrossOverEPKhmS2_mPhm, symObjAddr: 0x0, symBinAddr: 0x100000FAC, symSize: 0x1A4 }
  - { offset: 0x8E83, size: 0x8, addend: 0x0, symName: __ZN6fuzzer13BlockCoverage14AppendCoverageERKNSt3__112basic_stringIcNS1_11char_traitsIcEENS1_9allocatorIcEEEE, symObjAddr: 0x0, symBinAddr: 0x100001150, symSize: 0x1E0 }
  - { offset: 0x8EA9, size: 0x8, addend: 0x0, symName: __ZN6fuzzer15CollectDataFlowERKNSt3__112basic_stringIcNS0_11char_traitsIcEENS0_9allocatorIcEEEES8_RKNS0_6vectorINS_9SizedFileENS4_ISA_EEEE, symObjAddr: 0x25C4, symBinAddr: 0x100003714, symSize: 0x54C }
  - { offset: 0x8ED4, size: 0x8, addend: 0x0, symName: __ZZN6fuzzer15CollectDataFlowERKNSt3__112basic_stringIcNS0_11char_traitsIcEENS0_9allocatorIcEEEES8_RKNS0_6vectorINS_9SizedFileENS4_ISA_EEEEE8DFSanEnv, symObjAddr: 0x5C7E, symBinAddr: 0x100044280, symSize: 0x0 }
  - { offset: 0xAAC0, size: 0x8, addend: 0x0, symName: __ZNK6fuzzer7Command8toStringEv, symObjAddr: 0x2B10, symBinAddr: 0x100003C60, symSize: 0x3F8 }
  - { offset: 0xECFC, size: 0x8, addend: 0x0, symName: __ZNSt3__119piecewise_constructE, symObjAddr: 0x5CA1, symBinAddr: 0x10003C050, symSize: 0x0 }
  - { offset: 0x19731, size: 0x8, addend: 0x0, symName: __ZNSt3__124__put_character_sequenceB8nn210106IcNS_11char_traitsIcEEEERNS_13basic_ostreamIT_T0_EES7_PKS4_m, symObjAddr: 0x33D8, symBinAddr: 0x100004528, symSize: 0x124 }
  - { offset: 0x25D54, size: 0x8, addend: 0x0, symName: __ZNSt3__17getlineB8nn210106IcNS_11char_traitsIcEENS_9allocatorIcEEEERNS_13basic_istreamIT_T0_EES9_RNS_12basic_stringIS6_S7_T1_EES6_, symObjAddr: 0x8E8, symBinAddr: 0x100001A38, symSize: 0x2CC }
  - { offset: 0x296B4, size: 0x8, addend: 0x0, symName: __ZNSt3__120__throw_length_errorB8nn210106EPKc, symObjAddr: 0x2F1C, symBinAddr: 0x10000406C, symSize: 0x1C }
  - { offset: 0x296E1, size: 0x8, addend: 0x0, symName: __ZSt28__throw_bad_array_new_lengthB8nn210106v, symObjAddr: 0x2F38, symBinAddr: 0x100004088, symSize: 0x14 }
  - { offset: 0x2A0A3, size: 0x8, addend: 0x0, symName: __ZNSt3__116__pad_and_outputB8nn210106IcNS_11char_traitsIcEEEENS_19ostreambuf_iteratorIT_T0_EES6_PKS4_S8_S8_RNS_8ios_baseES4_, symObjAddr: 0x34FC, symBinAddr: 0x10000464C, symSize: 0x22C }
  - { offset: 0x2A5C3, size: 0x8, addend: 0x0, symName: __ZNSt3__112basic_stringIcNS_11char_traitsIcEENS_9allocatorIcEEE20__throw_length_errorB8nn210106Ev, symObjAddr: 0x3728, symBinAddr: 0x100004878, symSize: 0x14 }
  - { offset: 0x2A67C, size: 0x8, addend: 0x0, symName: __ZNSt3__120__throw_out_of_rangeB8nn210106EPKc, symObjAddr: 0x3750, symBinAddr: 0x1000048A0, symSize: 0x1C }
  - { offset: 0x2A6A9, size: 0x8, addend: 0x0, symName: __ZNSt3__112basic_stringIcNS_11char_traitsIcEENS_9allocatorIcEEE25__init_copy_ctor_externalEPKcm, symObjAddr: 0x376C, symBinAddr: 0x1000048BC, symSize: 0x8C }
  - { offset: 0x2C301, size: 0x8, addend: 0x0, symName: __ZSt28__throw_bad_array_new_lengthB8nn210106v, symObjAddr: 0x2F38, symBinAddr: 0x100004088, symSize: 0x14 }
  - { offset: 0x2C31F, size: 0x8, addend: 0x0, symName: __ZNSt3__16vectorINS_12basic_stringIcNS_11char_traitsIcEENS_9allocatorIcEEEENS4_IS6_EEE6insertENS_11__wrap_iterIPKS6_EERSA_, symObjAddr: 0x2F4C, symBinAddr: 0x10000409C, symSize: 0x260 }
  - { offset: 0x2DEB2, size: 0x8, addend: 0x0, symName: __ZN6fuzzer13BlockCoverage14AppendCoverageERKNSt3__112basic_stringIcNS1_11char_traitsIcEENS1_9allocatorIcEEEE, symObjAddr: 0x0, symBinAddr: 0x100001150, symSize: 0x1E0 }
  - { offset: 0x2E1F4, size: 0x8, addend: 0x0, symName: __ZN6fuzzer13BlockCoverage14AppendCoverageERNSt3__113basic_istreamIcNS1_11char_traitsIcEEEE, symObjAddr: 0x1E0, symBinAddr: 0x100001330, symSize: 0x708 }
  - { offset: 0x2F5D3, size: 0x8, addend: 0x0, symName: __ZNSt3__17getlineB8nn210106IcNS_11char_traitsIcEENS_9allocatorIcEEEERNS_13basic_istreamIT_T0_EES9_RNS_12basic_stringIS6_S7_T1_EES6_, symObjAddr: 0x8E8, symBinAddr: 0x100001A38, symSize: 0x2CC }
  - { offset: 0x3018C, size: 0x8, addend: 0x0, symName: __ZNSt3__112__hash_tableImNS_4hashImEENS_8equal_toImEENS_9allocatorImEEE25__emplace_unique_key_argsImJRKmEEENS_4pairINS_15__hash_iteratorIPNS_11__hash_nodeImPvEEEEbEERKT_DpOT0_, symObjAddr: 0x39B8, symBinAddr: 0x100004B08, symSize: 0x320 }
  - { offset: 0x306CB, size: 0x8, addend: 0x0, symName: __ZNSt3__112__hash_tableINS_17__hash_value_typeImNS_6vectorIjNS_9allocatorIjEEEEEENS_22__unordered_map_hasherImNS_4pairIKmS5_EENS_4hashImEENS_8equal_toImEELb1EEENS_21__unordered_map_equalImSA_SE_SC_Lb1EEENS3_ISA_EEE25__emplace_unique_key_argsImJSA_EEENS8_INS_15__hash_iteratorIPNS_11__hash_nodeIS6_PvEEEEbEERKT_DpOT0_, symObjAddr: 0x3EB8, symBinAddr: 0x100005008, symSize: 0x338 }
  - { offset: 0x30CEA, size: 0x8, addend: 0x0, symName: __ZNSt3__16vectorIjNS_9allocatorIjEEE20__throw_length_errorB8nn210106Ev, symObjAddr: 0x3EA4, symBinAddr: 0x100004FF4, symSize: 0x14 }
  - { offset: 0x30D02, size: 0x8, addend: 0x0, symName: __ZNSt3__112__hash_tableINS_17__hash_value_typeImNS_6vectorIjNS_9allocatorIjEEEEEENS_22__unordered_map_hasherImNS_4pairIKmS5_EENS_4hashImEENS_8equal_toImEELb1EEENS_21__unordered_map_equalImSA_SE_SC_Lb1EEENS3_ISA_EEE25__emplace_unique_key_argsImJSA_EEENS8_INS_15__hash_iteratorIPNS_11__hash_nodeIS6_PvEEEEbEERKT_DpOT0_, symObjAddr: 0x3EB8, symBinAddr: 0x100005008, symSize: 0x338 }
  - { offset: 0x30D0D, size: 0x8, addend: 0x0, symName: __ZNSt3__112basic_stringIcNS_11char_traitsIcEENS_9allocatorIcEEE20__throw_length_errorB8nn210106Ev, symObjAddr: 0x3728, symBinAddr: 0x100004878, symSize: 0x14 }
  - { offset: 0x30D25, size: 0x8, addend: 0x0, symName: __ZNSt3__112basic_stringIcNS_11char_traitsIcEENS_9allocatorIcEEE20__throw_out_of_rangeB8nn210106Ev, symObjAddr: 0x373C, symBinAddr: 0x10000488C, symSize: 0x14 }
  - { offset: 0x30F46, size: 0x8, addend: 0x0, symName: __ZNSt3__112basic_stringIcNS_11char_traitsIcEENS_9allocatorIcEEE6appendB8nn210106IPKcTnNS_9enable_ifIXsr31__has_forward_iterator_categoryIT_EE5valueEiE4typeELi0EEERS5_SA_SA_, symObjAddr: 0x37F8, symBinAddr: 0x100004948, symSize: 0x1C0 }
  - { offset: 0x316B0, size: 0x8, addend: 0x0, symName: __ZNSt3__112__hash_tableImNS_4hashImEENS_8equal_toImEENS_9allocatorImEEE25__emplace_unique_key_argsImJRKmEEENS_4pairINS_15__hash_iteratorIPNS_11__hash_nodeImPvEEEEbEERKT_DpOT0_, symObjAddr: 0x39B8, symBinAddr: 0x100004B08, symSize: 0x320 }
  - { offset: 0x31BF0, size: 0x8, addend: 0x0, symName: __ZNK6fuzzer13BlockCoverage15FunctionWeightsEm, symObjAddr: 0xBB4, symBinAddr: 0x100001D04, symSize: 0x378 }
  - { offset: 0x32412, size: 0x8, addend: 0x0, symName: __ZN6fuzzer13DataFlowTrace12ReadCoverageERKNSt3__112basic_stringIcNS1_11char_traitsIcEENS1_9allocatorIcEEEE, symObjAddr: 0xF2C, symBinAddr: 0x10000207C, symSize: 0x274 }
  - { offset: 0x3241D, size: 0x8, addend: 0x0, symName: __ZNSt3__16vectorIdNS_9allocatorIdEEE20__throw_length_errorB8nn210106Ev, symObjAddr: 0x43BC, symBinAddr: 0x10000550C, symSize: 0x14 }
  - { offset: 0x32435, size: 0x8, addend: 0x0, symName: __ZNKSt3__112__hash_tableINS_12basic_stringIcNS_11char_traitsIcEENS_9allocatorIcEEEENS_4hashIS6_EENS_8equal_toIS6_EENS4_IS6_EEE4findIS6_EENS_21__hash_const_iteratorIPNS_11__hash_nodeIS6_PvEEEERKT_, symObjAddr: 0x43D0, symBinAddr: 0x100005520, symSize: 0x1DC }
  - { offset: 0x32C5A, size: 0x8, addend: 0x0, symName: __ZN6fuzzer13DataFlowTrace12ReadCoverageERKNSt3__112basic_stringIcNS1_11char_traitsIcEENS1_9allocatorIcEEEE, symObjAddr: 0xF2C, symBinAddr: 0x10000207C, symSize: 0x274 }
  - { offset: 0x33539, size: 0x8, addend: 0x0, symName: __ZN6fuzzer13DataFlowTrace4InitERKNSt3__112basic_stringIcNS1_11char_traitsIcEENS1_9allocatorIcEEEEPS7_RNS1_6vectorINS_9SizedFileENS5_ISC_EEEERNS_6RandomE, symObjAddr: 0x11A0, symBinAddr: 0x1000022F0, symSize: 0x1238 }
  - { offset: 0x33560, size: 0x8, addend: 0x0, symName: __ZNKSt3__112__hash_tableINS_12basic_stringIcNS_11char_traitsIcEENS_9allocatorIcEEEENS_4hashIS6_EENS_8equal_toIS6_EENS4_IS6_EEE4findIS6_EENS_21__hash_const_iteratorIPNS_11__hash_nodeIS6_PvEEEERKT_, symObjAddr: 0x43D0, symBinAddr: 0x100005520, symSize: 0x1DC }
  - { offset: 0x338D2, size: 0x8, addend: 0x0, symName: __ZNSt3__112basic_stringIcNS_11char_traitsIcEENS_9allocatorIcEEE20__throw_out_of_rangeB8nn210106Ev, symObjAddr: 0x373C, symBinAddr: 0x10000488C, symSize: 0x14 }
  - { offset: 0x338EA, size: 0x8, addend: 0x0, symName: __ZNSt3__120__throw_out_of_rangeB8nn210106EPKc, symObjAddr: 0x3750, symBinAddr: 0x1000048A0, symSize: 0x1C }
  - { offset: 0x347A6, size: 0x8, addend: 0x0, symName: __ZN6fuzzer13DataFlowTrace4InitERKNSt3__112basic_stringIcNS1_11char_traitsIcEENS1_9allocatorIcEEEEPS7_RNS1_6vectorINS_9SizedFileENS5_ISC_EEEERNS_6RandomE, symObjAddr: 0x11A0, symBinAddr: 0x1000022F0, symSize: 0x1238 }
  - { offset: 0x38471, size: 0x8, addend: 0x0, symName: __ZN6fuzzer13BlockCoverage24GetNumberOfCoveredBlocksEm, symObjAddr: 0x23D8, symBinAddr: 0x100003528, symSize: 0x1EC }
  - { offset: 0x38486, size: 0x8, addend: 0x0, symName: __ZNSt3__112__hash_tableINS_12basic_stringIcNS_11char_traitsIcEENS_9allocatorIcEEEENS_4hashIS6_EENS_8equal_toIS6_EENS4_IS6_EEE25__emplace_unique_key_argsIS6_JS6_EEENS_4pairINS_15__hash_iteratorIPNS_11__hash_nodeIS6_PvEEEEbEERKT_DpOT0_, symObjAddr: 0x45AC, symBinAddr: 0x1000056FC, symSize: 0x3C0 }
  - { offset: 0x38C19, size: 0x8, addend: 0x0, symName: __ZNSt3__112basic_stringIcNS_11char_traitsIcEENS_9allocatorIcEEE25__init_copy_ctor_externalEPKcm, symObjAddr: 0x376C, symBinAddr: 0x1000048BC, symSize: 0x8C }
  - { offset: 0x38DC2, size: 0x8, addend: 0x0, symName: __ZNSt3__112basic_stringIcNS_11char_traitsIcEENS_9allocatorIcEEE6appendB8nn210106IPKcTnNS_9enable_ifIXsr31__has_forward_iterator_categoryIT_EE5valueEiE4typeELi0EEERS5_SA_SA_, symObjAddr: 0x37F8, symBinAddr: 0x100004948, symSize: 0x1C0 }
  - { offset: 0x38DCD, size: 0x8, addend: 0x0, symName: __ZNSt3__131piecewise_constant_distributionIdE10param_typeC2INS_11__wrap_iterIPdEES6_EET_S7_T0_, symObjAddr: 0x4B38, symBinAddr: 0x100005C88, symSize: 0x1A4 }
  - { offset: 0x3955C, size: 0x8, addend: 0x0, symName: __ZNSt3__16vectorIdNS_9allocatorIdEEE6assignEmRKd, symObjAddr: 0x4CDC, symBinAddr: 0x100005E2C, symSize: 0x1EC }
  - { offset: 0x39579, size: 0x8, addend: 0x0, symName: __ZN6fuzzer13BlockCoverage24GetNumberOfCoveredBlocksEm, symObjAddr: 0x23D8, symBinAddr: 0x100003528, symSize: 0x1EC }
  - { offset: 0x395DC, size: 0x8, addend: 0x0, symName: __ZN6fuzzer13BlockCoverage24GetNumberOfCoveredBlocksEm, symObjAddr: 0x23D8, symBinAddr: 0x100003528, symSize: 0x1EC }
  - { offset: 0x395F7, size: 0x8, addend: 0x0, symName: __ZN6fuzzer13BlockCoverage24GetNumberOfCoveredBlocksEm, symObjAddr: 0x23D8, symBinAddr: 0x100003528, symSize: 0x1EC }
  - { offset: 0x3961C, size: 0x8, addend: 0x0, symName: __ZN6fuzzer13BlockCoverage24GetNumberOfCoveredBlocksEm, symObjAddr: 0x23D8, symBinAddr: 0x100003528, symSize: 0x1EC }
  - { offset: 0x39638, size: 0x8, addend: 0x0, symName: __ZN6fuzzer13BlockCoverage24GetNumberOfCoveredBlocksEm, symObjAddr: 0x23D8, symBinAddr: 0x100003528, symSize: 0x1EC }
  - { offset: 0x397B8, size: 0x8, addend: 0x0, symName: __ZNSt3__112__hash_tableINS_17__hash_value_typeINS_12basic_stringIcNS_11char_traitsIcEENS_9allocatorIcEEEENS_6vectorIhNS5_IhEEEEEENS_22__unordered_map_hasherIS7_NS_4pairIKS7_SA_EENS_4hashIS7_EENS_8equal_toIS7_EELb1EEENS_21__unordered_map_equalIS7_SF_SJ_SH_Lb1EEENS5_ISF_EEE25__emplace_unique_key_argsIS7_JRKNS_21piecewise_construct_tENS_5tupleIJRSE_EEENST_IJEEEEEENSD_INS_15__hash_iteratorIPNS_11__hash_nodeISB_PvEEEEbEERKT_DpOT0_, symObjAddr: 0x53B0, symBinAddr: 0x100006500, symSize: 0x3DC }
  - { offset: 0x3A068, size: 0x8, addend: 0x0, symName: __ZNSt3__16vectorINS_12basic_stringIcNS_11char_traitsIcEENS_9allocatorIcEEEENS4_IS6_EEE20__throw_length_errorB8nn210106Ev, symObjAddr: 0x33C4, symBinAddr: 0x100004514, symSize: 0x14 }
  - { offset: 0x3A080, size: 0x8, addend: 0x0, symName: __ZNSt3__124__put_character_sequenceB8nn210106IcNS_11char_traitsIcEEEERNS_13basic_ostreamIT_T0_EES7_PKS4_m, symObjAddr: 0x33D8, symBinAddr: 0x100004528, symSize: 0x124 }
  - { offset: 0x3A08B, size: 0x8, addend: 0x0, symName: __ZNSt3__16vectorIhNS_9allocatorIhEEE20__throw_length_errorB8nn210106Ev, symObjAddr: 0x2F08, symBinAddr: 0x100004058, symSize: 0x14 }
  - { offset: 0x3A0A3, size: 0x8, addend: 0x0, symName: __ZNSt3__120__throw_length_errorB8nn210106EPKc, symObjAddr: 0x2F1C, symBinAddr: 0x10000406C, symSize: 0x1C }
  - { offset: 0x3A24E, size: 0x8, addend: 0x0, symName: __ZNSt3__16vectorINS_12basic_stringIcNS_11char_traitsIcEENS_9allocatorIcEEEENS4_IS6_EEE6insertENS_11__wrap_iterIPKS6_EERSA_, symObjAddr: 0x2F4C, symBinAddr: 0x10000409C, symSize: 0x260 }
  - { offset: 0x3AAD5, size: 0x8, addend: 0x0, symName: __ZNSt3__114__split_bufferINS_12basic_stringIcNS_11char_traitsIcEENS_9allocatorIcEEEERNS4_IS6_EEE12emplace_backIJRKS6_EEEvDpOT_, symObjAddr: 0x31AC, symBinAddr: 0x1000042FC, symSize: 0x218 }
  - { offset: 0x3AAE0, size: 0x8, addend: 0x0, symName: __ZNK6fuzzer7Command8toStringEv, symObjAddr: 0x2B10, symBinAddr: 0x100003C60, symSize: 0x3F8 }
  - { offset: 0x3B78F, size: 0x8, addend: 0x0, symName: __ZNSt3__16vectorIhNS_9allocatorIhEEE20__throw_length_errorB8nn210106Ev, symObjAddr: 0x2F08, symBinAddr: 0x100004058, symSize: 0x14 }
  - { offset: 0x3BD4A, size: 0x8, addend: 0x0, symName: __ZNSt3__114__split_bufferINS_12basic_stringIcNS_11char_traitsIcEENS_9allocatorIcEEEERNS4_IS6_EEE12emplace_backIJRKS6_EEEvDpOT_, symObjAddr: 0x31AC, symBinAddr: 0x1000042FC, symSize: 0x218 }
  - { offset: 0x3C540, size: 0x8, addend: 0x0, symName: __ZNSt3__16vectorINS_12basic_stringIcNS_11char_traitsIcEENS_9allocatorIcEEEENS4_IS6_EEE20__throw_length_errorB8nn210106Ev, symObjAddr: 0x33C4, symBinAddr: 0x100004514, symSize: 0x14 }
  - { offset: 0x3CDE6, size: 0x8, addend: 0x0, symName: __ZNSt3__112__hash_tableImNS_4hashImEENS_8equal_toImEENS_9allocatorImEEE11__do_rehashILb1EEEvm, symObjAddr: 0x3CD8, symBinAddr: 0x100004E28, symSize: 0x1CC }
  - { offset: 0x3D164, size: 0x8, addend: 0x0, symName: __ZNSt3__16vectorIjNS_9allocatorIjEEE20__throw_length_errorB8nn210106Ev, symObjAddr: 0x3EA4, symBinAddr: 0x100004FF4, symSize: 0x14 }
  - { offset: 0x3D4C8, size: 0x8, addend: 0x0, symName: __ZNSt3__112__hash_tableINS_17__hash_value_typeImNS_6vectorIjNS_9allocatorIjEEEEEENS_22__unordered_map_hasherImNS_4pairIKmS5_EENS_4hashImEENS_8equal_toImEELb1EEENS_21__unordered_map_equalImSA_SE_SC_Lb1EEENS3_ISA_EEE11__do_rehashILb1EEEvm, symObjAddr: 0x41F0, symBinAddr: 0x100005340, symSize: 0x1CC }
  - { offset: 0x3D846, size: 0x8, addend: 0x0, symName: __ZNSt3__16vectorIdNS_9allocatorIdEEE20__throw_length_errorB8nn210106Ev, symObjAddr: 0x43BC, symBinAddr: 0x10000550C, symSize: 0x14 }
  - { offset: 0x3DC2D, size: 0x8, addend: 0x0, symName: __ZNSt3__112__hash_tableINS_12basic_stringIcNS_11char_traitsIcEENS_9allocatorIcEEEENS_4hashIS6_EENS_8equal_toIS6_EENS4_IS6_EEE11__do_rehashILb1EEEvm, symObjAddr: 0x496C, symBinAddr: 0x100005ABC, symSize: 0x1CC }
  - { offset: 0x3DFAB, size: 0x8, addend: 0x0, symName: __ZNSt3__131piecewise_constant_distributionIdE10param_typeC2INS_11__wrap_iterIPdEES6_EET_S7_T0_, symObjAddr: 0x4B38, symBinAddr: 0x100005C88, symSize: 0x1A4 }
  - { offset: 0x3E455, size: 0x8, addend: 0x0, symName: __ZNSt3__16vectorIdNS_9allocatorIdEEE8__appendEm, symObjAddr: 0x5204, symBinAddr: 0x100006354, symSize: 0x1AC }
  - { offset: 0x3E87D, size: 0x8, addend: 0x0, symName: __ZNSt3__112__hash_tableINS_17__hash_value_typeINS_12basic_stringIcNS_11char_traitsIcEENS_9allocatorIcEEEENS_6vectorIhNS5_IhEEEEEENS_22__unordered_map_hasherIS7_NS_4pairIKS7_SA_EENS_4hashIS7_EENS_8equal_toIS7_EELb1EEENS_21__unordered_map_equalIS7_SF_SJ_SH_Lb1EEENS5_ISF_EEE25__emplace_unique_key_argsIS7_JRKNS_21piecewise_construct_tENS_5tupleIJRSE_EEENST_IJEEEEEENSD_INS_15__hash_iteratorIPNS_11__hash_nodeISB_PvEEEEbEERKT_DpOT0_, symObjAddr: 0x53B0, symBinAddr: 0x100006500, symSize: 0x3DC }
  - { offset: 0x3E888, size: 0x8, addend: 0x0, symName: __ZNSt3__16vectorIdNS_9allocatorIdEEE6assignEmRKd, symObjAddr: 0x4CDC, symBinAddr: 0x100005E2C, symSize: 0x1EC }
  - { offset: 0x3ED4D, size: 0x8, addend: 0x0, symName: __ZNSt3__16vectorIdNS_9allocatorIdEEE9push_backB8nn210106ERKd, symObjAddr: 0x4EC8, symBinAddr: 0x100006018, symSize: 0xF8 }
  - { offset: 0x3ED58, size: 0x8, addend: 0x0, symName: __ZNSt3__16vectorIdNS_9allocatorIdEEE9push_backB8nn210106ERKd, symObjAddr: 0x4EC8, symBinAddr: 0x100006018, symSize: 0xF8 }
  - { offset: 0x3F16F, size: 0x8, addend: 0x0, symName: __ZNSt3__131piecewise_constant_distributionIdE10param_type6__initEv, symObjAddr: 0x4FC0, symBinAddr: 0x100006110, symSize: 0x244 }
  - { offset: 0x3F17A, size: 0x8, addend: 0x0, symName: __ZNSt3__131piecewise_constant_distributionIdE10param_type6__initEv, symObjAddr: 0x4FC0, symBinAddr: 0x100006110, symSize: 0x244 }
  - { offset: 0x3FB2D, size: 0x8, addend: 0x0, symName: __ZNSt3__112__hash_tableINS_17__hash_value_typeINS_12basic_stringIcNS_11char_traitsIcEENS_9allocatorIcEEEENS_6vectorIhNS5_IhEEEEEENS_22__unordered_map_hasherIS7_NS_4pairIKS7_SA_EENS_4hashIS7_EENS_8equal_toIS7_EELb1EEENS_21__unordered_map_equalIS7_SF_SJ_SH_Lb1EEENS5_ISF_EEE11__do_rehashILb1EEEvm, symObjAddr: 0x578C, symBinAddr: 0x1000068DC, symSize: 0x1CC }
  - { offset: 0x41C71, size: 0x8, addend: 0x0, symName: __ZN6fuzzerL2MuE, symObjAddr: 0x99A8, symBinAddr: 0x1000442A8, symSize: 0x0 }
  - { offset: 0x41C8C, size: 0x8, addend: 0x0, symName: __ZN6fuzzer2EFE, symObjAddr: 0x148CD0, symBinAddr: 0x100044400, symSize: 0x0 }
  - { offset: 0x41DAD, size: 0x8, addend: 0x0, symName: __MergedGlobals, symObjAddr: 0x148CD8, symBinAddr: 0x100078008, symSize: 0x0 }
  - { offset: 0x421D5, size: 0x8, addend: 0x0, symName: __MergedGlobals, symObjAddr: 0x148CD8, symBinAddr: 0x100078008, symSize: 0x0 }
  - { offset: 0x421F1, size: 0x8, addend: 0x0, symName: __MergedGlobals, symObjAddr: 0x148CD8, symBinAddr: 0x100078008, symSize: 0x0 }
  - { offset: 0x4221A, size: 0x8, addend: 0x0, symName: __ZN6fuzzerL16FlagDescriptionsE, symObjAddr: 0xCA08, symBinAddr: 0x100040558, symSize: 0x0 }
  - { offset: 0x43D34, size: 0x8, addend: 0x0, symName: __ZN6fuzzer17CloneArgsWithoutXERKNSt3__16vectorINS0_12basic_stringIcNS0_11char_traitsIcEENS0_9allocatorIcEEEENS5_IS7_EEEEPKcSD_, symObjAddr: 0x4, symBinAddr: 0x100006AAC, symSize: 0x244 }
  - { offset: 0x44597, size: 0x8, addend: 0x0, symName: __ZN6fuzzer10RunOneTestEPNS_6FuzzerEPKcm, symObjAddr: 0x248, symBinAddr: 0x100006CF0, symSize: 0x160 }
  - { offset: 0x445A2, size: 0x8, addend: 0x0, symName: __ZN6fuzzer10RunOneTestEPNS_6FuzzerEPKcm, symObjAddr: 0x248, symBinAddr: 0x100006CF0, symSize: 0x160 }
  - { offset: 0x44BAC, size: 0x8, addend: 0x0, symName: __ZNSt3__112basic_stringIcNS_11char_traitsIcEENS_9allocatorIcEEEC1B8nn210106ILi0EEEPKc, symObjAddr: 0x3A8, symBinAddr: 0x100006E50, symSize: 0xA8 }
  - { offset: 0x44BD6, size: 0x8, addend: 0x0, symName: __ZN6fuzzer17CleanseCrashInputERKNSt3__16vectorINS0_12basic_stringIcNS0_11char_traitsIcEENS0_9allocatorIcEEEENS5_IS7_EEEERKNS_14FuzzingOptionsE, symObjAddr: 0x450, symBinAddr: 0x100006EF8, symSize: 0x9D4 }
  - { offset: 0x46BEF, size: 0x8, addend: 0x0, symName: __ZN6fuzzer7Command10removeFlagERKNSt3__112basic_stringIcNS1_11char_traitsIcEENS1_9allocatorIcEEEE, symObjAddr: 0xE24, symBinAddr: 0x1000078CC, symSize: 0x21C }
  - { offset: 0x46C71, size: 0x8, addend: 0x0, symName: __ZN6fuzzer18MinimizeCrashInputERKNSt3__16vectorINS0_12basic_stringIcNS0_11char_traitsIcEENS0_9allocatorIcEEEENS5_IS7_EEEERKNS_14FuzzingOptionsE, symObjAddr: 0x11F0, symBinAddr: 0x100007C98, symSize: 0xEEC }
  - { offset: 0x4B2E8, size: 0x8, addend: 0x0, symName: __ZN6fuzzer7Command7addFlagERKNSt3__112basic_stringIcNS1_11char_traitsIcEENS1_9allocatorIcEEEES9_, symObjAddr: 0x20DC, symBinAddr: 0x100008B84, symSize: 0x1A8 }
  - { offset: 0x4B30D, size: 0x8, addend: 0x0, symName: __ZN6fuzzerL26GetDedupTokenFromCmdOutputERKNSt3__112basic_stringIcNS0_11char_traitsIcEENS0_9allocatorIcEEEE, symObjAddr: 0x267C, symBinAddr: 0x100008D2C, symSize: 0x240 }
  - { offset: 0x4BA3E, size: 0x8, addend: 0x0, symName: __ZN6fuzzer30MinimizeCrashInputInternalStepEPNS_6FuzzerEPNS_11InputCorpusE, symObjAddr: 0x28BC, symBinAddr: 0x100008F6C, symSize: 0xFC }
  - { offset: 0x4BA5E, size: 0x8, addend: 0x0, symName: __ZN6fuzzer30MinimizeCrashInputInternalStepEPNS_6FuzzerEPNS_11InputCorpusE, symObjAddr: 0x28BC, symBinAddr: 0x100008F6C, symSize: 0xFC }
  - { offset: 0x4BC6B, size: 0x8, addend: 0x0, symName: __ZN6fuzzer5MergeEPNS_6FuzzerERNS_14FuzzingOptionsERKNSt3__16vectorINS4_12basic_stringIcNS4_11char_traitsIcEENS4_9allocatorIcEEEENS9_ISB_EEEESF_PKc, symObjAddr: 0x29B8, symBinAddr: 0x100009068, symSize: 0x334 }
  - { offset: 0x4BC7C, size: 0x8, addend: 0x0, symName: __ZN6fuzzer5MergeEPNS_6FuzzerERNS_14FuzzingOptionsERKNSt3__16vectorINS4_12basic_stringIcNS4_11char_traitsIcEENS4_9allocatorIcEEEENS9_ISB_EEEESF_PKc, symObjAddr: 0x29B8, symBinAddr: 0x100009068, symSize: 0x334 }
  - { offset: 0x4CAAA, size: 0x8, addend: 0x0, symName: __ZN6fuzzer17AnalyzeDictionaryEPNS_6FuzzerERKNSt3__16vectorINS3_IhNS2_9allocatorIhEEEENS4_IS6_EEEERS8_, symObjAddr: 0x2CEC, symBinAddr: 0x10000939C, symSize: 0x698 }
  - { offset: 0x4CB14, size: 0x8, addend: 0x0, symName: __ZN6fuzzer17AnalyzeDictionaryEPNS_6FuzzerERKNSt3__16vectorINS3_IhNS2_9allocatorIhEEEENS4_IS6_EEEERS8_, symObjAddr: 0x2CEC, symBinAddr: 0x10000939C, symSize: 0x698 }
  - { offset: 0x4E0B9, size: 0x8, addend: 0x0, symName: '__ZNK6fuzzer7TracePC15CollectFeaturesIZNS_17AnalyzeDictionaryEPNS_6FuzzerERKNSt3__16vectorINS5_IhNS4_9allocatorIhEEEENS6_IS8_EEEERSA_E3$_0EEmT_', symObjAddr: 0x3384, symBinAddr: 0x100009A34, symSize: 0x290 }
  - { offset: 0x4E7EA, size: 0x8, addend: 0x0, symName: '__ZN6fuzzer18ForEachNonZeroByteIZNKS_7TracePC15CollectFeaturesIZNS_17AnalyzeDictionaryEPNS_6FuzzerERKNSt3__16vectorINS6_IhNS5_9allocatorIhEEEENS7_IS9_EEEERSB_E3$_0EEmT_EUlmmhE_EEmPKhSJ_mSG_', symObjAddr: 0x8F70, symBinAddr: 0x10000ED30, symSize: 0x3D8 }
  - { offset: 0x4ECD8, size: 0x8, addend: 0x0, symName: __ZNSt3__16vectorImNS_9allocatorImEEE9push_backB8nn210106ERKm, symObjAddr: 0x9348, symBinAddr: 0x10000F108, symSize: 0xF8 }
  - { offset: 0x4ED0A, size: 0x8, addend: 0x0, symName: '__ZN6fuzzer18ForEachNonZeroByteIZNKS_7TracePC15CollectFeaturesIZNS_17AnalyzeDictionaryEPNS_6FuzzerERKNSt3__16vectorINS6_IhNS5_9allocatorIhEEEENS7_IS9_EEEERSB_E3$_1EEmT_EUlmmhE_EEmPKhSJ_mSG_', symObjAddr: 0x9454, symBinAddr: 0x10000F214, symSize: 0x3D8 }
  - { offset: 0x4F1F8, size: 0x8, addend: 0x0, symName: __ZNSt3__16vectorINS_12basic_stringIcNS_11char_traitsIcEENS_9allocatorIcEEEENS4_IS6_EEE16__init_with_sizeB8nn210106IPPcSB_EEvT_T0_m, symObjAddr: 0x982C, symBinAddr: 0x10000F5EC, symSize: 0x118 }
  - { offset: 0x4F20C, size: 0x8, addend: 0x0, symName: __ZN6fuzzer14ParseSeedInutsEPKc, symObjAddr: 0x38A4, symBinAddr: 0x100009F54, symSize: 0x49C }
  - { offset: 0x5061C, size: 0x8, addend: 0x0, symName: __ZNSt3__16vectorINS_12basic_stringIcNS_11char_traitsIcEENS_9allocatorIcEEEENS4_IS6_EEE9push_backB8nn210106EOS6_, symObjAddr: 0x3D40, symBinAddr: 0x10000A3F0, symSize: 0x140 }
  - { offset: 0x508D6, size: 0x8, addend: 0x0, symName: __ZN6fuzzer12FuzzerDriverEPiPPPcPFiPKhmE, symObjAddr: 0x3F00, symBinAddr: 0x10000A5B0, symSize: 0x1F54 }
  - { offset: 0x569F2, size: 0x8, addend: 0x0, symName: __ZN6fuzzerL23ValidateDirectoryExistsERKNSt3__112basic_stringIcNS0_11char_traitsIcEENS0_9allocatorIcEEEEb, symObjAddr: 0x5E54, symBinAddr: 0x10000C504, symSize: 0xBC }
  - { offset: 0x56A47, size: 0x8, addend: 0x0, symName: __ZN6fuzzerL23ValidateDirectoryExistsERKNSt3__112basic_stringIcNS0_11char_traitsIcEENS0_9allocatorIcEEEEb, symObjAddr: 0x5E54, symBinAddr: 0x10000C504, symSize: 0xBC }
  - { offset: 0x56C35, size: 0x8, addend: 0x0, symName: __ZN6fuzzerL11ReadCorporaERKNSt3__16vectorINS0_12basic_stringIcNS0_11char_traitsIcEENS0_9allocatorIcEEEENS5_IS7_EEEESB_, symObjAddr: 0x5F10, symBinAddr: 0x10000C5C0, symSize: 0x188 }
  - { offset: 0x56CC0, size: 0x8, addend: 0x0, symName: __ZN6fuzzerL11ReadCorporaERKNSt3__16vectorINS0_12basic_stringIcNS0_11char_traitsIcEENS0_9allocatorIcEEEENS5_IS7_EEEESB_, symObjAddr: 0x5F10, symBinAddr: 0x10000C5C0, symSize: 0x188 }
  - { offset: 0x57323, size: 0x8, addend: 0x0, symName: __ZN6fuzzerL11PulseThreadEv, symObjAddr: 0x6CF4, symBinAddr: 0x10000CB54, symSize: 0x40 }
  - { offset: 0x5741C, size: 0x8, addend: 0x0, symName: __ZN6fuzzerL12WorkerThreadERKNS_7CommandEPNSt3__16atomicIjEEjPNS4_IbEE, symObjAddr: 0x6D34, symBinAddr: 0x10000CB94, symSize: 0x2D0 }
  - { offset: 0x580E3, size: 0x8, addend: 0x0, symName: __ZN6fuzzerL9RssThreadEPNS_6FuzzerEm, symObjAddr: 0x764C, symBinAddr: 0x10000D4AC, symSize: 0x34 }
  - { offset: 0x704F1, size: 0x8, addend: 0x0, symName: __ZNSt3__111__introsortINS_17_ClassicAlgPolicyERNS_6__lessIvvEEPN6fuzzer9SizedFileELb0EEEvT1_S8_T0_NS_15iterator_traitsIS8_E15difference_typeEb, symObjAddr: 0x7A50, symBinAddr: 0x10000D810, symSize: 0x528 }
  - { offset: 0x71405, size: 0x8, addend: 0x0, symName: __ZNSt3__111__sift_downB8nn210106INS_17_ClassicAlgPolicyERNS_6__lessIvvEEPN6fuzzer9SizedFileEEEvT1_OT0_NS_15iterator_traitsIS8_E15difference_typeES8_, symObjAddr: 0x8B50, symBinAddr: 0x10000E910, symSize: 0x178 }
  - { offset: 0x718CF, size: 0x8, addend: 0x0, symName: __ZNSt3__131__partition_with_equals_on_leftB8nn210106INS_17_ClassicAlgPolicyEPN6fuzzer9SizedFileERNS_6__lessIvvEEEET0_S8_S8_T1_, symObjAddr: 0x8598, symBinAddr: 0x10000E358, symSize: 0x1AC }
  - { offset: 0x72038, size: 0x8, addend: 0x0, symName: __ZNSt3__132__partition_with_equals_on_rightB8nn210106INS_17_ClassicAlgPolicyEPN6fuzzer9SizedFileERNS_6__lessIvvEEEENS_4pairIT0_bEES9_S9_T1_, symObjAddr: 0x8744, symBinAddr: 0x10000E504, symSize: 0x1B8 }
  - { offset: 0x727AC, size: 0x8, addend: 0x0, symName: __ZNSt3__127__insertion_sort_incompleteB8nn210106INS_17_ClassicAlgPolicyERNS_6__lessIvvEEPN6fuzzer9SizedFileEEEbT1_S8_T0_, symObjAddr: 0x88FC, symBinAddr: 0x10000E6BC, symSize: 0x254 }
  - { offset: 0x76F95, size: 0x8, addend: 0x0, symName: __ZNSt3__19remove_ifB8nn210106INS_11__wrap_iterIPNS_12basic_stringIcNS_11char_traitsIcEENS_9allocatorIcEEEEEEZN6fuzzer7Command10removeFlagERKS7_EUlSD_E_EET_SF_SF_T0_, symObjAddr: 0x6164, symBinAddr: 0x10000C7D0, symSize: 0x134 }
  - { offset: 0x77621, size: 0x8, addend: 0x0, symName: __ZNSt3__16removeB8nn210106INS_11__wrap_iterIPNS_12basic_stringIcNS_11char_traitsIcEENS_9allocatorIcEEEEEES7_EET_SA_SA_RKT0_, symObjAddr: 0x62C8, symBinAddr: 0x10000C904, symSize: 0x140 }
  - { offset: 0x7CEAF, size: 0x8, addend: 0x0, symName: __ZNSt3__16removeB8nn210106INS_11__wrap_iterIPNS_12basic_stringIcNS_11char_traitsIcEENS_9allocatorIcEEEEEES7_EET_SA_SA_RKT0_, symObjAddr: 0x62C8, symBinAddr: 0x10000C904, symSize: 0x140 }
  - { offset: 0x7D870, size: 0x8, addend: 0x0, symName: __ZNSt3__114__thread_proxyB8nn210106INS_5tupleIJNS_10unique_ptrINS_15__thread_structENS_14default_deleteIS3_EEEEPFvvEEEEEEPvSA_, symObjAddr: 0x7004, symBinAddr: 0x10000CE64, symSize: 0x60 }
  - { offset: 0x7DDB9, size: 0x8, addend: 0x0, symName: __ZNSt3__114__thread_proxyB8nn210106INS_5tupleIJNS_10unique_ptrINS_15__thread_structENS_14default_deleteIS3_EEEEPFvRKN6fuzzer7CommandEPNS_6atomicIjEEjPNSB_IbEEENS_17reference_wrapperIS8_EESD_jSF_EEEEEPvSL_, symObjAddr: 0x72F8, symBinAddr: 0x10000D158, symSize: 0x6C }
  - { offset: 0x7E33E, size: 0x8, addend: 0x0, symName: __ZNSt3__114__thread_proxyB8nn210106INS_5tupleIJNS_10unique_ptrINS_15__thread_structENS_14default_deleteIS3_EEEEPFvPN6fuzzer6FuzzerEmES9_mEEEEEPvSD_, symObjAddr: 0x7680, symBinAddr: 0x10000D4E0, symSize: 0x64 }
  - { offset: 0x7E9C9, size: 0x8, addend: 0x0, symName: __ZNSt3__17__sort3B8nn210106INS_17_ClassicAlgPolicyERNS_6__lessIvvEEPN6fuzzer9SizedFileETnNS_9enable_ifIXnt21__use_branchless_sortIT0_T1_EEiE4typeELi0EEEbSA_SA_SA_S9_, symObjAddr: 0x7F78, symBinAddr: 0x10000DD38, symSize: 0x298 }
  - { offset: 0x7F624, size: 0x8, addend: 0x0, symName: __ZNSt3__17__sort5B8nn210106INS_17_ClassicAlgPolicyERNS_6__lessIvvEEPN6fuzzer9SizedFileETnNS_9enable_ifIXnt21__use_branchless_sortIT0_T1_EEiE4typeELi0EEEvSA_SA_SA_SA_SA_S9_, symObjAddr: 0x83A8, symBinAddr: 0x10000E168, symSize: 0x1F0 }
  - { offset: 0x80233, size: 0x8, addend: 0x0, symName: __ZNSt3__17__sort4B8nn210106INS_17_ClassicAlgPolicyERNS_6__lessIvvEEPN6fuzzer9SizedFileETnNS_9enable_ifIXnt21__use_branchless_sortIT0_T1_EEiE4typeELi0EEEvSA_SA_SA_SA_S9_, symObjAddr: 0x8210, symBinAddr: 0x10000DFD0, symSize: 0x198 }
  - { offset: 0x80B53, size: 0x8, addend: 0x0, symName: __ZNSt3__110__pop_heapB8nn210106INS_17_ClassicAlgPolicyENS_6__lessIvvEEPN6fuzzer9SizedFileEEEvT1_S7_RT0_NS_15iterator_traitsIS7_E15difference_typeE, symObjAddr: 0x8CC8, symBinAddr: 0x10000EA88, symSize: 0x24C }
  - { offset: 0x8273D, size: 0x8, addend: 0x0, symName: __ZNSt3__19remove_ifB8nn210106INS_11__wrap_iterIPNS_12basic_stringIcNS_11char_traitsIcEENS_9allocatorIcEEEEEEZN6fuzzer7Command10removeFlagERKS7_EUlSD_E_EET_SF_SF_T0_, symObjAddr: 0x6164, symBinAddr: 0x10000C7D0, symSize: 0x134 }
  - { offset: 0x84561, size: 0x8, addend: 0x0, symName: ___libfuzzer_is_present, symObjAddr: 0x0, symBinAddr: 0x100006AA8, symSize: 0x4 }
  - { offset: 0x849C1, size: 0x8, addend: 0x0, symName: __ZN6fuzzerL11PulseThreadEv, symObjAddr: 0x6CF4, symBinAddr: 0x10000CB54, symSize: 0x40 }
  - { offset: 0x84C18, size: 0x8, addend: 0x0, symName: __ZNSt3__112basic_stringIcNS_11char_traitsIcEENS_9allocatorIcEEEC1B8nn210106ILi0EEEPKc, symObjAddr: 0x3A8, symBinAddr: 0x100006E50, symSize: 0xA8 }
  - { offset: 0x84E6C, size: 0x8, addend: 0x0, symName: __ZN6fuzzer17CleanseCrashInputERKNSt3__16vectorINS0_12basic_stringIcNS0_11char_traitsIcEENS0_9allocatorIcEEEENS5_IS7_EEEERKNS_14FuzzingOptionsE, symObjAddr: 0x450, symBinAddr: 0x100006EF8, symSize: 0x9D4 }
  - { offset: 0x857B4, size: 0x8, addend: 0x0, symName: __ZNSt3__16vectorINS_12basic_stringIcNS_11char_traitsIcEENS_9allocatorIcEEEENS4_IS6_EEE24__emplace_back_slow_pathIJRKS6_EEEPS6_DpOT_, symObjAddr: 0x78F8, symBinAddr: 0x10000D6CC, symSize: 0x130 }
  - { offset: 0x857BF, size: 0x8, addend: 0x0, symName: __ZN6fuzzer7Command10removeFlagERKNSt3__112basic_stringIcNS1_11char_traitsIcEENS1_9allocatorIcEEEE, symObjAddr: 0xE24, symBinAddr: 0x1000078CC, symSize: 0x21C }
  - { offset: 0x8602C, size: 0x8, addend: 0x0, symName: __ZN6fuzzer7Command14removeArgumentERKNSt3__112basic_stringIcNS1_11char_traitsIcEENS1_9allocatorIcEEEE, symObjAddr: 0x1040, symBinAddr: 0x100007AE8, symSize: 0x1B0 }
  - { offset: 0x86062, size: 0x8, addend: 0x0, symName: __ZN6fuzzer7Command14removeArgumentERKNSt3__112basic_stringIcNS1_11char_traitsIcEENS1_9allocatorIcEEEE, symObjAddr: 0x1040, symBinAddr: 0x100007AE8, symSize: 0x1B0 }
  - { offset: 0x86636, size: 0x8, addend: 0x0, symName: __ZN6fuzzer18MinimizeCrashInputERKNSt3__16vectorINS0_12basic_stringIcNS0_11char_traitsIcEENS0_9allocatorIcEEEENS5_IS7_EEEERKNS_14FuzzingOptionsE, symObjAddr: 0x11F0, symBinAddr: 0x100007C98, symSize: 0xEEC }
  - { offset: 0x86BE2, size: 0x8, addend: 0x0, symName: __ZNSt3__16vectorINS_12basic_stringIcNS_11char_traitsIcEENS_9allocatorIcEEEENS4_IS6_EEE20__throw_out_of_rangeB8nn210106Ev, symObjAddr: 0x7A3C, symBinAddr: 0x10000D7FC, symSize: 0x14 }
  - { offset: 0x86BFA, size: 0x8, addend: 0x0, symName: __ZNSt3__111__introsortINS_17_ClassicAlgPolicyERNS_6__lessIvvEEPN6fuzzer9SizedFileELb0EEEvT1_S8_T0_NS_15iterator_traitsIS8_E15difference_typeEb, symObjAddr: 0x7A50, symBinAddr: 0x10000D810, symSize: 0x528 }
  - { offset: 0x86E6A, size: 0x8, addend: 0x0, symName: __ZN6fuzzer7Command7addFlagERKNSt3__112basic_stringIcNS1_11char_traitsIcEENS1_9allocatorIcEEEES9_, symObjAddr: 0x20DC, symBinAddr: 0x100008B84, symSize: 0x1A8 }
  - { offset: 0x87D51, size: 0x8, addend: 0x0, symName: __ZN6fuzzerL26GetDedupTokenFromCmdOutputERKNSt3__112basic_stringIcNS0_11char_traitsIcEENS0_9allocatorIcEEEE, symObjAddr: 0x267C, symBinAddr: 0x100008D2C, symSize: 0x240 }
  - { offset: 0x8845B, size: 0x8, addend: 0x0, symName: __ZNSt3__16__treeIjNS_4lessIjEENS_9allocatorIjEEE7destroyEPNS_11__tree_nodeIjPvEE, symObjAddr: 0x8F14, symBinAddr: 0x10000ECD4, symSize: 0x48 }
  - { offset: 0x88FDC, size: 0x8, addend: 0x0, symName: '__ZNK6fuzzer7TracePC15CollectFeaturesIZNS_17AnalyzeDictionaryEPNS_6FuzzerERKNSt3__16vectorINS5_IhNS4_9allocatorIhEEEENS6_IS8_EEEERSA_E3$_0EEmT_', symObjAddr: 0x3384, symBinAddr: 0x100009A34, symSize: 0x290 }
  - { offset: 0x89621, size: 0x8, addend: 0x0, symName: '__ZNK6fuzzer7TracePC15CollectFeaturesIZNS_17AnalyzeDictionaryEPNS_6FuzzerERKNSt3__16vectorINS5_IhNS4_9allocatorIhEEEENS6_IS8_EEEERSA_E3$_1EEmT_', symObjAddr: 0x3614, symBinAddr: 0x100009CC4, symSize: 0x290 }
  - { offset: 0x89672, size: 0x8, addend: 0x0, symName: '__ZNK6fuzzer7TracePC15CollectFeaturesIZNS_17AnalyzeDictionaryEPNS_6FuzzerERKNSt3__16vectorINS5_IhNS4_9allocatorIhEEEENS6_IS8_EEEERSA_E3$_1EEmT_', symObjAddr: 0x3614, symBinAddr: 0x100009CC4, symSize: 0x290 }
  - { offset: 0x89CB7, size: 0x8, addend: 0x0, symName: __ZN6fuzzer14ParseSeedInutsEPKc, symObjAddr: 0x38A4, symBinAddr: 0x100009F54, symSize: 0x49C }
  - { offset: 0x89D12, size: 0x8, addend: 0x0, symName: __ZNSt3__16vectorINS_12basic_stringIcNS_11char_traitsIcEENS_9allocatorIcEEEENS4_IS6_EEE20__throw_out_of_rangeB8nn210106Ev, symObjAddr: 0x7A3C, symBinAddr: 0x10000D7FC, symSize: 0x14 }
  - { offset: 0x89D1D, size: 0x8, addend: 0x0, symName: __ZNSt3__16vectorIiNS_9allocatorIiEEE20__throw_length_errorB8nn210106Ev, symObjAddr: 0x8F5C, symBinAddr: 0x10000ED1C, symSize: 0x14 }
  - { offset: 0x89D35, size: 0x8, addend: 0x0, symName: '__ZN6fuzzer18ForEachNonZeroByteIZNKS_7TracePC15CollectFeaturesIZNS_17AnalyzeDictionaryEPNS_6FuzzerERKNSt3__16vectorINS6_IhNS5_9allocatorIhEEEENS7_IS9_EEEERSB_E3$_0EEmT_EUlmmhE_EEmPKhSJ_mSG_', symObjAddr: 0x8F70, symBinAddr: 0x10000ED30, symSize: 0x3D8 }
  - { offset: 0x8A13A, size: 0x8, addend: 0x0, symName: __ZNSt3__16vectorImNS_9allocatorImEEE9push_backB8nn210106ERKm, symObjAddr: 0x9348, symBinAddr: 0x10000F108, symSize: 0xF8 }
  - { offset: 0x8A545, size: 0x8, addend: 0x0, symName: __ZNSt3__16vectorImNS_9allocatorImEEE20__throw_length_errorB8nn210106Ev, symObjAddr: 0x9440, symBinAddr: 0x10000F200, symSize: 0x14 }
  - { offset: 0x8A550, size: 0x8, addend: 0x0, symName: __ZNSt3__16vectorImNS_9allocatorImEEE20__throw_length_errorB8nn210106Ev, symObjAddr: 0x9440, symBinAddr: 0x10000F200, symSize: 0x14 }
  - { offset: 0x8A568, size: 0x8, addend: 0x0, symName: '__ZN6fuzzer18ForEachNonZeroByteIZNKS_7TracePC15CollectFeaturesIZNS_17AnalyzeDictionaryEPNS_6FuzzerERKNSt3__16vectorINS6_IhNS5_9allocatorIhEEEENS7_IS9_EEEERSB_E3$_1EEmT_EUlmmhE_EEmPKhSJ_mSG_', symObjAddr: 0x9454, symBinAddr: 0x10000F214, symSize: 0x3D8 }
  - { offset: 0x8A987, size: 0x8, addend: 0x0, symName: __ZNSt3__16vectorINS_12basic_stringIcNS_11char_traitsIcEENS_9allocatorIcEEEENS4_IS6_EEE9push_backB8nn210106EOS6_, symObjAddr: 0x3D40, symBinAddr: 0x10000A3F0, symSize: 0x140 }
  - { offset: 0x8AE3B, size: 0x8, addend: 0x0, symName: __ZNSt3__16vectorINS_12basic_stringIcNS_11char_traitsIcEENS_9allocatorIcEEEENS4_IS6_EEED1B8nn210106Ev, symObjAddr: 0x3E80, symBinAddr: 0x10000A530, symSize: 0x80 }
  - { offset: 0x8AF82, size: 0x8, addend: 0x0, symName: __ZNSt3__16vectorINS_12basic_stringIcNS_11char_traitsIcEENS_9allocatorIcEEEENS4_IS6_EEED1B8nn210106Ev, symObjAddr: 0x3E80, symBinAddr: 0x10000A530, symSize: 0x80 }
  - { offset: 0x8CA44, size: 0x8, addend: 0x0, symName: __ZNSt3__16vectorINS_12basic_stringIcNS_11char_traitsIcEENS_9allocatorIcEEEENS4_IS6_EEE16__init_with_sizeB8nn210106IPPcSB_EEvT_T0_m, symObjAddr: 0x982C, symBinAddr: 0x10000F5EC, symSize: 0x118 }
  - { offset: 0x8CF04, size: 0x8, addend: 0x0, symName: __ZNSt3__16vectorINS_12basic_stringIcNS_11char_traitsIcEENS_9allocatorIcEEEENS4_IS6_EEE24__emplace_back_slow_pathIJRKS6_EEEPS6_DpOT_, symObjAddr: 0x78F8, symBinAddr: 0x10000D6CC, symSize: 0x130 }
  - { offset: 0x8D348, size: 0x8, addend: 0x0, symName: __ZNSt3__16vectorINS_6threadENS_9allocatorIS1_EEE8__appendEm, symObjAddr: 0x7064, symBinAddr: 0x10000CEC4, symSize: 0x280 }
  - { offset: 0x8D8D9, size: 0x8, addend: 0x0, symName: __ZNSt3__16vectorINS_6threadENS_9allocatorIS1_EEE20__throw_length_errorB8nn210106Ev, symObjAddr: 0x72E4, symBinAddr: 0x10000D144, symSize: 0x14 }
  - { offset: 0x8D8E4, size: 0x8, addend: 0x0, symName: __ZN6fuzzer11InputCorpusC2ERKNSt3__112basic_stringIcNS1_11char_traitsIcEENS1_9allocatorIcEEEENS_15EntropicOptionsE, symObjAddr: 0x74BC, symBinAddr: 0x10000D31C, symSize: 0x190 }
  - { offset: 0x8E180, size: 0x8, addend: 0x0, symName: __ZN6fuzzer14FuzzingOptionsD2Ev, symObjAddr: 0x76E4, symBinAddr: 0x10000D544, symSize: 0x188 }
  - { offset: 0x8EC55, size: 0x8, addend: 0x0, symName: __ZNSt3__16vectorINS0_IhNS_9allocatorIhEEEENS1_IS3_EEED1B8nn210106Ev, symObjAddr: 0x6098, symBinAddr: 0x10000C748, symSize: 0x84 }
  - { offset: 0x8F0D1, size: 0x8, addend: 0x0, symName: __ZNSt3__16vectorIN6fuzzer9SizedFileENS_9allocatorIS2_EEE24__emplace_back_slow_pathIJS2_EEEPS2_DpOT_, symObjAddr: 0x7364, symBinAddr: 0x10000D1C4, symSize: 0x144 }
  - { offset: 0x8F76E, size: 0x8, addend: 0x0, symName: __ZNSt3__16vectorIN6fuzzer9SizedFileENS_9allocatorIS2_EEE20__throw_length_errorB8nn210106Ev, symObjAddr: 0x74A8, symBinAddr: 0x10000D308, symSize: 0x14 }
  - { offset: 0x8F786, size: 0x8, addend: 0x0, symName: _LLVMFuzzerRunDriver, symObjAddr: 0x611C, symBinAddr: 0x10000C7CC, symSize: 0x4 }
  - { offset: 0x8F7D2, size: 0x8, addend: 0x0, symName: _LLVMFuzzerRunDriver, symObjAddr: 0x611C, symBinAddr: 0x10000C7CC, symSize: 0x4 }
  - { offset: 0x8FFA4, size: 0x8, addend: 0x0, symName: __ZN6fuzzer7CommandC2ERKS0_, symObjAddr: 0x6880, symBinAddr: 0x10000CA44, symSize: 0x110 }
  - { offset: 0x900A7, size: 0x8, addend: 0x0, symName: __ZN6fuzzer7CommandC2ERKS0_, symObjAddr: 0x6880, symBinAddr: 0x10000CA44, symSize: 0x110 }
  - { offset: 0x90F68, size: 0x8, addend: 0x0, symName: __ZNSt3__16vectorINS_6threadENS_9allocatorIS1_EEE20__throw_length_errorB8nn210106Ev, symObjAddr: 0x72E4, symBinAddr: 0x10000D144, symSize: 0x14 }
  - { offset: 0x90F80, size: 0x8, addend: 0x0, symName: __ZNSt3__114__thread_proxyB8nn210106INS_5tupleIJNS_10unique_ptrINS_15__thread_structENS_14default_deleteIS3_EEEEPFvRKN6fuzzer7CommandEPNS_6atomicIjEEjPNSB_IbEEENS_17reference_wrapperIS8_EESD_jSF_EEEEEPvSL_, symObjAddr: 0x72F8, symBinAddr: 0x10000D158, symSize: 0x6C }
  - { offset: 0x9121D, size: 0x8, addend: 0x0, symName: __ZNSt3__16vectorIN6fuzzer9SizedFileENS_9allocatorIS2_EEE20__throw_length_errorB8nn210106Ev, symObjAddr: 0x74A8, symBinAddr: 0x10000D308, symSize: 0x14 }
  - { offset: 0x91235, size: 0x8, addend: 0x0, symName: __ZN6fuzzer11InputCorpusC2ERKNSt3__112basic_stringIcNS1_11char_traitsIcEENS1_9allocatorIcEEEENS_15EntropicOptionsE, symObjAddr: 0x74BC, symBinAddr: 0x10000D31C, symSize: 0x190 }
  - { offset: 0x91B57, size: 0x8, addend: 0x0, symName: __GLOBAL__sub_I_FuzzerDriver.cpp, symObjAddr: 0x9988, symBinAddr: 0x10000F704, symSize: 0x1C }
  - { offset: 0x91B6F, size: 0x8, addend: 0x0, symName: __GLOBAL__sub_I_FuzzerDriver.cpp, symObjAddr: 0x9988, symBinAddr: 0x10000F704, symSize: 0x1C }
  - { offset: 0x9392F, size: 0x8, addend: 0x0, symName: __ZN6fuzzer17ExternalFunctionsC2Ev, symObjAddr: 0x0, symBinAddr: 0x10000F720, symSize: 0x2F4 }
  - { offset: 0x93EFF, size: 0x8, addend: 0x0, symName: __ZN6fuzzer17ExternalFunctionsC2Ev, symObjAddr: 0x0, symBinAddr: 0x10000F720, symSize: 0x2F4 }
  - { offset: 0x94592, size: 0x8, addend: 0x0, symName: __ZN6fuzzer17ExternalFunctionsC1Ev, symObjAddr: 0x2F4, symBinAddr: 0x10000FA14, symSize: 0x4 }
  - { offset: 0x945C0, size: 0x8, addend: 0x0, symName: __ZN6fuzzer17ExternalFunctionsC1Ev, symObjAddr: 0x2F4, symBinAddr: 0x10000FA14, symSize: 0x4 }
  - { offset: 0x96F94, size: 0x8, addend: 0x0, symName: __ZN6fuzzer18ExtraCountersBeginEv, symObjAddr: 0x0, symBinAddr: 0x10000FA18, symSize: 0x8 }
  - { offset: 0x96FA7, size: 0x8, addend: 0x0, symName: __ZN6fuzzer18ExtraCountersBeginEv, symObjAddr: 0x0, symBinAddr: 0x10000FA18, symSize: 0x8 }
  - { offset: 0x96FC5, size: 0x8, addend: 0x0, symName: __ZN6fuzzer16ExtraCountersEndEv, symObjAddr: 0x8, symBinAddr: 0x10000FA20, symSize: 0x8 }
  - { offset: 0x96FE3, size: 0x8, addend: 0x0, symName: __ZN6fuzzer18ClearExtraCountersEv, symObjAddr: 0x10, symBinAddr: 0x10000FA28, symSize: 0x4 }
  - { offset: 0x9713E, size: 0x8, addend: 0x0, symName: __ZN6fuzzer12WorkerThreadEPNS_8JobQueueES1_, symObjAddr: 0x0, symBinAddr: 0x10000FA2C, symSize: 0xC4 }
  - { offset: 0xA6154, size: 0x8, addend: 0x0, symName: __ZNSt3__1rsB8nn210106IcNS_11char_traitsIcEENS_9allocatorIcEEEERNS_13basic_istreamIT_T0_EES9_RNS_12basic_stringIS6_S7_T1_EE, symObjAddr: 0x7100, symBinAddr: 0x1000153A4, symSize: 0x1D0 }
  - { offset: 0xB1334, size: 0x8, addend: 0x0, symName: __ZNSt3__127__tree_balance_after_insertB8nn210106IPNS_16__tree_node_baseIPvEEEEvT_S5_, symObjAddr: 0x621C, symBinAddr: 0x100014D28, symSize: 0x1D4 }
  - { offset: 0xB3D9E, size: 0x8, addend: 0x0, symName: __ZNK6fuzzer7Command12getFlagValueERKNSt3__112basic_stringIcNS1_11char_traitsIcEENS1_9allocatorIcEEEE, symObjAddr: 0x6C58, symBinAddr: 0x100014EFC, symSize: 0x2A8 }
  - { offset: 0xB68AD, size: 0x8, addend: 0x0, symName: __ZNSt3__114__thread_proxyB8nn210106INS_5tupleIJNS_10unique_ptrINS_15__thread_structENS_14default_deleteIS3_EEEEPFvPN6fuzzer8JobQueueES9_ES9_S9_EEEEEPvSD_, symObjAddr: 0x8F60, symBinAddr: 0x100015B10, symSize: 0x64 }
  - { offset: 0xB7D3D, size: 0x8, addend: 0x0, symName: __ZN6fuzzer12WorkerThreadEPNS_8JobQueueES1_, symObjAddr: 0x0, symBinAddr: 0x10000FA2C, symSize: 0xC4 }
  - { offset: 0xB8107, size: 0x8, addend: 0x0, symName: __ZN6fuzzer12FuzzWithForkERNS_6RandomERKNS_14FuzzingOptionsERKNSt3__16vectorINS5_12basic_stringIcNS5_11char_traitsIcEENS5_9allocatorIcEEEENSA_ISC_EEEESG_i, symObjAddr: 0x1A4, symBinAddr: 0x10000FBD0, symSize: 0x1724 }
  - { offset: 0xBE2BF, size: 0x8, addend: 0x0, symName: __ZNSt3__13setIjNS_4lessIjEENS_9allocatorIjEEE6insertB8nn210106INS_21__tree_const_iteratorIjPNS_11__tree_nodeIjPvEElEEEEvT_SD_, symObjAddr: 0x18C8, symBinAddr: 0x1000112F4, symSize: 0x104 }
  - { offset: 0xBFA3D, size: 0x8, addend: 0x0, symName: __ZN6fuzzer8JobQueue3PopEv, symObjAddr: 0xC4, symBinAddr: 0x10000FAF0, symSize: 0xE0 }
  - { offset: 0xBFD1D, size: 0x8, addend: 0x0, symName: __ZNSt3__15dequeIPN6fuzzer7FuzzJobENS_9allocatorIS3_EEE19__add_back_capacityEv, symObjAddr: 0x4434, symBinAddr: 0x100013B94, symSize: 0x2F0 }
  - { offset: 0xC082F, size: 0x8, addend: 0x0, symName: __ZNSt3__114__split_bufferIPPN6fuzzer7FuzzJobENS_9allocatorIS4_EEE12emplace_backIJRS4_EEEvDpOT_, symObjAddr: 0x4724, symBinAddr: 0x100013E84, symSize: 0x180 }
  - { offset: 0xC2E4C, size: 0x8, addend: 0x0, symName: __ZNSt3__16vectorINS_12basic_stringIcNS_11char_traitsIcEENS_9allocatorIcEEEENS4_IS6_EEE18__assign_with_sizeB8nn210106IPS6_SA_EEvT_T0_l, symObjAddr: 0x7468, symBinAddr: 0x1000156E4, symSize: 0x28C }
  - { offset: 0xC3AC7, size: 0x8, addend: 0x0, symName: __ZNSt3__13setIjNS_4lessIjEENS_9allocatorIjEEE6insertB8nn210106INS_21__tree_const_iteratorIjPNS_11__tree_nodeIjPvEElEEEEvT_SD_, symObjAddr: 0x18C8, symBinAddr: 0x1000112F4, symSize: 0x104 }
  - { offset: 0xC3B0E, size: 0x8, addend: 0x0, symName: __ZNSt3__13setIjNS_4lessIjEENS_9allocatorIjEEE6insertB8nn210106INS_21__tree_const_iteratorIjPNS_11__tree_nodeIjPvEElEEEEvT_SD_, symObjAddr: 0x18C8, symBinAddr: 0x1000112F4, symSize: 0x104 }
  - { offset: 0xC3EC7, size: 0x8, addend: 0x0, symName: __ZN6fuzzer9GlobalEnv12CreateNewJobEm, symObjAddr: 0x19CC, symBinAddr: 0x1000113F8, symSize: 0x16C8 }
  - { offset: 0xCAAC5, size: 0x8, addend: 0x0, symName: '__ZZN6fuzzer12FuzzWithForkERNS_6RandomERKNS_14FuzzingOptionsERKNSt3__16vectorINS5_12basic_stringIcNS5_11char_traitsIcEENS5_9allocatorIcEEEENSA_ISC_EEEESG_iENK3$_0clEv', symObjAddr: 0x3094, symBinAddr: 0x100012AC0, symSize: 0x19C }
  - { offset: 0xCAAD0, size: 0x8, addend: 0x0, symName: __ZN6fuzzer7FuzzJobD2Ev, symObjAddr: 0x8FD8, symBinAddr: 0x100015B74, symSize: 0x17C }
  - { offset: 0xCB3BF, size: 0x8, addend: 0x0, symName: __ZN6fuzzer9GlobalEnv14RunOneMergeJobEPNS_7FuzzJobE, symObjAddr: 0x3230, symBinAddr: 0x100012C5C, symSize: 0xEF4 }
  - { offset: 0xCF03D, size: 0x8, addend: 0x0, symName: '__ZZN6fuzzer12FuzzWithForkERNS_6RandomERKNS_14FuzzingOptionsERKNSt3__16vectorINS5_12basic_stringIcNS5_11char_traitsIcEENS5_9allocatorIcEEEENSA_ISC_EEEESG_iENK3$_0clEv', symObjAddr: 0x3094, symBinAddr: 0x100012AC0, symSize: 0x19C }
  - { offset: 0xCF85B, size: 0x8, addend: 0x0, symName: __ZNSt3__16vectorINS_12basic_stringIcNS_11char_traitsIcEENS_9allocatorIcEEEENS4_IS6_EEE18__assign_with_sizeB8nn210106IPS6_SA_EEvT_T0_l, symObjAddr: 0x7468, symBinAddr: 0x1000156E4, symSize: 0x28C }
  - { offset: 0xCF866, size: 0x8, addend: 0x0, symName: __ZNK6fuzzer9GlobalEnv26secondsSinceProcessStartUpEv, symObjAddr: 0x43F0, symBinAddr: 0x100013B50, symSize: 0x44 }
  - { offset: 0xCF91D, size: 0x8, addend: 0x0, symName: __ZN6fuzzer7FuzzJobD2Ev, symObjAddr: 0x8FD8, symBinAddr: 0x100015B74, symSize: 0x17C }
  - { offset: 0xCFC1E, size: 0x8, addend: 0x0, symName: __ZNSt3__16__treeIjNS_4lessIjEENS_9allocatorIjEEE12__find_equalIjEERPNS_16__tree_node_baseIPvEENS_21__tree_const_iteratorIjPNS_11__tree_nodeIjS8_EElEERPNS_15__tree_end_nodeISA_EESB_RKT_, symObjAddr: 0x8DC0, symBinAddr: 0x100015970, symSize: 0x1A0 }
  - { offset: 0xCFC82, size: 0x8, addend: 0x0, symName: __ZNSt3__16__treeIjNS_4lessIjEENS_9allocatorIjEEE12__find_equalIjEERPNS_16__tree_node_baseIPvEENS_21__tree_const_iteratorIjPNS_11__tree_nodeIjS8_EElEERPNS_15__tree_end_nodeISA_EESB_RKT_, symObjAddr: 0x8DC0, symBinAddr: 0x100015970, symSize: 0x1A0 }
  - { offset: 0xCFC9E, size: 0x8, addend: 0x0, symName: __ZNSt3__16__treeIjNS_4lessIjEENS_9allocatorIjEEE12__find_equalIjEERPNS_16__tree_node_baseIPvEENS_21__tree_const_iteratorIjPNS_11__tree_nodeIjS8_EElEERPNS_15__tree_end_nodeISA_EESB_RKT_, symObjAddr: 0x8DC0, symBinAddr: 0x100015970, symSize: 0x1A0 }
  - { offset: 0xD1301, size: 0x8, addend: 0x0, symName: __ZN6fuzzer9GlobalEnv8StopFileEv, symObjAddr: 0x5138, symBinAddr: 0x100014310, symSize: 0xF4 }
  - { offset: 0xD130C, size: 0x8, addend: 0x0, symName: __ZN6fuzzer9GlobalEnv8StopFileEv, symObjAddr: 0x5138, symBinAddr: 0x100014310, symSize: 0xF4 }
  - { offset: 0xD1688, size: 0x8, addend: 0x0, symName: __ZNK6fuzzer7Command7hasFlagERKNSt3__112basic_stringIcNS1_11char_traitsIcEENS1_9allocatorIcEEEE, symObjAddr: 0x522C, symBinAddr: 0x100014404, symSize: 0x1A8 }
  - { offset: 0xD1693, size: 0x8, addend: 0x0, symName: __ZNK6fuzzer7Command7hasFlagERKNSt3__112basic_stringIcNS1_11char_traitsIcEENS1_9allocatorIcEEEE, symObjAddr: 0x522C, symBinAddr: 0x100014404, symSize: 0x1A8 }
  - { offset: 0xD1E1B, size: 0x8, addend: 0x0, symName: __ZN6fuzzer9GlobalEnv10CollectDFTERKNSt3__112basic_stringIcNS1_11char_traitsIcEENS1_9allocatorIcEEEE, symObjAddr: 0x53D4, symBinAddr: 0x1000145AC, symSize: 0x570 }
  - { offset: 0xD1E26, size: 0x8, addend: 0x0, symName: __ZN6fuzzer9GlobalEnv10CollectDFTERKNSt3__112basic_stringIcNS1_11char_traitsIcEENS1_9allocatorIcEEEE, symObjAddr: 0x53D4, symBinAddr: 0x1000145AC, symSize: 0x570 }
  - { offset: 0xD511E, size: 0x8, addend: 0x0, symName: __ZNSt3__16vectorIN6fuzzer9SizedFileENS_9allocatorIS2_EEE24__emplace_back_slow_pathIJRKS2_EEEPS2_DpOT_, symObjAddr: 0x72D0, symBinAddr: 0x100015574, symSize: 0x170 }
  - { offset: 0xD5807, size: 0x8, addend: 0x0, symName: __ZNK6fuzzer7Command12getFlagValueERKNSt3__112basic_stringIcNS1_11char_traitsIcEENS1_9allocatorIcEEEE, symObjAddr: 0x6C58, symBinAddr: 0x100014EFC, symSize: 0x2A8 }
  - { offset: 0xD63D9, size: 0x8, addend: 0x0, symName: __ZNSt3__16vectorImNS_9allocatorImEEE6insertENS_11__wrap_iterIPKmEERS5_, symObjAddr: 0x6F00, symBinAddr: 0x1000151A4, symSize: 0x200 }
  - { offset: 0xD63E4, size: 0x8, addend: 0x0, symName: __ZNSt3__16vectorImNS_9allocatorImEEE6insertENS_11__wrap_iterIPKmEERS5_, symObjAddr: 0x6F00, symBinAddr: 0x1000151A4, symSize: 0x200 }
  - { offset: 0xD6BD0, size: 0x8, addend: 0x0, symName: __ZNSt3__1rsB8nn210106IcNS_11char_traitsIcEENS_9allocatorIcEEEERNS_13basic_istreamIT_T0_EES9_RNS_12basic_stringIS6_S7_T1_EE, symObjAddr: 0x7100, symBinAddr: 0x1000153A4, symSize: 0x1D0 }
  - { offset: 0xD76D0, size: 0x8, addend: 0x0, symName: __ZNSt3__114__split_bufferIPPN6fuzzer7FuzzJobENS_9allocatorIS4_EEE12emplace_backIJRS4_EEEvDpOT_, symObjAddr: 0x4724, symBinAddr: 0x100013E84, symSize: 0x180 }
  - { offset: 0xD7B67, size: 0x8, addend: 0x0, symName: __ZNSt3__114__split_bufferIPPN6fuzzer7FuzzJobENS_9allocatorIS4_EEE12emplace_backIJS4_EEEvDpOT_, symObjAddr: 0x48A4, symBinAddr: 0x100014004, symSize: 0x180 }
  - { offset: 0xD7B7F, size: 0x8, addend: 0x0, symName: __ZNSt3__114__split_bufferIPPN6fuzzer7FuzzJobENS_9allocatorIS4_EEE12emplace_backIJS4_EEEvDpOT_, symObjAddr: 0x48A4, symBinAddr: 0x100014004, symSize: 0x180 }
  - { offset: 0xD8016, size: 0x8, addend: 0x0, symName: __ZNSt3__114__split_bufferIPPN6fuzzer7FuzzJobENS_9allocatorIS4_EEE13emplace_frontIJS4_EEEvDpOT_, symObjAddr: 0x4A24, symBinAddr: 0x100014184, symSize: 0x18C }
  - { offset: 0xD802E, size: 0x8, addend: 0x0, symName: __ZNSt3__114__split_bufferIPPN6fuzzer7FuzzJobENS_9allocatorIS4_EEE13emplace_frontIJS4_EEEvDpOT_, symObjAddr: 0x4A24, symBinAddr: 0x100014184, symSize: 0x18C }
  - { offset: 0xD8836, size: 0x8, addend: 0x0, symName: __ZNSt3__16__treeINS_12basic_stringIcNS_11char_traitsIcEENS_9allocatorIcEEEENS_4lessIS6_EENS4_IS6_EEE25__emplace_unique_key_argsIS6_JRKS6_EEENS_4pairINS_15__tree_iteratorIS6_PNS_11__tree_nodeIS6_PvEElEEbEERKT_DpOT0_, symObjAddr: 0x6010, symBinAddr: 0x100014B1C, symSize: 0xE0 }
  - { offset: 0xD8F55, size: 0x8, addend: 0x0, symName: __ZNSt3__16__treeINS_12basic_stringIcNS_11char_traitsIcEENS_9allocatorIcEEEENS_4lessIS6_EENS4_IS6_EEE12__find_equalIS6_EERPNS_16__tree_node_baseIPvEERPNS_15__tree_end_nodeISF_EERKT_, symObjAddr: 0x60F0, symBinAddr: 0x100014BFC, symSize: 0x12C }
  - { offset: 0xDC8E2, size: 0x8, addend: 0x0, symName: __ZN6fuzzerL10OutputFileE, symObjAddr: 0x5E418, symBinAddr: 0x1000781C0, symSize: 0x0 }
  - { offset: 0xDC949, size: 0x8, addend: 0x0, symName: __ZN6fuzzer13GetOutputFileEv, symObjAddr: 0x0, symBinAddr: 0x100015CF0, symSize: 0xC }
  - { offset: 0xDC967, size: 0x8, addend: 0x0, symName: __ZN6fuzzer13SetOutputFileEP7__sFILE, symObjAddr: 0xC, symBinAddr: 0x100015CFC, symSize: 0xC }
  - { offset: 0xDC990, size: 0x8, addend: 0x0, symName: __ZN6fuzzer8GetEpochERKNSt3__112basic_stringIcNS0_11char_traitsIcEENS0_9allocatorIcEEEE, symObjAddr: 0x18, symBinAddr: 0x100015D08, symSize: 0x54 }
  - { offset: 0xDCA3E, size: 0x8, addend: 0x0, symName: __ZN6fuzzer12FileToVectorERKNSt3__112basic_stringIcNS0_11char_traitsIcEENS0_9allocatorIcEEEEmb, symObjAddr: 0x6C, symBinAddr: 0x100015D5C, symSize: 0x2BC }
  - { offset: 0xDCF04, size: 0x8, addend: 0x0, symName: __ZN6fuzzer6PrintfEPKcz, symObjAddr: 0x328, symBinAddr: 0x100016018, symSize: 0x44 }
  - { offset: 0xDCF15, size: 0x8, addend: 0x0, symName: __ZN6fuzzer6PrintfEPKcz, symObjAddr: 0x328, symBinAddr: 0x100016018, symSize: 0x44 }
  - { offset: 0xDCF78, size: 0x8, addend: 0x0, symName: __ZN6fuzzer12FileToStringERKNSt3__112basic_stringIcNS0_11char_traitsIcEENS0_9allocatorIcEEEE, symObjAddr: 0x36C, symBinAddr: 0x10001605C, symSize: 0x1E4 }
  - { offset: 0xDD3C9, size: 0x8, addend: 0x0, symName: __ZN6fuzzer13CopyFileToErrERKNSt3__112basic_stringIcNS0_11char_traitsIcEENS0_9allocatorIcEEEE, symObjAddr: 0x550, symBinAddr: 0x100016240, symSize: 0x78 }
  - { offset: 0xDD5BD, size: 0x8, addend: 0x0, symName: __ZN6fuzzer4PutsEPKc, symObjAddr: 0x5C8, symBinAddr: 0x1000162B8, symSize: 0x28 }
  - { offset: 0xDD638, size: 0x8, addend: 0x0, symName: __ZN6fuzzer11WriteToFileERKNSt3__16vectorIhNS0_9allocatorIhEEEERKNS0_12basic_stringIcNS0_11char_traitsIcEENS2_IcEEEE, symObjAddr: 0x5F0, symBinAddr: 0x1000162E0, symSize: 0x70 }
  - { offset: 0xDD781, size: 0x8, addend: 0x0, symName: __ZN6fuzzer11WriteToFileEPKhmRKNSt3__112basic_stringIcNS2_11char_traitsIcEENS2_9allocatorIcEEEE, symObjAddr: 0x660, symBinAddr: 0x100016350, symSize: 0x74 }
  - { offset: 0xDD86E, size: 0x8, addend: 0x0, symName: __ZN6fuzzer11WriteToFileERKNSt3__112basic_stringIcNS0_11char_traitsIcEENS0_9allocatorIcEEEES8_, symObjAddr: 0x6D4, symBinAddr: 0x1000163C4, symSize: 0x8C }
  - { offset: 0xDDA33, size: 0x8, addend: 0x0, symName: __ZN6fuzzer12AppendToFileERKNSt3__112basic_stringIcNS0_11char_traitsIcEENS0_9allocatorIcEEEES8_, symObjAddr: 0x760, symBinAddr: 0x100016450, symSize: 0x8C }
  - { offset: 0xDDBA8, size: 0x8, addend: 0x0, symName: __ZN6fuzzer12AppendToFileEPKhmRKNSt3__112basic_stringIcNS2_11char_traitsIcEENS2_9allocatorIcEEEE, symObjAddr: 0x7EC, symBinAddr: 0x1000164DC, symSize: 0x74 }
  - { offset: 0xDDCBD, size: 0x8, addend: 0x0, symName: __ZN6fuzzer22ReadDirToVectorOfUnitsEPKcPNSt3__16vectorINS3_IhNS2_9allocatorIhEEEENS4_IS6_EEEEPlmbPNS3_INS2_12basic_stringIcNS2_11char_traitsIcEENS4_IcEEEENS4_ISF_EEEE, symObjAddr: 0x860, symBinAddr: 0x100016550, symSize: 0x380 }
  - { offset: 0xDEC00, size: 0x8, addend: 0x0, symName: __ZN6fuzzer20GetSizedFilesFromDirERKNSt3__112basic_stringIcNS0_11char_traitsIcEENS0_9allocatorIcEEEEPNS0_6vectorINS_9SizedFileENS4_ISA_EEEE, symObjAddr: 0xBE0, symBinAddr: 0x1000168D0, symSize: 0x174 }
  - { offset: 0xDEC2B, size: 0x8, addend: 0x0, symName: __ZN6fuzzer20GetSizedFilesFromDirERKNSt3__112basic_stringIcNS0_11char_traitsIcEENS0_9allocatorIcEEEEPNS0_6vectorINS_9SizedFileENS4_ISA_EEEE, symObjAddr: 0xBE0, symBinAddr: 0x1000168D0, symSize: 0x174 }
  - { offset: 0xDF334, size: 0x8, addend: 0x0, symName: __ZN6fuzzer11DirPlusFileERKNSt3__112basic_stringIcNS0_11char_traitsIcEENS0_9allocatorIcEEEES8_, symObjAddr: 0xD54, symBinAddr: 0x100016A44, symSize: 0x130 }
  - { offset: 0xDF892, size: 0x8, addend: 0x0, symName: __ZN6fuzzer17DupAndCloseStderrEv, symObjAddr: 0xE84, symBinAddr: 0x100016B74, symSize: 0x70 }
  - { offset: 0xDF8AC, size: 0x8, addend: 0x0, symName: __ZN6fuzzer17DupAndCloseStderrEv, symObjAddr: 0xE84, symBinAddr: 0x100016B74, symSize: 0x70 }
  - { offset: 0xDF99E, size: 0x8, addend: 0x0, symName: __ZN6fuzzer11CloseStdoutEv, symObjAddr: 0xEF4, symBinAddr: 0x100016BE4, symSize: 0x8 }
  - { offset: 0xDF9CD, size: 0x8, addend: 0x0, symName: __ZN6fuzzer7VPrintfEbPKcz, symObjAddr: 0xEFC, symBinAddr: 0x100016BEC, symSize: 0x44 }
  - { offset: 0xDFA38, size: 0x8, addend: 0x0, symName: __ZN6fuzzer14MkDirRecursiveERKNSt3__112basic_stringIcNS0_11char_traitsIcEENS0_9allocatorIcEEEE, symObjAddr: 0xF40, symBinAddr: 0x100016C30, symSize: 0x60 }
  - { offset: 0xDFAED, size: 0x8, addend: 0x0, symName: __ZN6fuzzerL19MkDirRecursiveInnerERKNSt3__112basic_stringIcNS0_11char_traitsIcEENS0_9allocatorIcEEEE, symObjAddr: 0xFA0, symBinAddr: 0x100016C90, symSize: 0xFC }
  - { offset: 0xDFDD3, size: 0x8, addend: 0x0, symName: __ZN6fuzzer14RmDirRecursiveERKNSt3__112basic_stringIcNS0_11char_traitsIcEENS0_9allocatorIcEEEE, symObjAddr: 0x109C, symBinAddr: 0x100016D8C, symSize: 0x1C }
  - { offset: 0xDFE04, size: 0x8, addend: 0x0, symName: __ZN6fuzzer14RmDirRecursiveERKNSt3__112basic_stringIcNS0_11char_traitsIcEENS0_9allocatorIcEEEE, symObjAddr: 0x109C, symBinAddr: 0x100016D8C, symSize: 0x1C }
  - { offset: 0xDFEC4, size: 0x8, addend: 0x0, symName: __ZN6fuzzer8TempPathEPKcS1_, symObjAddr: 0x10B8, symBinAddr: 0x100016DA8, symSize: 0x230 }
  - { offset: 0xEF73C, size: 0x8, addend: 0x0, symName: '__ZZN6fuzzer14RmDirRecursiveERKNSt3__112basic_stringIcNS0_11char_traitsIcEENS0_9allocatorIcEEEEEN3$_08__invokeES8_', symObjAddr: 0x1318, symBinAddr: 0x100016FD8, symSize: 0x4 }
  - { offset: 0xF22E2, size: 0x8, addend: 0x0, symName: __ZNSt3__16vectorINS0_IhNS_9allocatorIhEEEENS1_IS3_EEE24__emplace_back_slow_pathIJRKS3_EEEPS3_DpOT_, symObjAddr: 0x1408, symBinAddr: 0x100016FE4, symSize: 0x138 }
  - { offset: 0xF2932, size: 0x8, addend: 0x0, symName: __ZNSt3__16vectorINS0_IhNS_9allocatorIhEEEENS1_IS3_EEE20__throw_length_errorB8nn210106Ev, symObjAddr: 0x1540, symBinAddr: 0x10001711C, symSize: 0x14 }
  - { offset: 0xF2D12, size: 0x8, addend: 0x0, symName: __ZNSt3__16vectorINS0_IhNS_9allocatorIhEEEENS1_IS3_EEE24__emplace_back_slow_pathIJRKS3_EEEPS3_DpOT_, symObjAddr: 0x1408, symBinAddr: 0x100016FE4, symSize: 0x138 }
  - { offset: 0xF358A, size: 0x8, addend: 0x0, symName: '__ZZN6fuzzer14RmDirRecursiveERKNSt3__112basic_stringIcNS0_11char_traitsIcEENS0_9allocatorIcEEEEEN3$_08__invokeES8_', symObjAddr: 0x1318, symBinAddr: 0x100016FD8, symSize: 0x4 }
  - { offset: 0xF35E1, size: 0x8, addend: 0x0, symName: '__ZZN6fuzzer14RmDirRecursiveERKNSt3__112basic_stringIcNS0_11char_traitsIcEENS0_9allocatorIcEEEEEN3$_18__invokeES8_', symObjAddr: 0x131C, symBinAddr: 0x100016FDC, symSize: 0x4 }
  - { offset: 0xF360A, size: 0x8, addend: 0x0, symName: '__ZZN6fuzzer14RmDirRecursiveERKNSt3__112basic_stringIcNS0_11char_traitsIcEENS0_9allocatorIcEEEEEN3$_18__invokeES8_', symObjAddr: 0x131C, symBinAddr: 0x100016FDC, symSize: 0x4 }
  - { offset: 0xF3627, size: 0x8, addend: 0x0, symName: '__ZZN6fuzzer14RmDirRecursiveERKNSt3__112basic_stringIcNS0_11char_traitsIcEENS0_9allocatorIcEEEEEN3$_18__invokeES8_', symObjAddr: 0x131C, symBinAddr: 0x100016FDC, symSize: 0x4 }
  - { offset: 0xF366D, size: 0x8, addend: 0x0, symName: '__ZZN6fuzzer14RmDirRecursiveERKNSt3__112basic_stringIcNS0_11char_traitsIcEENS0_9allocatorIcEEEEEN3$_28__invokeES8_', symObjAddr: 0x1320, symBinAddr: 0x100016FE0, symSize: 0x4 }
  - { offset: 0xF3696, size: 0x8, addend: 0x0, symName: '__ZZN6fuzzer14RmDirRecursiveERKNSt3__112basic_stringIcNS0_11char_traitsIcEENS0_9allocatorIcEEEEEN3$_28__invokeES8_', symObjAddr: 0x1320, symBinAddr: 0x100016FE0, symSize: 0x4 }
  - { offset: 0xF36B3, size: 0x8, addend: 0x0, symName: '__ZZN6fuzzer14RmDirRecursiveERKNSt3__112basic_stringIcNS0_11char_traitsIcEENS0_9allocatorIcEEEEEN3$_28__invokeES8_', symObjAddr: 0x1320, symBinAddr: 0x100016FE0, symSize: 0x4 }
  - { offset: 0xF38CC, size: 0x8, addend: 0x0, symName: __ZNSt3__16vectorINS0_IhNS_9allocatorIhEEEENS1_IS3_EEE20__throw_length_errorB8nn210106Ev, symObjAddr: 0x1540, symBinAddr: 0x10001711C, symSize: 0x14 }
  - { offset: 0xF3CDB, size: 0x8, addend: 0x0, symName: __GLOBAL__sub_I_FuzzerIO.cpp, symObjAddr: 0x17F0, symBinAddr: 0x100017130, symSize: 0x18 }
  - { offset: 0xF3CED, size: 0x8, addend: 0x0, symName: __GLOBAL__sub_I_FuzzerIO.cpp, symObjAddr: 0x17F0, symBinAddr: 0x100017130, symSize: 0x18 }
  - { offset: 0xF3D05, size: 0x8, addend: 0x0, symName: __GLOBAL__sub_I_FuzzerIO.cpp, symObjAddr: 0x17F0, symBinAddr: 0x100017130, symSize: 0x18 }
  - { offset: 0xF58F4, size: 0x8, addend: 0x0, symName: __ZN6fuzzer6IsFileERKNSt3__112basic_stringIcNS0_11char_traitsIcEENS0_9allocatorIcEEEE, symObjAddr: 0x0, symBinAddr: 0x100017148, symSize: 0x60 }
  - { offset: 0xF591A, size: 0x8, addend: 0x0, symName: __ZN6fuzzer10getDevNullEv, symObjAddr: 0xEF0, symBinAddr: 0x100017F90, symSize: 0x80 }
  - { offset: 0xF5944, size: 0x8, addend: 0x0, symName: __MergedGlobals, symObjAddr: 0x23698, symBinAddr: 0x1000781C8, symSize: 0x0 }
  - { offset: 0xF5965, size: 0x8, addend: 0x0, symName: __ZN6fuzzer6IsFileERKNSt3__112basic_stringIcNS0_11char_traitsIcEENS0_9allocatorIcEEEE, symObjAddr: 0x0, symBinAddr: 0x100017148, symSize: 0x60 }
  - { offset: 0xF5A13, size: 0x8, addend: 0x0, symName: __ZN6fuzzer11IsDirectoryERKNSt3__112basic_stringIcNS0_11char_traitsIcEENS0_9allocatorIcEEEE, symObjAddr: 0x60, symBinAddr: 0x1000171A8, symSize: 0x60 }
  - { offset: 0xF5AC1, size: 0x8, addend: 0x0, symName: __ZN6fuzzer8FileSizeERKNSt3__112basic_stringIcNS0_11char_traitsIcEENS0_9allocatorIcEEEE, symObjAddr: 0xC0, symBinAddr: 0x100017208, symSize: 0x54 }
  - { offset: 0xF5B85, size: 0x8, addend: 0x0, symName: __ZN6fuzzer8BasenameERKNSt3__112basic_stringIcNS0_11char_traitsIcEENS0_9allocatorIcEEEE, symObjAddr: 0x114, symBinAddr: 0x10001725C, symSize: 0x154 }
  - { offset: 0xF5EF6, size: 0x8, addend: 0x0, symName: __ZN6fuzzer12GetSeparatorEv, symObjAddr: 0x268, symBinAddr: 0x1000173B0, symSize: 0x8 }
  - { offset: 0xF5F01, size: 0x8, addend: 0x0, symName: __ZN6fuzzer12GetSeparatorEv, symObjAddr: 0x268, symBinAddr: 0x1000173B0, symSize: 0x8 }
  - { offset: 0xF5F6F, size: 0x8, addend: 0x0, symName: __ZN6fuzzer23ListFilesInDirRecursiveERKNSt3__112basic_stringIcNS0_11char_traitsIcEENS0_9allocatorIcEEEEPlPNS0_6vectorIS6_NS4_IS6_EEEEb, symObjAddr: 0x270, symBinAddr: 0x1000173B8, symSize: 0x3FC }
  - { offset: 0xF6CDE, size: 0x8, addend: 0x0, symName: __ZN6fuzzer19IterateDirRecursiveERKNSt3__112basic_stringIcNS0_11char_traitsIcEENS0_9allocatorIcEEEEPFvS8_ESA_SA_, symObjAddr: 0x714, symBinAddr: 0x1000177B4, symSize: 0x258 }
  - { offset: 0xF7425, size: 0x8, addend: 0x0, symName: __ZN6fuzzer11IsSeparatorEc, symObjAddr: 0x96C, symBinAddr: 0x100017A0C, symSize: 0xC }
  - { offset: 0xF7430, size: 0x8, addend: 0x0, symName: __ZN6fuzzer11IsSeparatorEc, symObjAddr: 0x96C, symBinAddr: 0x100017A0C, symSize: 0xC }
  - { offset: 0xF745E, size: 0x8, addend: 0x0, symName: __ZN6fuzzer8OpenFileEiPKc, symObjAddr: 0x978, symBinAddr: 0x100017A18, symSize: 0x4 }
  - { offset: 0xF749C, size: 0x8, addend: 0x0, symName: __ZN6fuzzer8OpenFileEiPKc, symObjAddr: 0x978, symBinAddr: 0x100017A18, symSize: 0x4 }
  - { offset: 0xF74B6, size: 0x8, addend: 0x0, symName: __ZN6fuzzer9CloseFileEi, symObjAddr: 0x97C, symBinAddr: 0x100017A1C, symSize: 0x4 }
  - { offset: 0xF74E6, size: 0x8, addend: 0x0, symName: __ZN6fuzzer9CloseFileEi, symObjAddr: 0x97C, symBinAddr: 0x100017A1C, symSize: 0x4 }
  - { offset: 0xF74F9, size: 0x8, addend: 0x0, symName: __ZN6fuzzer13DuplicateFileEi, symObjAddr: 0x980, symBinAddr: 0x100017A20, symSize: 0x4 }
  - { offset: 0xF7529, size: 0x8, addend: 0x0, symName: __ZN6fuzzer13DuplicateFileEi, symObjAddr: 0x980, symBinAddr: 0x100017A20, symSize: 0x4 }
  - { offset: 0xF753C, size: 0x8, addend: 0x0, symName: __ZN6fuzzer10RemoveFileERKNSt3__112basic_stringIcNS0_11char_traitsIcEENS0_9allocatorIcEEEE, symObjAddr: 0x984, symBinAddr: 0x100017A24, symSize: 0x14 }
  - { offset: 0xF7568, size: 0x8, addend: 0x0, symName: __ZN6fuzzer10RemoveFileERKNSt3__112basic_stringIcNS0_11char_traitsIcEENS0_9allocatorIcEEEE, symObjAddr: 0x984, symBinAddr: 0x100017A24, symSize: 0x14 }
  - { offset: 0xF7583, size: 0x8, addend: 0x0, symName: __ZN6fuzzer10RemoveFileERKNSt3__112basic_stringIcNS0_11char_traitsIcEENS0_9allocatorIcEEEE, symObjAddr: 0x984, symBinAddr: 0x100017A24, symSize: 0x14 }
  - { offset: 0xF759F, size: 0x8, addend: 0x0, symName: __ZN6fuzzer10RemoveFileERKNSt3__112basic_stringIcNS0_11char_traitsIcEENS0_9allocatorIcEEEE, symObjAddr: 0x984, symBinAddr: 0x100017A24, symSize: 0x14 }
  - { offset: 0xF75BB, size: 0x8, addend: 0x0, symName: __ZN6fuzzer10RemoveFileERKNSt3__112basic_stringIcNS0_11char_traitsIcEENS0_9allocatorIcEEEE, symObjAddr: 0x984, symBinAddr: 0x100017A24, symSize: 0x14 }
  - { offset: 0xF75E7, size: 0x8, addend: 0x0, symName: __ZN6fuzzer10RenameFileERKNSt3__112basic_stringIcNS0_11char_traitsIcEENS0_9allocatorIcEEEES8_, symObjAddr: 0x998, symBinAddr: 0x100017A38, symSize: 0x24 }
  - { offset: 0xF7622, size: 0x8, addend: 0x0, symName: __ZN6fuzzer10RenameFileERKNSt3__112basic_stringIcNS0_11char_traitsIcEENS0_9allocatorIcEEEES8_, symObjAddr: 0x998, symBinAddr: 0x100017A38, symSize: 0x24 }
  - { offset: 0xF763D, size: 0x8, addend: 0x0, symName: __ZN6fuzzer10RenameFileERKNSt3__112basic_stringIcNS0_11char_traitsIcEENS0_9allocatorIcEEEES8_, symObjAddr: 0x998, symBinAddr: 0x100017A38, symSize: 0x24 }
  - { offset: 0xF7659, size: 0x8, addend: 0x0, symName: __ZN6fuzzer10RenameFileERKNSt3__112basic_stringIcNS0_11char_traitsIcEENS0_9allocatorIcEEEES8_, symObjAddr: 0x998, symBinAddr: 0x100017A38, symSize: 0x24 }
  - { offset: 0xF7675, size: 0x8, addend: 0x0, symName: __ZN6fuzzer10RenameFileERKNSt3__112basic_stringIcNS0_11char_traitsIcEENS0_9allocatorIcEEEES8_, symObjAddr: 0x998, symBinAddr: 0x100017A38, symSize: 0x24 }
  - { offset: 0xF7714, size: 0x8, addend: 0x0, symName: __ZN6fuzzer15GetHandleFromFdEi, symObjAddr: 0x9BC, symBinAddr: 0x100017A5C, symSize: 0x8 }
  - { offset: 0xF7742, size: 0x8, addend: 0x0, symName: __ZN6fuzzer7DirNameERKNSt3__112basic_stringIcNS0_11char_traitsIcEENS0_9allocatorIcEEEE, symObjAddr: 0x9C4, symBinAddr: 0x100017A64, symSize: 0xFC }
  - { offset: 0xF7ABB, size: 0x8, addend: 0x0, symName: __ZN6fuzzer6TmpDirEv, symObjAddr: 0xAC0, symBinAddr: 0x100017B60, symSize: 0x120 }
  - { offset: 0xF7AC6, size: 0x8, addend: 0x0, symName: __ZN6fuzzer6TmpDirEv, symObjAddr: 0xAC0, symBinAddr: 0x100017B60, symSize: 0x120 }
  - { offset: 0xF7FC3, size: 0x8, addend: 0x0, symName: __ZN6fuzzer25IsInterestingCoverageFileERKNSt3__112basic_stringIcNS0_11char_traitsIcEENS0_9allocatorIcEEEE, symObjAddr: 0xBE0, symBinAddr: 0x100017C80, symSize: 0x2B8 }
  - { offset: 0xF7FCE, size: 0x8, addend: 0x0, symName: __ZN6fuzzer25IsInterestingCoverageFileERKNSt3__112basic_stringIcNS0_11char_traitsIcEENS0_9allocatorIcEEEE, symObjAddr: 0xBE0, symBinAddr: 0x100017C80, symSize: 0x2B8 }
  - { offset: 0xF86F9, size: 0x8, addend: 0x0, symName: __ZN6fuzzer8RawPrintEPKc, symObjAddr: 0xE98, symBinAddr: 0x100017F38, symSize: 0x2C }
  - { offset: 0xF8704, size: 0x8, addend: 0x0, symName: __ZN6fuzzer8RawPrintEPKc, symObjAddr: 0xE98, symBinAddr: 0x100017F38, symSize: 0x2C }
  - { offset: 0xF8757, size: 0x8, addend: 0x0, symName: __ZN6fuzzer5MkDirERKNSt3__112basic_stringIcNS0_11char_traitsIcEENS0_9allocatorIcEEEE, symObjAddr: 0xEC4, symBinAddr: 0x100017F64, symSize: 0x18 }
  - { offset: 0xF8783, size: 0x8, addend: 0x0, symName: __ZN6fuzzer5MkDirERKNSt3__112basic_stringIcNS0_11char_traitsIcEENS0_9allocatorIcEEEE, symObjAddr: 0xEC4, symBinAddr: 0x100017F64, symSize: 0x18 }
  - { offset: 0xF879E, size: 0x8, addend: 0x0, symName: __ZN6fuzzer5MkDirERKNSt3__112basic_stringIcNS0_11char_traitsIcEENS0_9allocatorIcEEEE, symObjAddr: 0xEC4, symBinAddr: 0x100017F64, symSize: 0x18 }
  - { offset: 0xF87BA, size: 0x8, addend: 0x0, symName: __ZN6fuzzer5MkDirERKNSt3__112basic_stringIcNS0_11char_traitsIcEENS0_9allocatorIcEEEE, symObjAddr: 0xEC4, symBinAddr: 0x100017F64, symSize: 0x18 }
  - { offset: 0xF87D6, size: 0x8, addend: 0x0, symName: __ZN6fuzzer5MkDirERKNSt3__112basic_stringIcNS0_11char_traitsIcEENS0_9allocatorIcEEEE, symObjAddr: 0xEC4, symBinAddr: 0x100017F64, symSize: 0x18 }
  - { offset: 0xF880A, size: 0x8, addend: 0x0, symName: __ZN6fuzzer5RmDirERKNSt3__112basic_stringIcNS0_11char_traitsIcEENS0_9allocatorIcEEEE, symObjAddr: 0xEDC, symBinAddr: 0x100017F7C, symSize: 0x14 }
  - { offset: 0xF8836, size: 0x8, addend: 0x0, symName: __ZN6fuzzer5RmDirERKNSt3__112basic_stringIcNS0_11char_traitsIcEENS0_9allocatorIcEEEE, symObjAddr: 0xEDC, symBinAddr: 0x100017F7C, symSize: 0x14 }
  - { offset: 0xF8851, size: 0x8, addend: 0x0, symName: __ZN6fuzzer5RmDirERKNSt3__112basic_stringIcNS0_11char_traitsIcEENS0_9allocatorIcEEEE, symObjAddr: 0xEDC, symBinAddr: 0x100017F7C, symSize: 0x14 }
  - { offset: 0xF886D, size: 0x8, addend: 0x0, symName: __ZN6fuzzer5RmDirERKNSt3__112basic_stringIcNS0_11char_traitsIcEENS0_9allocatorIcEEEE, symObjAddr: 0xEDC, symBinAddr: 0x100017F7C, symSize: 0x14 }
  - { offset: 0xF8889, size: 0x8, addend: 0x0, symName: __ZN6fuzzer5RmDirERKNSt3__112basic_stringIcNS0_11char_traitsIcEENS0_9allocatorIcEEEE, symObjAddr: 0xEDC, symBinAddr: 0x100017F7C, symSize: 0x14 }
  - { offset: 0xFD60B, size: 0x8, addend: 0x0, symName: __ZN6fuzzer19IterateDirRecursiveERKNSt3__112basic_stringIcNS0_11char_traitsIcEENS0_9allocatorIcEEEEPFvS8_ESA_SA_, symObjAddr: 0x714, symBinAddr: 0x1000177B4, symSize: 0x258 }
  - { offset: 0xFF63E, size: 0x8, addend: 0x0, symName: __ZN6fuzzer6Fuzzer10IsMyThreadE, symObjAddr: 0xA1B4, symBinAddr: 0x100044368, symSize: 0x0 }
  - { offset: 0x100D60, size: 0x8, addend: 0x0, symName: __ZN6fuzzer19RunningUserCallbackE, symObjAddr: 0x12250D, symBinAddr: 0x100044408, symSize: 0x0 }
  - { offset: 0x100D7A, size: 0x8, addend: 0x0, symName: __MergedGlobals, symObjAddr: 0x122510, symBinAddr: 0x1000781E8, symSize: 0x0 }
  - { offset: 0x100E2D, size: 0x8, addend: 0x0, symName: __MergedGlobals, symObjAddr: 0x122510, symBinAddr: 0x1000781E8, symSize: 0x0 }
  - { offset: 0x101408, size: 0x8, addend: 0x0, symName: __ZN6fuzzer10MallocHookEPVKvm, symObjAddr: 0x28, symBinAddr: 0x100018038, symSize: 0xE4 }
  - { offset: 0x101639, size: 0x8, addend: 0x0, symName: __ZN6fuzzer8FreeHookEPVKv, symObjAddr: 0x18C, symBinAddr: 0x10001819C, symSize: 0xC4 }
  - { offset: 0x1019F2, size: 0x8, addend: 0x0, symName: __ZN6fuzzerL20RenameFeatureSetFileERKNSt3__112basic_stringIcNS0_11char_traitsIcEENS0_9allocatorIcEEEES8_S8_, symObjAddr: 0x2C4C, symBinAddr: 0x10001AC5C, symSize: 0xA0 }
  - { offset: 0x101A43, size: 0x8, addend: 0x0, symName: __ZN6fuzzerL20RenameFeatureSetFileERKNSt3__112basic_stringIcNS0_11char_traitsIcEENS0_9allocatorIcEEEES8_S8_, symObjAddr: 0x2C4C, symBinAddr: 0x10001AC5C, symSize: 0xA0 }
  - { offset: 0x101A5F, size: 0x8, addend: 0x0, symName: __ZN6fuzzerL20RenameFeatureSetFileERKNSt3__112basic_stringIcNS0_11char_traitsIcEENS0_9allocatorIcEEEES8_S8_, symObjAddr: 0x2C4C, symBinAddr: 0x10001AC5C, symSize: 0xA0 }
  - { offset: 0x101A7B, size: 0x8, addend: 0x0, symName: __ZN6fuzzerL20RenameFeatureSetFileERKNSt3__112basic_stringIcNS0_11char_traitsIcEENS0_9allocatorIcEEEES8_S8_, symObjAddr: 0x2C4C, symBinAddr: 0x10001AC5C, symSize: 0xA0 }
  - { offset: 0x101DC3, size: 0x8, addend: 0x0, symName: '__ZN6fuzzer18ForEachNonZeroByteIZNKS_7TracePC15CollectFeaturesIZNS_6Fuzzer6RunOneEPKhmbPNS_9InputInfoEbPbE3$_0EEmT_EUlmmhE_EEmS5_S5_mSA_', symObjAddr: 0x7520, symBinAddr: 0x10001E270, symSize: 0xAEC }
  - { offset: 0x102C92, size: 0x8, addend: 0x0, symName: '__ZZN6fuzzer6Fuzzer6RunOneEPKhmbPNS_9InputInfoEbPbENK3$_0clEj', symObjAddr: 0x800C, symBinAddr: 0x10001ED5C, symSize: 0x114 }
  - { offset: 0x118C1D, size: 0x8, addend: 0x0, symName: __ZNSt3__113__stable_sortINS_17_ClassicAlgPolicyERNS_6__lessIvvEENS_11__wrap_iterIPN6fuzzer9SizedFileEEEEEvT1_SA_T0_NS_15iterator_traitsISA_E15difference_typeEPNSD_10value_typeEl, symObjAddr: 0x8F50, symBinAddr: 0x10001FCA0, symSize: 0x2A4 }
  - { offset: 0x1195F4, size: 0x8, addend: 0x0, symName: __ZNSt3__124__buffered_inplace_mergeB8nn210106INS_17_ClassicAlgPolicyERNS_6__lessIvvEENS_11__wrap_iterIPN6fuzzer9SizedFileEEEEEvT1_SA_SA_OT0_NS_15iterator_traitsISA_E15difference_typeESF_PNSE_10value_typeE, symObjAddr: 0x9AE4, symBinAddr: 0x100020834, symSize: 0x174 }
  - { offset: 0x11E0C2, size: 0x8, addend: 0x0, symName: __ZNSt3__115__inplace_mergeINS_17_ClassicAlgPolicyERNS_6__lessIvvEENS_11__wrap_iterIPN6fuzzer9SizedFileEEEEEvT1_SA_SA_OT0_NS_15iterator_traitsISA_E15difference_typeESF_PNSE_10value_typeEl, symObjAddr: 0x964C, symBinAddr: 0x10002039C, symSize: 0x2E4 }
  - { offset: 0x11EA9C, size: 0x8, addend: 0x0, symName: __ZNSt3__118__stable_sort_moveINS_17_ClassicAlgPolicyERNS_6__lessIvvEENS_11__wrap_iterIPN6fuzzer9SizedFileEEEEEvT1_SA_T0_NS_15iterator_traitsISA_E15difference_typeEPNSD_10value_typeE, symObjAddr: 0x91F4, symBinAddr: 0x10001FF44, symSize: 0x2AC }
  - { offset: 0x11F36A, size: 0x8, addend: 0x0, symName: __ZNSt3__119__merge_move_assignB8nn210106INS_17_ClassicAlgPolicyERNS_6__lessIvvEEPN6fuzzer9SizedFileES7_NS_11__wrap_iterIS7_EEEEvT1_SA_T2_SB_T3_T0_, symObjAddr: 0x94A0, symBinAddr: 0x1000201F0, symSize: 0x1AC }
  - { offset: 0x11FB1C, size: 0x8, addend: 0x0, symName: __ZNSt3__121__insertion_sort_moveB8nn210106INS_17_ClassicAlgPolicyERNS_6__lessIvvEENS_11__wrap_iterIPN6fuzzer9SizedFileEEEEEvT1_SA_PNS_15iterator_traitsISA_E10value_typeET0_, symObjAddr: 0x9930, symBinAddr: 0x100020680, symSize: 0x1B4 }
  - { offset: 0x120634, size: 0x8, addend: 0x0, symName: __ZNSt3__116__rotate_forwardB8nn210106INS_17_ClassicAlgPolicyENS_11__wrap_iterIPN6fuzzer9SizedFileEEEEET0_S7_S7_S7_, symObjAddr: 0x9F10, symBinAddr: 0x100020C60, symSize: 0x1E0 }
  - { offset: 0x120CC7, size: 0x8, addend: 0x0, symName: __ZNSt3__120__half_inplace_mergeB8nn210106INS_17_ClassicAlgPolicyENS_8__invertIRNS_6__lessIvvEEEENS_16reverse_iteratorIPN6fuzzer9SizedFileEEESB_NS7_INS_11__wrap_iterISA_EEEESE_SE_EEvT1_T2_T3_T4_T5_OT0_, symObjAddr: 0x9D94, symBinAddr: 0x100020AE4, symSize: 0x17C }
  - { offset: 0x121264, size: 0x8, addend: 0x0, symName: __ZNSt3__120__half_inplace_mergeB8nn210106INS_17_ClassicAlgPolicyERNS_6__lessIvvEEPN6fuzzer9SizedFileES7_NS_11__wrap_iterIS7_EES9_S9_EEvT1_T2_T3_T4_T5_OT0_, symObjAddr: 0x9C58, symBinAddr: 0x1000209A8, symSize: 0x13C }
  - { offset: 0x1227D3, size: 0x8, addend: 0x0, symName: __ZNSt3__16vectorIhNS_9allocatorIhEEE18__assign_with_sizeB8nn210106IPhS5_EEvT_T0_l, symObjAddr: 0x4C78, symBinAddr: 0x10001CA7C, symSize: 0x13C }
  - { offset: 0x1237C1, size: 0x8, addend: 0x0, symName: __ZN6fuzzer6Fuzzer23CheckExitOnSrcPosOrItemEv, symObjAddr: 0x140C, symBinAddr: 0x10001941C, symSize: 0x320 }
  - { offset: 0x1237E9, size: 0x8, addend: 0x0, symName: __MergedGlobals, symObjAddr: 0x122510, symBinAddr: 0x1000781E8, symSize: 0x0 }
  - { offset: 0x1241D2, size: 0x8, addend: 0x0, symName: __ZN6fuzzer6Fuzzer18RereadOutputCorpusEm, symObjAddr: 0x172C, symBinAddr: 0x10001973C, symSize: 0x2D0 }
  - { offset: 0x1247E3, size: 0x8, addend: 0x0, symName: __ZNSt3__124uniform_int_distributionIlEclIN6fuzzer6RandomEEElRT_RKNS1_10param_typeE, symObjAddr: 0x8BA8, symBinAddr: 0x10001F8F8, symSize: 0x1B4 }
  - { offset: 0x12487F, size: 0x8, addend: 0x0, symName: __ZNSt3__124uniform_int_distributionIlEclIN6fuzzer6RandomEEElRT_RKNS1_10param_typeE, symObjAddr: 0x8BA8, symBinAddr: 0x10001F8F8, symSize: 0x1B4 }
  - { offset: 0x124A60, size: 0x8, addend: 0x0, symName: __ZN6fuzzer16MallocFreeTracerD1Ev, symObjAddr: 0x0, symBinAddr: 0x100018010, symSize: 0x28 }
  - { offset: 0x124C1B, size: 0x8, addend: 0x0, symName: __ZN6fuzzer6Fuzzer12HandleMallocEm, symObjAddr: 0x10C, symBinAddr: 0x10001811C, symSize: 0x80 }
  - { offset: 0x124CC3, size: 0x8, addend: 0x0, symName: __ZN6fuzzer8FreeHookEPVKv, symObjAddr: 0x18C, symBinAddr: 0x10001819C, symSize: 0xC4 }
  - { offset: 0x124CCD, size: 0x8, addend: 0x0, symName: __ZN6fuzzer6Fuzzer15DumpCurrentUnitEPKc, symObjAddr: 0x250, symBinAddr: 0x100018260, symSize: 0x18C }
  - { offset: 0x125475, size: 0x8, addend: 0x0, symName: __ZN6fuzzer6Fuzzer15PrintFinalStatsEv, symObjAddr: 0x3DC, symBinAddr: 0x1000183EC, symSize: 0x160 }
  - { offset: 0x125480, size: 0x8, addend: 0x0, symName: __ZN6fuzzer6Fuzzer15PrintFinalStatsEv, symObjAddr: 0x3DC, symBinAddr: 0x1000183EC, symSize: 0x160 }
  - { offset: 0x125AF8, size: 0x8, addend: 0x0, symName: __ZN6fuzzer6Fuzzer25WriteUnitToFileWithPrefixERKNSt3__16vectorIhNS1_9allocatorIhEEEEPKc, symObjAddr: 0x7D4, symBinAddr: 0x1000187E4, symSize: 0x294 }
  - { offset: 0x126661, size: 0x8, addend: 0x0, symName: __ZN6fuzzer6Fuzzer19StaticAlarmCallbackEv, symObjAddr: 0xA68, symBinAddr: 0x100018A78, symSize: 0xC }
  - { offset: 0x126676, size: 0x8, addend: 0x0, symName: __ZNSt3__16vectorIjNS_9allocatorIjEEE18__assign_with_sizeB8nn210106IPjS5_EEvT_T0_l, symObjAddr: 0x4DC8, symBinAddr: 0x10001CBB8, symSize: 0x14C }
  - { offset: 0x1266F6, size: 0x8, addend: 0x0, symName: __ZN6fuzzer11InputCorpus10PrintStatsEv, symObjAddr: 0x12E4, symBinAddr: 0x1000192F4, symSize: 0xC8 }
  - { offset: 0x12671B, size: 0x8, addend: 0x0, symName: __ZN6fuzzer11InputCorpus10PrintStatsEv, symObjAddr: 0x12E4, symBinAddr: 0x1000192F4, symSize: 0xC8 }
  - { offset: 0x126EC5, size: 0x8, addend: 0x0, symName: __ZN6fuzzer6FuzzerC2EPFiPKhmERNS_11InputCorpusERNS_18MutationDispatcherERKNS_14FuzzingOptionsE, symObjAddr: 0x53C, symBinAddr: 0x10001854C, symSize: 0x1F8 }
  - { offset: 0x127599, size: 0x8, addend: 0x0, symName: __ZN6fuzzer14FuzzingOptionsC2ERKS0_, symObjAddr: 0x4704, symBinAddr: 0x10001C714, symSize: 0x25C }
  - { offset: 0x127A07, size: 0x8, addend: 0x0, symName: __ZN6fuzzer6Fuzzer19StaticDeathCallbackEv, symObjAddr: 0x734, symBinAddr: 0x100018744, symSize: 0x34 }
  - { offset: 0x127A5E, size: 0x8, addend: 0x0, symName: __ZN6fuzzer6Fuzzer23AllocateCurrentUnitDataEv, symObjAddr: 0x768, symBinAddr: 0x100018778, symSize: 0x3C }
  - { offset: 0x127A80, size: 0x8, addend: 0x0, symName: __ZN6fuzzer6FuzzerC1EPFiPKhmERNS_11InputCorpusERNS_18MutationDispatcherERKNS_14FuzzingOptionsE, symObjAddr: 0x7A4, symBinAddr: 0x1000187B4, symSize: 0x4 }
  - { offset: 0x127AE6, size: 0x8, addend: 0x0, symName: __ZN6fuzzer6FuzzerC1EPFiPKhmERNS_11InputCorpusERNS_18MutationDispatcherERKNS_14FuzzingOptionsE, symObjAddr: 0x7A4, symBinAddr: 0x1000187B4, symSize: 0x4 }
  - { offset: 0x127B15, size: 0x8, addend: 0x0, symName: __ZN6fuzzer6Fuzzer13DeathCallbackEv, symObjAddr: 0x7A8, symBinAddr: 0x1000187B8, symSize: 0x2C }
  - { offset: 0x127E29, size: 0x8, addend: 0x0, symName: __ZN6fuzzer6Fuzzer19StaticAlarmCallbackEv, symObjAddr: 0xA68, symBinAddr: 0x100018A78, symSize: 0xC }
  - { offset: 0x127E4E, size: 0x8, addend: 0x0, symName: __ZN6fuzzer6Fuzzer13AlarmCallbackEv, symObjAddr: 0xA74, symBinAddr: 0x100018A84, symSize: 0x138 }
  - { offset: 0x127F9E, size: 0x8, addend: 0x0, symName: __ZN6fuzzer6Fuzzer25StaticCrashSignalCallbackEv, symObjAddr: 0xBAC, symBinAddr: 0x100018BBC, symSize: 0xC }
  - { offset: 0x127FC2, size: 0x8, addend: 0x0, symName: __ZN6fuzzer6Fuzzer25StaticCrashSignalCallbackEv, symObjAddr: 0xBAC, symBinAddr: 0x100018BBC, symSize: 0xC }
  - { offset: 0x127FE6, size: 0x8, addend: 0x0, symName: __ZN6fuzzer6Fuzzer13CrashCallbackEv, symObjAddr: 0xBB8, symBinAddr: 0x100018BC8, symSize: 0x90 }
  - { offset: 0x12808B, size: 0x8, addend: 0x0, symName: __ZN6fuzzer6Fuzzer18StaticExitCallbackEv, symObjAddr: 0xC48, symBinAddr: 0x100018C58, symSize: 0xC }
  - { offset: 0x128096, size: 0x8, addend: 0x0, symName: __ZN6fuzzer6Fuzzer18StaticExitCallbackEv, symObjAddr: 0xC48, symBinAddr: 0x100018C58, symSize: 0xC }
  - { offset: 0x1280BA, size: 0x8, addend: 0x0, symName: __ZN6fuzzer6Fuzzer12ExitCallbackEv, symObjAddr: 0xC54, symBinAddr: 0x100018C64, symSize: 0x94 }
  - { offset: 0x128151, size: 0x8, addend: 0x0, symName: __ZN6fuzzer6Fuzzer23StaticInterruptCallbackEv, symObjAddr: 0xCE8, symBinAddr: 0x100018CF8, symSize: 0x14 }
  - { offset: 0x12815C, size: 0x8, addend: 0x0, symName: __ZN6fuzzer6Fuzzer23StaticInterruptCallbackEv, symObjAddr: 0xCE8, symBinAddr: 0x100018CF8, symSize: 0x14 }
  - { offset: 0x128176, size: 0x8, addend: 0x0, symName: __ZN6fuzzer6Fuzzer17InterruptCallbackEv, symObjAddr: 0xCFC, symBinAddr: 0x100018D0C, symSize: 0x78 }
  - { offset: 0x128181, size: 0x8, addend: 0x0, symName: __ZN6fuzzer6Fuzzer17InterruptCallbackEv, symObjAddr: 0xCFC, symBinAddr: 0x100018D0C, symSize: 0x78 }
  - { offset: 0x12824D, size: 0x8, addend: 0x0, symName: __ZN6fuzzer6Fuzzer26StaticGracefulExitCallbackEv, symObjAddr: 0xD74, symBinAddr: 0x100018D84, symSize: 0x1C }
  - { offset: 0x128258, size: 0x8, addend: 0x0, symName: __ZN6fuzzer6Fuzzer26StaticGracefulExitCallbackEv, symObjAddr: 0xD74, symBinAddr: 0x100018D84, symSize: 0x1C }
  - { offset: 0x12827D, size: 0x8, addend: 0x0, symName: __ZN6fuzzer6Fuzzer28StaticFileSizeExceedCallbackEv, symObjAddr: 0xD90, symBinAddr: 0x100018DA0, symSize: 0x28 }
  - { offset: 0x1282B2, size: 0x8, addend: 0x0, symName: __ZN6fuzzer6Fuzzer19MaybeExitGracefullyEv, symObjAddr: 0xDB8, symBinAddr: 0x100018DC8, symSize: 0x74 }
  - { offset: 0x1282D1, size: 0x8, addend: 0x0, symName: __ZN6fuzzer6Fuzzer19MaybeExitGracefullyEv, symObjAddr: 0xDB8, symBinAddr: 0x100018DC8, symSize: 0x74 }
  - { offset: 0x12833C, size: 0x8, addend: 0x0, symName: __ZN6fuzzer6Fuzzer17InterruptExitCodeEv, symObjAddr: 0xE2C, symBinAddr: 0x100018E3C, symSize: 0x10 }
  - { offset: 0x12834D, size: 0x8, addend: 0x0, symName: __ZN6fuzzer6Fuzzer17InterruptExitCodeEv, symObjAddr: 0xE2C, symBinAddr: 0x100018E3C, symSize: 0x10 }
  - { offset: 0x128364, size: 0x8, addend: 0x0, symName: __ZN6fuzzer6Fuzzer16RssLimitCallbackEv, symObjAddr: 0xE3C, symBinAddr: 0x100018E4C, symSize: 0xA0 }
  - { offset: 0x128418, size: 0x8, addend: 0x0, symName: __ZN6fuzzer6Fuzzer10PrintStatsEPKcS2_mm, symObjAddr: 0xEDC, symBinAddr: 0x100018EEC, symSize: 0x408 }
  - { offset: 0x1285BB, size: 0x8, addend: 0x0, symName: __ZN6fuzzer6Fuzzer10PrintStatsEPKcS2_mm, symObjAddr: 0xEDC, symBinAddr: 0x100018EEC, symSize: 0x408 }
  - { offset: 0x128A5A, size: 0x8, addend: 0x0, symName: __ZN6fuzzer6Fuzzer14SetMaxInputLenEm, symObjAddr: 0x13AC, symBinAddr: 0x1000193BC, symSize: 0x58 }
  - { offset: 0x128AB2, size: 0x8, addend: 0x0, symName: __ZN6fuzzer6Fuzzer17SetMaxMutationLenEm, symObjAddr: 0x1404, symBinAddr: 0x100019414, symSize: 0x8 }
  - { offset: 0x129728, size: 0x8, addend: 0x0, symName: __ZN6fuzzer6Fuzzer18RereadOutputCorpusEm, symObjAddr: 0x172C, symBinAddr: 0x10001973C, symSize: 0x2D0 }
  - { offset: 0x129795, size: 0x8, addend: 0x0, symName: __ZN6fuzzer6Fuzzer18RereadOutputCorpusEm, symObjAddr: 0x172C, symBinAddr: 0x10001973C, symSize: 0x2D0 }
  - { offset: 0x1297B4, size: 0x8, addend: 0x0, symName: __ZN6fuzzer6Fuzzer18RereadOutputCorpusEm, symObjAddr: 0x172C, symBinAddr: 0x10001973C, symSize: 0x2D0 }
  - { offset: 0x1297D3, size: 0x8, addend: 0x0, symName: __ZN6fuzzer6Fuzzer18RereadOutputCorpusEm, symObjAddr: 0x172C, symBinAddr: 0x10001973C, symSize: 0x2D0 }
  - { offset: 0x12A242, size: 0x8, addend: 0x0, symName: __ZN6fuzzer6Fuzzer6RunOneEPKhmbPNS_9InputInfoEbPb, symObjAddr: 0x19FC, symBinAddr: 0x100019A0C, symSize: 0x514 }
  - { offset: 0x12B800, size: 0x8, addend: 0x0, symName: __ZN6fuzzer6Fuzzer28PrintPulseAndReportSlowInputEPKhm, symObjAddr: 0x1F10, symBinAddr: 0x100019F20, symSize: 0x1AC }
  - { offset: 0x12BA84, size: 0x8, addend: 0x0, symName: __ZN6fuzzer6Fuzzer15ExecuteCallbackEPKhm, symObjAddr: 0x217C, symBinAddr: 0x10001A18C, symSize: 0x280 }
  - { offset: 0x12C277, size: 0x8, addend: 0x0, symName: '__ZNK6fuzzer7TracePC15CollectFeaturesIZNS_6Fuzzer6RunOneEPKhmbPNS_9InputInfoEbPbE3$_0EEmT_', symObjAddr: 0x23FC, symBinAddr: 0x10001A40C, symSize: 0x554 }
  - { offset: 0x12C287, size: 0x8, addend: 0x0, symName: '__ZNK6fuzzer7TracePC15CollectFeaturesIZNS_6Fuzzer6RunOneEPKhmbPNS_9InputInfoEbPbE3$_0EEmT_', symObjAddr: 0x23FC, symBinAddr: 0x10001A40C, symSize: 0x554 }
  - { offset: 0x12D13E, size: 0x8, addend: 0x0, symName: __ZN6fuzzer11InputCorpus11AddToCorpusERKNSt3__16vectorIhNS1_9allocatorIhEEEEmbbbNS1_6chrono8durationIxNS1_5ratioILl1ELl1000000EEEEERKNS2_IjNS3_IjEEEERKNS_13DataFlowTraceEPKNS_9InputInfoE, symObjAddr: 0x2950, symBinAddr: 0x10001A960, symSize: 0x204 }
  - { offset: 0x12D18F, size: 0x8, addend: 0x0, symName: __ZN6fuzzer6Fuzzer28PrintPulseAndReportSlowInputEPKhm, symObjAddr: 0x1F10, symBinAddr: 0x100019F20, symSize: 0x1AC }
  - { offset: 0x12D733, size: 0x8, addend: 0x0, symName: __ZNSt3__16vectorIhNS_9allocatorIhEEEC1B8nn210106IPKhTnNS_9enable_ifIXaasr31__has_forward_iterator_categoryIT_EE5valuesr16is_constructibleIhNS_15iterator_traitsIS8_E9referenceEEE5valueEiE4typeELi0EEES8_S8_, symObjAddr: 0x20BC, symBinAddr: 0x10001A0CC, symSize: 0xC0 }
  - { offset: 0x12D73E, size: 0x8, addend: 0x0, symName: __ZNSt3__16vectorIhNS_9allocatorIhEEEC1B8nn210106IPKhTnNS_9enable_ifIXaasr31__has_forward_iterator_categoryIT_EE5valuesr16is_constructibleIhNS_15iterator_traitsIS8_E9referenceEEE5valueEiE4typeELi0EEES8_S8_, symObjAddr: 0x20BC, symBinAddr: 0x10001A0CC, symSize: 0xC0 }
  - { offset: 0x12DA0B, size: 0x8, addend: 0x0, symName: __ZN6fuzzer6Fuzzer15ExecuteCallbackEPKhm, symObjAddr: 0x217C, symBinAddr: 0x10001A18C, symSize: 0x280 }
  - { offset: 0x12DA16, size: 0x8, addend: 0x0, symName: __ZN6fuzzer11InputCorpus7ReplaceEPNS_9InputInfoERKNSt3__16vectorIhNS3_9allocatorIhEEEENS3_6chrono8durationIxNS3_5ratioILl1ELl1000000EEEEE, symObjAddr: 0x2B54, symBinAddr: 0x10001AB64, symSize: 0xF8 }
  - { offset: 0x12DEAA, size: 0x8, addend: 0x0, symName: __ZN6fuzzer11InputCorpus11AddToCorpusERKNSt3__16vectorIhNS1_9allocatorIhEEEEmbbbNS1_6chrono8durationIxNS1_5ratioILl1ELl1000000EEEEERKNS2_IjNS3_IjEEEERKNS_13DataFlowTraceEPKNS_9InputInfoE, symObjAddr: 0x2950, symBinAddr: 0x10001A960, symSize: 0x204 }
  - { offset: 0x12EF5C, size: 0x8, addend: 0x0, symName: __ZN6fuzzer11InputCorpus10DeleteFileERKNS_9InputInfoE, symObjAddr: 0x56B4, symBinAddr: 0x10001D2C4, symSize: 0xB8 }
  - { offset: 0x12F22A, size: 0x8, addend: 0x0, symName: __ZN6fuzzer11InputCorpus14AddRareFeatureEj, symObjAddr: 0x845C, symBinAddr: 0x10001F1AC, symSize: 0x440 }
  - { offset: 0x12FC99, size: 0x8, addend: 0x0, symName: __ZNSt3__16vectorINS_4pairIjtEENS_9allocatorIS2_EEE6insertENS_11__wrap_iterIPKS2_EEOS2_, symObjAddr: 0x8994, symBinAddr: 0x10001F6E4, symSize: 0x200 }
  - { offset: 0x130478, size: 0x8, addend: 0x0, symName: __ZNSt3__16vectorINS_4pairIjtEENS_9allocatorIS2_EEE20__throw_length_errorB8nn210106Ev, symObjAddr: 0x8B94, symBinAddr: 0x10001F8E4, symSize: 0x14 }
  - { offset: 0x130483, size: 0x8, addend: 0x0, symName: __ZNSt3__16vectorINS_4pairIjtEENS_9allocatorIS2_EEE9push_backB8nn210106EOS2_, symObjAddr: 0x889C, symBinAddr: 0x10001F5EC, symSize: 0xF8 }
  - { offset: 0x13089A, size: 0x8, addend: 0x0, symName: __ZNSt3__16vectorINS_4pairIjtEENS_9allocatorIS2_EEE6insertENS_11__wrap_iterIPKS2_EEOS2_, symObjAddr: 0x8994, symBinAddr: 0x10001F6E4, symSize: 0x200 }
  - { offset: 0x1308A5, size: 0x8, addend: 0x0, symName: '__ZZN6fuzzer6Fuzzer6RunOneEPKhmbPNS_9InputInfoEbPbENK3$_0clEj', symObjAddr: 0x800C, symBinAddr: 0x10001ED5C, symSize: 0x114 }
  - { offset: 0x130BCE, size: 0x8, addend: 0x0, symName: __ZNSt3__112__hash_tableINS_12basic_stringIcNS_11char_traitsIcEENS_9allocatorIcEEEENS_4hashIS6_EENS_8equal_toIS6_EENS4_IS6_EEE25__emplace_unique_key_argsIS6_JRKS6_EEENS_4pairINS_15__hash_iteratorIPNS_11__hash_nodeIS6_PvEEEEbEERKT_DpOT0_, symObjAddr: 0x4F28, symBinAddr: 0x10001CD04, symSize: 0x3E4 }
  - { offset: 0x130E14, size: 0x8, addend: 0x0, symName: __ZNSt3__16vectorIPN6fuzzer9InputInfoENS_9allocatorIS3_EEE9push_backB8nn210106EOS3_, symObjAddr: 0x4B3C, symBinAddr: 0x10001C970, symSize: 0xF8 }
  - { offset: 0x13122B, size: 0x8, addend: 0x0, symName: __ZNSt3__16vectorIPN6fuzzer9InputInfoENS_9allocatorIS3_EEE20__throw_length_errorB8nn210106Ev, symObjAddr: 0x4C34, symBinAddr: 0x10001CA68, symSize: 0x14 }
  - { offset: 0x131236, size: 0x8, addend: 0x0, symName: __ZNSt3__16vectorIhNS_9allocatorIhEEE18__assign_with_sizeB8nn210106IPhS5_EEvT_T0_l, symObjAddr: 0x4C78, symBinAddr: 0x10001CA7C, symSize: 0x13C }
  - { offset: 0x131C1B, size: 0x8, addend: 0x0, symName: __ZNSt3__16vectorIjNS_9allocatorIjEEE18__assign_with_sizeB8nn210106IPjS5_EEvT_T0_l, symObjAddr: 0x4DC8, symBinAddr: 0x10001CBB8, symSize: 0x14C }
  - { offset: 0x13263E, size: 0x8, addend: 0x0, symName: __ZNSt3__112__hash_tableINS_12basic_stringIcNS_11char_traitsIcEENS_9allocatorIcEEEENS_4hashIS6_EENS_8equal_toIS6_EENS4_IS6_EEE25__emplace_unique_key_argsIS6_JRKS6_EEENS_4pairINS_15__hash_iteratorIPNS_11__hash_nodeIS6_PvEEEEbEERKT_DpOT0_, symObjAddr: 0x4F28, symBinAddr: 0x10001CD04, symSize: 0x3E4 }
  - { offset: 0x132DF4, size: 0x8, addend: 0x0, symName: __ZNKSt3__112__hash_tableINS_17__hash_value_typeINS_12basic_stringIcNS_11char_traitsIcEENS_9allocatorIcEEEENS_6vectorIhNS5_IhEEEEEENS_22__unordered_map_hasherIS7_NS_4pairIKS7_SA_EENS_4hashIS7_EENS_8equal_toIS7_EELb1EEENS_21__unordered_map_equalIS7_SF_SJ_SH_Lb1EEENS5_ISF_EEE4findIS7_EENS_21__hash_const_iteratorIPNS_11__hash_nodeISB_PvEEEERKT_, symObjAddr: 0x54D8, symBinAddr: 0x10001D0E8, symSize: 0x1DC }
  - { offset: 0x133283, size: 0x8, addend: 0x0, symName: __ZNSt3__112__hash_tableINS_12basic_stringIcNS_11char_traitsIcEENS_9allocatorIcEEEENS_4hashIS6_EENS_8equal_toIS6_EENS4_IS6_EEE4findIS6_EENS_15__hash_iteratorIPNS_11__hash_nodeIS6_PvEEEERKT_, symObjAddr: 0x576C, symBinAddr: 0x10001D37C, symSize: 0x1DC }
  - { offset: 0x1335F5, size: 0x8, addend: 0x0, symName: __ZNSt3__112__hash_tableINS_12basic_stringIcNS_11char_traitsIcEENS_9allocatorIcEEEENS_4hashIS6_EENS_8equal_toIS6_EENS4_IS6_EEE5eraseENS_21__hash_const_iteratorIPNS_11__hash_nodeIS6_PvEEEE, symObjAddr: 0x5948, symBinAddr: 0x10001D558, symSize: 0x170 }
  - { offset: 0x133F0E, size: 0x8, addend: 0x0, symName: __ZN6fuzzer6Fuzzer20TPCUpdateObservedPCsEv, symObjAddr: 0x2CEC, symBinAddr: 0x10001ACFC, symSize: 0xC }
  - { offset: 0x133F37, size: 0x8, addend: 0x0, symName: __ZNK6fuzzer6Fuzzer28GetCurrentUnitInFuzzingTheadEPPKh, symObjAddr: 0x2CF8, symBinAddr: 0x10001AD08, symSize: 0x10 }
  - { offset: 0x133FD2, size: 0x8, addend: 0x0, symName: __ZN6fuzzer6Fuzzer22CrashOnOverwrittenDataEv, symObjAddr: 0x2D08, symBinAddr: 0x10001AD18, symSize: 0x58 }
  - { offset: 0x134057, size: 0x8, addend: 0x0, symName: __ZN6fuzzer6Fuzzer19WriteToOutputCorpusERKNSt3__16vectorIhNS1_9allocatorIhEEEE, symObjAddr: 0x2D60, symBinAddr: 0x10001AD70, symSize: 0x194 }
  - { offset: 0x13410F, size: 0x8, addend: 0x0, symName: __ZN6fuzzer6Fuzzer19WriteToOutputCorpusERKNSt3__16vectorIhNS1_9allocatorIhEEEE, symObjAddr: 0x2D60, symBinAddr: 0x10001AD70, symSize: 0x194 }
  - { offset: 0x1345E5, size: 0x8, addend: 0x0, symName: __ZN6fuzzer6Fuzzer21PrintStatusForNewUnitERKNSt3__16vectorIhNS1_9allocatorIhEEEEPKc, symObjAddr: 0x2EF4, symBinAddr: 0x10001AF04, symSize: 0x184 }
  - { offset: 0x13463E, size: 0x8, addend: 0x0, symName: __ZN6fuzzer6Fuzzer21PrintStatusForNewUnitERKNSt3__16vectorIhNS1_9allocatorIhEEEEPKc, symObjAddr: 0x2EF4, symBinAddr: 0x10001AF04, symSize: 0x184 }
  - { offset: 0x134785, size: 0x8, addend: 0x0, symName: __ZN6fuzzer6Fuzzer17ReportNewCoverageEPNS_9InputInfoERKNSt3__16vectorIhNS3_9allocatorIhEEEE, symObjAddr: 0x3078, symBinAddr: 0x10001B088, symSize: 0x1F4 }
  - { offset: 0x134A23, size: 0x8, addend: 0x0, symName: __ZN6fuzzer6Fuzzer23TryDetectingAMemoryLeakEPKhmb, symObjAddr: 0x326C, symBinAddr: 0x10001B27C, symSize: 0x130 }
  - { offset: 0x134B78, size: 0x8, addend: 0x0, symName: __ZN6fuzzer6Fuzzer16MutateAndTestOneEv, symObjAddr: 0x339C, symBinAddr: 0x10001B3AC, symSize: 0x2A4 }
  - { offset: 0x134D08, size: 0x8, addend: 0x0, symName: __ZN6fuzzer6Fuzzer16MutateAndTestOneEv, symObjAddr: 0x339C, symBinAddr: 0x10001B3AC, symSize: 0x2A4 }
  - { offset: 0x135609, size: 0x8, addend: 0x0, symName: __ZN6fuzzer6Fuzzer14PurgeAllocatorEv, symObjAddr: 0x3640, symBinAddr: 0x10001B650, symSize: 0x9C }
  - { offset: 0x135614, size: 0x8, addend: 0x0, symName: __ZN6fuzzer11InputCorpus21ChooseUnitIdxToMutateERNS_6RandomE, symObjAddr: 0x5E78, symBinAddr: 0x10001D6C8, symSize: 0x128 }
  - { offset: 0x135AD4, size: 0x8, addend: 0x0, symName: __ZN6fuzzer6Fuzzer14PurgeAllocatorEv, symObjAddr: 0x3640, symBinAddr: 0x10001B650, symSize: 0x9C }
  - { offset: 0x136154, size: 0x8, addend: 0x0, symName: __ZN6fuzzer6Fuzzer25ReadAndExecuteSeedCorporaERNSt3__16vectorINS_9SizedFileENS1_9allocatorIS3_EEEE, symObjAddr: 0x36DC, symBinAddr: 0x10001B6EC, symSize: 0x80C }
  - { offset: 0x137CDF, size: 0x8, addend: 0x0, symName: __ZN6fuzzer6Fuzzer4LoopERNSt3__16vectorINS_9SizedFileENS1_9allocatorIS3_EEEE, symObjAddr: 0x3EE8, symBinAddr: 0x10001BEF8, symSize: 0x490 }
  - { offset: 0x138A9F, size: 0x8, addend: 0x0, symName: __ZN6fuzzer6Fuzzer17MinimizeCrashLoopERKNSt3__16vectorIhNS1_9allocatorIhEEEE, symObjAddr: 0x4378, symBinAddr: 0x10001C388, symSize: 0x370 }
  - { offset: 0x13930D, size: 0x8, addend: 0x0, symName: _LLVMFuzzerMutate, symObjAddr: 0x46E8, symBinAddr: 0x10001C6F8, symSize: 0x1C }
  - { offset: 0x13932C, size: 0x8, addend: 0x0, symName: _LLVMFuzzerMutate, symObjAddr: 0x46E8, symBinAddr: 0x10001C6F8, symSize: 0x1C }
  - { offset: 0x1397A9, size: 0x8, addend: 0x0, symName: __ZNSt3__16vectorIPN6fuzzer9InputInfoENS_9allocatorIS3_EEE20__throw_length_errorB8nn210106Ev, symObjAddr: 0x4C34, symBinAddr: 0x10001CA68, symSize: 0x14 }
  - { offset: 0x139D49, size: 0x8, addend: 0x0, symName: __ZNKSt3__112__hash_tableINS_17__hash_value_typeINS_12basic_stringIcNS_11char_traitsIcEENS_9allocatorIcEEEENS_6vectorIhNS5_IhEEEEEENS_22__unordered_map_hasherIS7_NS_4pairIKS7_SA_EENS_4hashIS7_EENS_8equal_toIS7_EELb1EEENS_21__unordered_map_equalIS7_SF_SJ_SH_Lb1EEENS5_ISF_EEE4findIS7_EENS_21__hash_const_iteratorIPNS_11__hash_nodeISB_PvEEEERKT_, symObjAddr: 0x54D8, symBinAddr: 0x10001D0E8, symSize: 0x1DC }
  - { offset: 0x13A351, size: 0x8, addend: 0x0, symName: __ZN6fuzzer11InputCorpus24UpdateCorpusDistributionERNS_6RandomE, symObjAddr: 0x5FA0, symBinAddr: 0x10001D7F0, symSize: 0x5EC }
  - { offset: 0x13B340, size: 0x8, addend: 0x0, symName: __ZN6fuzzer9InputInfo12UpdateEnergyEmbNSt3__16chrono8durationIxNS1_5ratioILl1ELl1000000EEEEE, symObjAddr: 0x658C, symBinAddr: 0x10001DDDC, symSize: 0x178 }
  - { offset: 0x13B9A3, size: 0x8, addend: 0x0, symName: __ZNSt3__131piecewise_constant_distributionIdE10param_typeaSERKS2_, symObjAddr: 0x6F90, symBinAddr: 0x10001DF54, symSize: 0x1D0 }
  - { offset: 0x13C4F8, size: 0x8, addend: 0x0, symName: __ZNSt3__16vectorIdNS_9allocatorIdEEE18__assign_with_sizeB8nn210106IPdS5_EEvT_T0_l, symObjAddr: 0x7160, symBinAddr: 0x10001E124, symSize: 0x14C }
  - { offset: 0x13D46B, size: 0x8, addend: 0x0, symName: __ZNSt3__16vectorIdNS_9allocatorIdEEE18__assign_with_sizeB8nn210106IPdS5_EEvT_T0_l, symObjAddr: 0x7160, symBinAddr: 0x10001E124, symSize: 0x14C }
  - { offset: 0x13DF6B, size: 0x8, addend: 0x0, symName: __ZN6fuzzer11InputCorpus10AddFeatureEmjb, symObjAddr: 0x8120, symBinAddr: 0x10001EE70, symSize: 0x120 }
  - { offset: 0x13E1C3, size: 0x8, addend: 0x0, symName: __ZNSt3__16vectorIjNS_9allocatorIjEEE9push_backB8nn210106ERKj, symObjAddr: 0x8240, symBinAddr: 0x10001EF90, symSize: 0xF8 }
  - { offset: 0x13E5CE, size: 0x8, addend: 0x0, symName: __ZN6fuzzer11InputCorpus22UpdateFeatureFrequencyEPNS_9InputInfoEm, symObjAddr: 0x8338, symBinAddr: 0x10001F088, symSize: 0x124 }
  - { offset: 0x13E5D9, size: 0x8, addend: 0x0, symName: __ZN6fuzzer11InputCorpus22UpdateFeatureFrequencyEPNS_9InputInfoEm, symObjAddr: 0x8338, symBinAddr: 0x10001F088, symSize: 0x124 }
  - { offset: 0x13EE81, size: 0x8, addend: 0x0, symName: __ZNSt3__16vectorINS_4pairIjtEENS_9allocatorIS2_EEE20__throw_length_errorB8nn210106Ev, symObjAddr: 0x8B94, symBinAddr: 0x10001F8E4, symSize: 0x14 }
  - { offset: 0x13EE99, size: 0x8, addend: 0x0, symName: __ZNSt3__124uniform_int_distributionIlEclIN6fuzzer6RandomEEElRT_RKNS1_10param_typeE, symObjAddr: 0x8BA8, symBinAddr: 0x10001F8F8, symSize: 0x1B4 }
  - { offset: 0x13F125, size: 0x8, addend: 0x0, symName: __ZNSt3__125__independent_bits_engineIN6fuzzer6RandomEmE6__evalENS_17integral_constantIbLb1EEE, symObjAddr: 0x8D5C, symBinAddr: 0x10001FAAC, symSize: 0x1F4 }
  - { offset: 0x13F76E, size: 0x8, addend: 0x0, symName: __GLOBAL__sub_I_FuzzerLoop.cpp, symObjAddr: 0xA170, symBinAddr: 0x100020E60, symSize: 0x44 }
  - { offset: 0x1415BC, size: 0x8, addend: 0x0, symName: __ZN6fuzzer6Merger5ParseERKNSt3__112basic_stringIcNS1_11char_traitsIcEENS1_9allocatorIcEEEEb, symObjAddr: 0x0, symBinAddr: 0x100020EA4, symSize: 0x188 }
  - { offset: 0x151742, size: 0x8, addend: 0x0, symName: '__ZNSt3__111__introsortINS_17_ClassicAlgPolicyERZN6fuzzer6Merger5MergeERKNS_3setIjNS_4lessIjEENS_9allocatorIjEEEEPS9_SB_SC_PNS_6vectorINS_12basic_stringIcNS_11char_traitsIcEENS7_IcEEEENS7_ISI_EEEEE3$_0PNS2_13MergeFileInfoELb0EEEvT1_SQ_T0_NS_15iterator_traitsISQ_E15difference_typeEb', symObjAddr: 0x925C, symBinAddr: 0x100027E2C, symSize: 0x1430 }
  - { offset: 0x156752, size: 0x8, addend: 0x0, symName: '__ZNSt3__127__insertion_sort_incompleteB8nn210106INS_17_ClassicAlgPolicyERZN6fuzzer6Merger5MergeERKNS_3setIjNS_4lessIjEENS_9allocatorIjEEEEPS9_SB_SC_PNS_6vectorINS_12basic_stringIcNS_11char_traitsIcEENS7_IcEEEENS7_ISI_EEEEE3$_0PNS2_13MergeFileInfoEEEbT1_SQ_T0_', symObjAddr: 0xAA08, symBinAddr: 0x1000295D8, symSize: 0x35C }
  - { offset: 0x163B11, size: 0x8, addend: 0x0, symName: __ZNSt3__113__tree_removeB8nn210106IPNS_16__tree_node_baseIPvEEEEvT_S5_, symObjAddr: 0xC958, symBinAddr: 0x10002B3F8, symSize: 0x424 }
  - { offset: 0x165547, size: 0x8, addend: 0x0, symName: __ZNSt3__134__uninitialized_allocator_relocateB8nn210106INS_9allocatorIN6fuzzer13MergeFileInfoEEEPS3_EEvRT_T0_S8_S8_, symObjAddr: 0x8A8C, symBinAddr: 0x100027C90, symSize: 0xF8 }
  - { offset: 0x1655A6, size: 0x8, addend: 0x0, symName: __ZNSt3__134__uninitialized_allocator_relocateB8nn210106INS_9allocatorIN6fuzzer13MergeFileInfoEEEPS3_EEvRT_T0_S8_S8_, symObjAddr: 0x8A8C, symBinAddr: 0x100027C90, symSize: 0xF8 }
  - { offset: 0x1667AF, size: 0x8, addend: 0x0, symName: '__ZNSt3__17__sort3B8nn210106INS_17_ClassicAlgPolicyERZN6fuzzer6Merger5MergeERKNS_3setIjNS_4lessIjEENS_9allocatorIjEEEEPS9_SB_SC_PNS_6vectorINS_12basic_stringIcNS_11char_traitsIcEENS7_IcEEEENS7_ISI_EEEEE3$_0PNS2_13MergeFileInfoETnNS_9enable_ifIXnt21__use_branchless_sortIT0_T1_EEiE4typeELi0EEEbSS_SS_SS_SR_', symObjAddr: 0xA68C, symBinAddr: 0x10002925C, symSize: 0x150 }
  - { offset: 0x166B8C, size: 0x8, addend: 0x0, symName: __ZNSt3__14swapB8nn210106IN6fuzzer13MergeFileInfoEEENS_9enable_ifIXaasr21is_move_constructibleIT_EE5valuesr18is_move_assignableIS4_EE5valueEvE4typeERS4_S7_, symObjAddr: 0xAD64, symBinAddr: 0x100029934, symSize: 0x168 }
  - { offset: 0x1673F5, size: 0x8, addend: 0x0, symName: '__ZNSt3__17__sort5B8nn210106INS_17_ClassicAlgPolicyERZN6fuzzer6Merger5MergeERKNS_3setIjNS_4lessIjEENS_9allocatorIjEEEEPS9_SB_SC_PNS_6vectorINS_12basic_stringIcNS_11char_traitsIcEENS7_IcEEEENS7_ISI_EEEEE3$_0PNS2_13MergeFileInfoETnNS_9enable_ifIXnt21__use_branchless_sortIT0_T1_EEiE4typeELi0EEEvSS_SS_SS_SS_SS_SR_', symObjAddr: 0xA8CC, symBinAddr: 0x10002949C, symSize: 0x13C }
  - { offset: 0x16776E, size: 0x8, addend: 0x0, symName: '__ZNSt3__17__sort4B8nn210106INS_17_ClassicAlgPolicyERZN6fuzzer6Merger5MergeERKNS_3setIjNS_4lessIjEENS_9allocatorIjEEEEPS9_SB_SC_PNS_6vectorINS_12basic_stringIcNS_11char_traitsIcEENS7_IcEEEENS7_ISI_EEEEE3$_0PNS2_13MergeFileInfoETnNS_9enable_ifIXnt21__use_branchless_sortIT0_T1_EEiE4typeELi0EEEvSS_SS_SS_SS_SR_', symObjAddr: 0xA7DC, symBinAddr: 0x1000293AC, symSize: 0xF0 }
  - { offset: 0x16ABE2, size: 0x8, addend: 0x0, symName: '__ZN6fuzzer18ForEachNonZeroByteIZNKS_7TracePC15CollectFeaturesIZNS_6Fuzzer31CrashResistantMergeInternalStepERKNSt3__112basic_stringIcNS4_11char_traitsIcEENS4_9allocatorIcEEEEbE3$_1EEmT_EUlmmhE_EEmPKhSH_mSE_', symObjAddr: 0xB150, symBinAddr: 0x100029BF0, symSize: 0x714 }
  - { offset: 0x16B797, size: 0x8, addend: 0x0, symName: '__ZN6fuzzer18ForEachNonZeroByteIZNKS_7TracePC15CollectFeaturesIZNS_6Fuzzer31CrashResistantMergeInternalStepERKNSt3__112basic_stringIcNS4_11char_traitsIcEENS4_9allocatorIcEEEEbE3$_2EEmT_EUlmmhE_EEmPKhSH_mSE_', symObjAddr: 0xB9C0, symBinAddr: 0x10002A460, symSize: 0xC5C }
  - { offset: 0x16C82D, size: 0x8, addend: 0x0, symName: __ZN6fuzzer19CrashResistantMergeERKNSt3__16vectorINS0_12basic_stringIcNS0_11char_traitsIcEENS0_9allocatorIcEEEENS5_IS7_EEEERKNS1_INS_9SizedFileENS5_ISC_EEEESG_PS9_RKNS0_3setIjNS0_4lessIjEENS5_IjEEEEPSM_SO_SP_RKS7_bb, symObjAddr: 0x59D8, symBinAddr: 0x1000262E8, symSize: 0x16EC }
  - { offset: 0x1736D1, size: 0x8, addend: 0x0, symName: __ZN6fuzzer6Merger5ParseERKNSt3__112basic_stringIcNS1_11char_traitsIcEENS1_9allocatorIcEEEEb, symObjAddr: 0x0, symBinAddr: 0x100020EA4, symSize: 0x188 }
  - { offset: 0x1739AA, size: 0x8, addend: 0x0, symName: __ZN6fuzzer6Merger5ParseERNSt3__113basic_istreamIcNS1_11char_traitsIcEEEEb, symObjAddr: 0x188, symBinAddr: 0x10002102C, symSize: 0xB10 }
  - { offset: 0x17550B, size: 0x8, addend: 0x0, symName: __ZN6fuzzer6Merger11ParseOrExitERNSt3__113basic_istreamIcNS1_11char_traitsIcEEEEb, symObjAddr: 0xC98, symBinAddr: 0x100021B3C, symSize: 0x2C }
  - { offset: 0x175F6E, size: 0x8, addend: 0x0, symName: __ZNSt3__16vectorIN6fuzzer13MergeFileInfoENS_9allocatorIS2_EEE6resizeEm, symObjAddr: 0xF90, symBinAddr: 0x100021B68, symSize: 0xCC }
  - { offset: 0x17670A, size: 0x8, addend: 0x0, symName: __ZNK6fuzzer6Merger28ApproximateMemoryConsumptionEv, symObjAddr: 0x1324, symBinAddr: 0x100021C34, symSize: 0xE8 }
  - { offset: 0x176E1C, size: 0x8, addend: 0x0, symName: __ZN6fuzzer6Merger11ParseOrExitERNSt3__113basic_istreamIcNS1_11char_traitsIcEEEEb, symObjAddr: 0xC98, symBinAddr: 0x100021B3C, symSize: 0x2C }
  - { offset: 0x177519, size: 0x8, addend: 0x0, symName: __ZNSt3__16vectorIN6fuzzer13MergeFileInfoENS_9allocatorIS2_EEE8__appendEm, symObjAddr: 0x88EC, symBinAddr: 0x100027AF0, symSize: 0x18C }
  - { offset: 0x177690, size: 0x8, addend: 0x0, symName: __ZNSt3__16vectorIN6fuzzer13MergeFileInfoENS_9allocatorIS2_EEE8__appendEm, symObjAddr: 0x88EC, symBinAddr: 0x100027AF0, symSize: 0x18C }
  - { offset: 0x177AF5, size: 0x8, addend: 0x0, symName: __ZNSt3__16vectorIN6fuzzer13MergeFileInfoENS_9allocatorIS2_EEE20__throw_length_errorB8nn210106Ev, symObjAddr: 0x8A78, symBinAddr: 0x100027C7C, symSize: 0x14 }
  - { offset: 0x177BD0, size: 0x8, addend: 0x0, symName: __ZNK6fuzzer6Merger28ApproximateMemoryConsumptionEv, symObjAddr: 0x1324, symBinAddr: 0x100021C34, symSize: 0xE8 }
  - { offset: 0x177C22, size: 0x8, addend: 0x0, symName: __ZNK6fuzzer6Merger28ApproximateMemoryConsumptionEv, symObjAddr: 0x1324, symBinAddr: 0x100021C34, symSize: 0xE8 }
  - { offset: 0x1785B7, size: 0x8, addend: 0x0, symName: __ZN6fuzzer6Merger5MergeERKNSt3__13setIjNS1_4lessIjEENS1_9allocatorIjEEEEPS7_S9_SA_PNS1_6vectorINS1_12basic_stringIcNS1_11char_traitsIcEENS5_IcEEEENS5_ISG_EEEE, symObjAddr: 0x140C, symBinAddr: 0x100021D1C, symSize: 0x11CC }
  - { offset: 0x17B754, size: 0x8, addend: 0x0, symName: __ZNK6fuzzer6Merger11AllFeaturesEv, symObjAddr: 0x25D8, symBinAddr: 0x100022EE8, symSize: 0x358 }
  - { offset: 0x17BE2D, size: 0x8, addend: 0x0, symName: __ZNSt3__16vectorIN6fuzzer13MergeFileInfoENS_9allocatorIS2_EEE16__destroy_vectorclB8nn210106Ev, symObjAddr: 0xAFFC, symBinAddr: 0x100029A9C, symSize: 0xC4 }
  - { offset: 0x17C0E6, size: 0x8, addend: 0x0, symName: __ZNK6fuzzer6Merger11AllFeaturesEv, symObjAddr: 0x25D8, symBinAddr: 0x100022EE8, symSize: 0x358 }
  - { offset: 0x17D5C5, size: 0x8, addend: 0x0, symName: __ZN6fuzzer6Fuzzer31CrashResistantMergeInternalStepERKNSt3__112basic_stringIcNS1_11char_traitsIcEENS1_9allocatorIcEEEEb, symObjAddr: 0x2930, symBinAddr: 0x100023240, symSize: 0xFEC }
  - { offset: 0x1802F7, size: 0x8, addend: 0x0, symName: '__ZNK6fuzzer7TracePC15CollectFeaturesIZNS_6Fuzzer31CrashResistantMergeInternalStepERKNSt3__112basic_stringIcNS3_11char_traitsIcEENS3_9allocatorIcEEEEbE3$_1EEmT_', symObjAddr: 0x391C, symBinAddr: 0x10002422C, symSize: 0x4C0 }
  - { offset: 0x180D1A, size: 0x8, addend: 0x0, symName: '__ZNK6fuzzer7TracePC15CollectFeaturesIZNS_6Fuzzer31CrashResistantMergeInternalStepERKNSt3__112basic_stringIcNS3_11char_traitsIcEENS3_9allocatorIcEEEEbE3$_1EEmT_', symObjAddr: 0x391C, symBinAddr: 0x10002422C, symSize: 0x4C0 }
  - { offset: 0x181743, size: 0x8, addend: 0x0, symName: '__ZNK6fuzzer7TracePC15CollectFeaturesIZNS_6Fuzzer31CrashResistantMergeInternalStepERKNSt3__112basic_stringIcNS3_11char_traitsIcEENS3_9allocatorIcEEEEbE3$_2EEmT_', symObjAddr: 0x3DDC, symBinAddr: 0x1000246EC, symSize: 0x6A8 }
  - { offset: 0x18242B, size: 0x8, addend: 0x0, symName: __ZNSt3__16__treeImNS_4lessImEENS_9allocatorImEEE7destroyEPNS_11__tree_nodeImPvEE, symObjAddr: 0xB0C0, symBinAddr: 0x100029B60, symSize: 0x48 }
  - { offset: 0x182520, size: 0x8, addend: 0x0, symName: __ZNSt3__16__treeIPKN6fuzzer7TracePC12PCTableEntryENS_4lessIS5_EENS_9allocatorIS5_EEE7destroyEPNS_11__tree_nodeIS5_PvEE, symObjAddr: 0xB108, symBinAddr: 0x100029BA8, symSize: 0x48 }
  - { offset: 0x182615, size: 0x8, addend: 0x0, symName: __ZNSt3__16vectorIN6fuzzer13MergeFileInfoENS_9allocatorIS2_EEE16__destroy_vectorclB8nn210106Ev, symObjAddr: 0xAFFC, symBinAddr: 0x100029A9C, symSize: 0xC4 }
  - { offset: 0x18305A, size: 0x8, addend: 0x0, symName: '__ZZN6fuzzer6Fuzzer31CrashResistantMergeInternalStepERKNSt3__112basic_stringIcNS1_11char_traitsIcEENS1_9allocatorIcEEEEbENK3$_2clEm', symObjAddr: 0xC61C, symBinAddr: 0x10002B0BC, symSize: 0x140 }
  - { offset: 0x183AB5, size: 0x8, addend: 0x0, symName: __ZN6fuzzer6Merger13SetCoverMergeERKNSt3__13setIjNS1_4lessIjEENS1_9allocatorIjEEEEPS7_S9_SA_PNS1_6vectorINS1_12basic_stringIcNS1_11char_traitsIcEENS5_IcEEEENS5_ISG_EEEE, symObjAddr: 0x4484, symBinAddr: 0x100024D94, symSize: 0x1554 }
  - { offset: 0x1875DA, size: 0x8, addend: 0x0, symName: __ZNSt3__16vectorIbNS_9allocatorIbEEE18__construct_at_endB8nn210106Emb, symObjAddr: 0xC75C, symBinAddr: 0x10002B1FC, symSize: 0x1FC }
  - { offset: 0x187626, size: 0x8, addend: 0x0, symName: __ZNSt3__16vectorIbNS_9allocatorIbEEE18__construct_at_endB8nn210106Emb, symObjAddr: 0xC75C, symBinAddr: 0x10002B1FC, symSize: 0x1FC }
  - { offset: 0x187642, size: 0x8, addend: 0x0, symName: __ZNSt3__16vectorIbNS_9allocatorIbEEE18__construct_at_endB8nn210106Emb, symObjAddr: 0xC75C, symBinAddr: 0x10002B1FC, symSize: 0x1FC }
  - { offset: 0x1886E5, size: 0x8, addend: 0x0, symName: __ZNSt3__16vectorIN6fuzzer13MergeFileInfoENS_9allocatorIS2_EEE18__assign_with_sizeB8nn210106IPS2_S7_EEvT_T0_l, symObjAddr: 0xCD7C, symBinAddr: 0x10002B81C, symSize: 0x2C0 }
  - { offset: 0x1894D7, size: 0x8, addend: 0x0, symName: __ZNSt3__16vectorIN6fuzzer13MergeFileInfoENS_9allocatorIS2_EEE13__vdeallocateEv, symObjAddr: 0xD03C, symBinAddr: 0x10002BADC, symSize: 0xB4 }
  - { offset: 0x189A2E, size: 0x8, addend: 0x0, symName: __ZNSt3__113unordered_setINS_12basic_stringIcNS_11char_traitsIcEENS_9allocatorIcEEEENS_4hashIS6_EENS_8equal_toIS6_EENS4_IS6_EEEC2ERKSC_, symObjAddr: 0x7A4C, symBinAddr: 0x1000279D4, symSize: 0x11C }
  - { offset: 0x18A9C4, size: 0x8, addend: 0x0, symName: __ZNSt3__16vectorIN6fuzzer13MergeFileInfoENS_9allocatorIS2_EEE18__insert_with_sizeB8nn210106INS_11__wrap_iterIPS2_EES9_EES9_NS7_IPKS2_EET_T0_l, symObjAddr: 0xD20C, symBinAddr: 0x10002BCAC, symSize: 0x354 }
  - { offset: 0x18B5EA, size: 0x8, addend: 0x0, symName: __ZNSt3__16vectorIN6fuzzer13MergeFileInfoENS_9allocatorIS2_EEE27__insert_assign_n_uncheckedB8nn210106INS_11__wrap_iterIPS2_EETnNS_9enable_ifIXntsr7is_sameIODTdeclsr3stdE7declvalIRT_EEEOS2_EE5valueEiE4typeELi0EEEvSB_lS8_, symObjAddr: 0xD560, symBinAddr: 0x10002C000, symSize: 0x14C }
  - { offset: 0x18C268, size: 0x8, addend: 0x0, symName: __ZNSt3__113unordered_setINS_12basic_stringIcNS_11char_traitsIcEENS_9allocatorIcEEEENS_4hashIS6_EENS_8equal_toIS6_EENS4_IS6_EEEC2ERKSC_, symObjAddr: 0x7A4C, symBinAddr: 0x1000279D4, symSize: 0x11C }
  - { offset: 0x18D39D, size: 0x8, addend: 0x0, symName: __ZNSt3__114__split_bufferIN6fuzzer13MergeFileInfoERNS_9allocatorIS2_EEED2Ev, symObjAddr: 0x8B84, symBinAddr: 0x100027D88, symSize: 0xA4 }
  - { offset: 0x18D8CE, size: 0x8, addend: 0x0, symName: __ZNSt3__16vectorIN6fuzzer13MergeFileInfoENS_9allocatorIS2_EEE20__throw_length_errorB8nn210106Ev, symObjAddr: 0x8A78, symBinAddr: 0x100027C7C, symSize: 0x14 }
  - { offset: 0x18D8E6, size: 0x8, addend: 0x0, symName: __ZNSt3__134__uninitialized_allocator_relocateB8nn210106INS_9allocatorIN6fuzzer13MergeFileInfoEEEPS3_EEvRT_T0_S8_S8_, symObjAddr: 0x8A8C, symBinAddr: 0x100027C90, symSize: 0xF8 }
  - { offset: 0x18E07F, size: 0x8, addend: 0x0, symName: '__ZZNK6fuzzer7TracePC15CollectFeaturesIZNS_6Fuzzer31CrashResistantMergeInternalStepERKNSt3__112basic_stringIcNS3_11char_traitsIcEENS3_9allocatorIcEEEEbE3$_1EEmT_ENKUlmmhE_clEmmh', symObjAddr: 0xB864, symBinAddr: 0x10002A304, symSize: 0x15C }
  - { offset: 0x18E6A5, size: 0x8, addend: 0x0, symName: __ZNSt3__16vectorIN6fuzzer13MergeFileInfoENS_9allocatorIS2_EEE13__vdeallocateEv, symObjAddr: 0xD03C, symBinAddr: 0x10002BADC, symSize: 0xB4 }
  - { offset: 0x18EBFF, size: 0x8, addend: 0x0, symName: __ZN6fuzzer13MergeFileInfoC2ERKS0_, symObjAddr: 0xD0F0, symBinAddr: 0x10002BB90, symSize: 0x11C }
  - { offset: 0x18F33F, size: 0x8, addend: 0x0, symName: __ZNSt3__16vectorIN6fuzzer13MergeFileInfoENS_9allocatorIS2_EEE18__insert_with_sizeB8nn210106INS_11__wrap_iterIPS2_EES9_EES9_NS7_IPKS2_EET_T0_l, symObjAddr: 0xD20C, symBinAddr: 0x10002BCAC, symSize: 0x354 }
  - { offset: 0x18F5D1, size: 0x8, addend: 0x0, symName: __ZNKSt3__120__move_backward_implINS_17_ClassicAlgPolicyEEclB8nn210106IPN6fuzzer13MergeFileInfoES6_S6_EENS_4pairIT_T1_EES8_T0_S9_, symObjAddr: 0xD6AC, symBinAddr: 0x10002C14C, symSize: 0x130 }
  - { offset: 0x18FC2C, size: 0x8, addend: 0x0, symName: __ZNSt3__16vectorIN6fuzzer13MergeFileInfoENS_9allocatorIS2_EEE27__insert_assign_n_uncheckedB8nn210106INS_11__wrap_iterIPS2_EETnNS_9enable_ifIXntsr7is_sameIODTdeclsr3stdE7declvalIRT_EEEOS2_EE5valueEiE4typeELi0EEEvSB_lS8_, symObjAddr: 0xD560, symBinAddr: 0x10002C000, symSize: 0x14C }
  - { offset: 0x18FC84, size: 0x8, addend: 0x0, symName: __ZNSt3__16vectorIN6fuzzer13MergeFileInfoENS_9allocatorIS2_EEE27__insert_assign_n_uncheckedB8nn210106INS_11__wrap_iterIPS2_EETnNS_9enable_ifIXntsr7is_sameIODTdeclsr3stdE7declvalIRT_EEEOS2_EE5valueEiE4typeELi0EEEvSB_lS8_, symObjAddr: 0xD560, symBinAddr: 0x10002C000, symSize: 0x14C }
  - { offset: 0x192314, size: 0x8, addend: 0x0, symName: __ZN6fuzzer18MutationDispatcherC2ERNS_6RandomERKNS_14FuzzingOptionsE, symObjAddr: 0x0, symBinAddr: 0x10002C27C, symSize: 0x360 }
  - { offset: 0x19232D, size: 0x8, addend: 0x0, symName: __ZN6fuzzer10Dictionary12kMaxDictSizeE, symObjAddr: 0x5688, symBinAddr: 0x10003C130, symSize: 0x0 }
  - { offset: 0x192FB9, size: 0x8, addend: 0x0, symName: __ZN6fuzzerL6RandChERNS_6RandomE, symObjAddr: 0x1AA8, symBinAddr: 0x10002DD24, symSize: 0xF0 }
  - { offset: 0x192FF8, size: 0x8, addend: 0x0, symName: __ZN6fuzzerL6RandChERNS_6RandomE, symObjAddr: 0x1AA8, symBinAddr: 0x10002DD24, symSize: 0xF0 }
  - { offset: 0x193013, size: 0x8, addend: 0x0, symName: __ZN6fuzzerL6RandChERNS_6RandomE, symObjAddr: 0x1AA8, symBinAddr: 0x10002DD24, symSize: 0xF0 }
  - { offset: 0x19302E, size: 0x8, addend: 0x0, symName: __ZN6fuzzerL6RandChERNS_6RandomE, symObjAddr: 0x1AA8, symBinAddr: 0x10002DD24, symSize: 0xF0 }
  - { offset: 0x19322F, size: 0x8, addend: 0x0, symName: __ZN6fuzzer19ChangeBinaryIntegerItEEmPhmRNS_6RandomE, symObjAddr: 0x33B4, symBinAddr: 0x10002F630, symSize: 0x230 }
  - { offset: 0x193730, size: 0x8, addend: 0x0, symName: __ZN6fuzzer19ChangeBinaryIntegerIyEEmPhmRNS_6RandomE, symObjAddr: 0x2F60, symBinAddr: 0x10002F1DC, symSize: 0x22C }
  - { offset: 0x193C31, size: 0x8, addend: 0x0, symName: __ZN6fuzzer19ChangeBinaryIntegerIhEEmPhmRNS_6RandomE, symObjAddr: 0x35E4, symBinAddr: 0x10002F860, symSize: 0x200 }
  - { offset: 0x194115, size: 0x8, addend: 0x0, symName: __ZN6fuzzer19ChangeBinaryIntegerIjEEmPhmRNS_6RandomE, symObjAddr: 0x318C, symBinAddr: 0x10002F408, symSize: 0x228 }
  - { offset: 0x19D1AF, size: 0x8, addend: 0x0, symName: __ZNSt3__16vectorIN6fuzzer18MutationDispatcher7MutatorENS_9allocatorIS3_EEE18__insert_with_sizeB8nn210106IPKS3_S9_EENS_11__wrap_iterIPS3_EENSA_IS9_EET_T0_l, symObjAddr: 0x49D0, symBinAddr: 0x100030920, symSize: 0x474 }
  - { offset: 0x19D9F3, size: 0x8, addend: 0x0, symName: __ZN6fuzzer18MutationDispatcherC2ERNS_6RandomERKNS_14FuzzingOptionsE, symObjAddr: 0x0, symBinAddr: 0x10002C27C, symSize: 0x360 }
  - { offset: 0x19E1FD, size: 0x8, addend: 0x0, symName: __ZNSt3__16vectorIN6fuzzer18MutationDispatcher7MutatorENS_9allocatorIS3_EEE18__insert_with_sizeB8nn210106IPKS3_S9_EENS_11__wrap_iterIPS3_EENSA_IS9_EET_T0_l, symObjAddr: 0x49D0, symBinAddr: 0x100030920, symSize: 0x474 }
  - { offset: 0x19ED09, size: 0x8, addend: 0x0, symName: __ZNSt3__16vectorIN6fuzzer18MutationDispatcher7MutatorENS_9allocatorIS3_EEE20__throw_length_errorB8nn210106Ev, symObjAddr: 0x4E44, symBinAddr: 0x100030D94, symSize: 0x14 }
  - { offset: 0x19ED26, size: 0x8, addend: 0x0, symName: __ZNSt3__16vectorIN6fuzzer18MutationDispatcher7MutatorENS_9allocatorIS3_EEE9push_backB8nn210106EOS3_, symObjAddr: 0x12CC, symBinAddr: 0x10002D548, symSize: 0x130 }
  - { offset: 0x19F137, size: 0x8, addend: 0x0, symName: __ZN6fuzzer18MutationDispatcher22Mutate_AddWordFromTORCEPhmm, symObjAddr: 0x13FC, symBinAddr: 0x10002D678, symSize: 0x41C }
  - { offset: 0x19F142, size: 0x8, addend: 0x0, symName: __ZNSt3__16vectorIN6fuzzer18MutationDispatcher7MutatorENS_9allocatorIS3_EEE18__assign_with_sizeB8nn210106IPS3_S8_EEvT_T0_l, symObjAddr: 0x4E58, symBinAddr: 0x100030DA8, symSize: 0x180 }
  - { offset: 0x19FB60, size: 0x8, addend: 0x0, symName: __ZNSt3__16vectorIhNS_9allocatorIhEEE8__appendEm, symObjAddr: 0x4FD8, symBinAddr: 0x100030F28, symSize: 0x220 }
  - { offset: 0x19FC4C, size: 0x8, addend: 0x0, symName: __ZN6fuzzer18MutationDispatcher17Mutate_EraseBytesEPhmm, symObjAddr: 0x360, symBinAddr: 0x10002C5DC, symSize: 0xE4 }
  - { offset: 0x19FE77, size: 0x8, addend: 0x0, symName: __ZN6fuzzer18MutationDispatcher17Mutate_InsertByteEPhmm, symObjAddr: 0x444, symBinAddr: 0x10002C6C0, symSize: 0xB8 }
  - { offset: 0x1A0009, size: 0x8, addend: 0x0, symName: __ZN6fuzzer18MutationDispatcher26Mutate_InsertRepeatedBytesEPhmm, symObjAddr: 0x4FC, symBinAddr: 0x10002C778, symSize: 0x248 }
  - { offset: 0x1A0323, size: 0x8, addend: 0x0, symName: __ZN6fuzzer18MutationDispatcher17Mutate_ChangeByteEPhmm, symObjAddr: 0x744, symBinAddr: 0x10002C9C0, symSize: 0xAC }
  - { offset: 0x1A047B, size: 0x8, addend: 0x0, symName: __ZN6fuzzer18MutationDispatcher16Mutate_ChangeBitEPhmm, symObjAddr: 0x7F0, symBinAddr: 0x10002CA6C, symSize: 0xC0 }
  - { offset: 0x1A076F, size: 0x8, addend: 0x0, symName: __ZN6fuzzer18MutationDispatcher19Mutate_ShuffleBytesEPhmm, symObjAddr: 0x8B0, symBinAddr: 0x10002CB2C, symSize: 0x140 }
  - { offset: 0x1A0C73, size: 0x8, addend: 0x0, symName: __ZN6fuzzer18MutationDispatcher25Mutate_ChangeASCIIIntegerEPhmm, symObjAddr: 0x9F0, symBinAddr: 0x10002CC6C, symSize: 0x238 }
  - { offset: 0x1A103D, size: 0x8, addend: 0x0, symName: __ZN6fuzzer18MutationDispatcher26Mutate_ChangeBinaryIntegerEPhmm, symObjAddr: 0xC28, symBinAddr: 0x10002CEA4, symSize: 0xC8 }
  - { offset: 0x1A1211, size: 0x8, addend: 0x0, symName: __ZN6fuzzer18MutationDispatcher15Mutate_CopyPartEPhmm, symObjAddr: 0xCF0, symBinAddr: 0x10002CF6C, symSize: 0x174 }
  - { offset: 0x1A15C9, size: 0x8, addend: 0x0, symName: __ZN6fuzzer18MutationDispatcher12InsertPartOfEPKhmPhmm, symObjAddr: 0x2D78, symBinAddr: 0x10002EFF4, symSize: 0x1E8 }
  - { offset: 0x1A1B05, size: 0x8, addend: 0x0, symName: __ZN6fuzzer18MutationDispatcher16Mutate_CrossOverEPhmm, symObjAddr: 0xE64, symBinAddr: 0x10002D0E0, symSize: 0x2CC }
  - { offset: 0x1A209D, size: 0x8, addend: 0x0, symName: __ZNSt3__16vectorIhNS_9allocatorIhEEE8__appendEm, symObjAddr: 0x4FD8, symBinAddr: 0x100030F28, symSize: 0x220 }
  - { offset: 0x1A24E7, size: 0x8, addend: 0x0, symName: __ZN6fuzzer18MutationDispatcher10CopyPartOfEPKhmPhm, symObjAddr: 0x2C48, symBinAddr: 0x10002EEC4, symSize: 0x130 }
  - { offset: 0x1A2870, size: 0x8, addend: 0x0, symName: __ZN6fuzzer18MutationDispatcher34Mutate_AddWordFromManualDictionaryEPhmm, symObjAddr: 0x1130, symBinAddr: 0x10002D3AC, symSize: 0xCC }
  - { offset: 0x1A2A54, size: 0x8, addend: 0x0, symName: __ZN6fuzzer18MutationDispatcher20ApplyDictionaryEntryEPhmmRNS_15DictionaryEntryE, symObjAddr: 0x1C6C, symBinAddr: 0x10002DEE8, symSize: 0x22C }
  - { offset: 0x1A2EDE, size: 0x8, addend: 0x0, symName: __ZNSt3__16vectorIPN6fuzzer15DictionaryEntryENS_9allocatorIS3_EEE9push_backB8nn210106EOS3_, symObjAddr: 0x2B50, symBinAddr: 0x10002EDCC, symSize: 0xF8 }
  - { offset: 0x1A32F5, size: 0x8, addend: 0x0, symName: __ZN6fuzzer18MutationDispatcher10CopyPartOfEPKhmPhm, symObjAddr: 0x2C48, symBinAddr: 0x10002EEC4, symSize: 0x130 }
  - { offset: 0x1A3300, size: 0x8, addend: 0x0, symName: __ZN6fuzzer18MutationDispatcher42Mutate_AddWordFromPersistentAutoDictionaryEPhmm, symObjAddr: 0x11FC, symBinAddr: 0x10002D478, symSize: 0xD0 }
  - { offset: 0x1A384E, size: 0x8, addend: 0x0, symName: __ZNSt3__16vectorIN6fuzzer18MutationDispatcher7MutatorENS_9allocatorIS3_EEE20__throw_length_errorB8nn210106Ev, symObjAddr: 0x4E44, symBinAddr: 0x100030D94, symSize: 0x14 }
  - { offset: 0x1A3866, size: 0x8, addend: 0x0, symName: __ZNSt3__16vectorIN6fuzzer18MutationDispatcher7MutatorENS_9allocatorIS3_EEE18__assign_with_sizeB8nn210106IPS3_S8_EEvT_T0_l, symObjAddr: 0x4E58, symBinAddr: 0x100030DA8, symSize: 0x180 }
  - { offset: 0x1A39B7, size: 0x8, addend: 0x0, symName: __ZN6fuzzer18MutationDispatcher22Mutate_AddWordFromTORCEPhmm, symObjAddr: 0x13FC, symBinAddr: 0x10002D678, symSize: 0x41C }
  - { offset: 0x1A41CA, size: 0x8, addend: 0x0, symName: __ZN6fuzzer18MutationDispatcher26MakeDictionaryEntryFromCMPIjEENS_15DictionaryEntryET_S3_PKhm, symObjAddr: 0x29FC, symBinAddr: 0x10002EC78, symSize: 0x154 }
  - { offset: 0x1A45F8, size: 0x8, addend: 0x0, symName: __ZN6fuzzer18MutationDispatcher26MakeDictionaryEntryFromCMPIyEENS_15DictionaryEntryET_S3_PKhm, symObjAddr: 0x2754, symBinAddr: 0x10002E9D0, symSize: 0x154 }
  - { offset: 0x1A4A25, size: 0x8, addend: 0x0, symName: __ZN6fuzzer18MutationDispatcher26MakeDictionaryEntryFromCMPEPKvS2_S2_S2_mPKhm, symObjAddr: 0x1E98, symBinAddr: 0x10002E114, symSize: 0x89C }
  - { offset: 0x1A518F, size: 0x8, addend: 0x0, symName: __ZN6fuzzer18MutationDispatcher26MakeDictionaryEntryFromCMPItEENS_15DictionaryEntryET_S3_PKhm, symObjAddr: 0x28A8, symBinAddr: 0x10002EB24, symSize: 0x154 }
  - { offset: 0x1A55CB, size: 0x8, addend: 0x0, symName: __ZN6fuzzer18MutationDispatcher13Mutate_CustomEPhmm, symObjAddr: 0x1818, symBinAddr: 0x10002DA94, symSize: 0xC4 }
  - { offset: 0x1A56FC, size: 0x8, addend: 0x0, symName: __ZN6fuzzer18MutationDispatcher22Mutate_CustomCrossOverEPhmm, symObjAddr: 0x18DC, symBinAddr: 0x10002DB58, symSize: 0x1C8 }
  - { offset: 0x1A5A53, size: 0x8, addend: 0x0, symName: __ZN6fuzzer18MutationDispatcherC1ERNS_6RandomERKNS_14FuzzingOptionsE, symObjAddr: 0x1AA4, symBinAddr: 0x10002DD20, symSize: 0x4 }
  - { offset: 0x1A5A9D, size: 0x8, addend: 0x0, symName: __ZN6fuzzer18MutationDispatcherC1ERNS_6RandomERKNS_14FuzzingOptionsE, symObjAddr: 0x1AA4, symBinAddr: 0x10002DD20, symSize: 0x4 }
  - { offset: 0x1A5ABE, size: 0x8, addend: 0x0, symName: __ZN6fuzzer18MutationDispatcher21AddWordFromDictionaryERNS_10DictionaryEPhmm, symObjAddr: 0x1B98, symBinAddr: 0x10002DE14, symSize: 0xD4 }
  - { offset: 0x1A5D24, size: 0x8, addend: 0x0, symName: __ZN6fuzzer18MutationDispatcher26MakeDictionaryEntryFromCMPERKNS_9FixedWordILm64EEES4_PKhm, symObjAddr: 0x2734, symBinAddr: 0x10002E9B0, symSize: 0x20 }
  - { offset: 0x1A6170, size: 0x8, addend: 0x0, symName: __ZNSt3__16vectorIPN6fuzzer15DictionaryEntryENS_9allocatorIS3_EEE20__throw_length_errorB8nn210106Ev, symObjAddr: 0x55B4, symBinAddr: 0x100031148, symSize: 0x14 }
  - { offset: 0x1A6188, size: 0x8, addend: 0x0, symName: __ZNSt3__16vectorIN6fuzzer15DictionaryEntryENS_9allocatorIS2_EEE20__throw_length_errorB8nn210106Ev, symObjAddr: 0x55C8, symBinAddr: 0x10003115C, symSize: 0x14 }
  - { offset: 0x1A6231, size: 0x8, addend: 0x0, symName: __ZN6fuzzer18MutationDispatcher21StartMutationSequenceEv, symObjAddr: 0x37E4, symBinAddr: 0x10002FA60, symSize: 0x18 }
  - { offset: 0x1A6441, size: 0x8, addend: 0x0, symName: __ZN6fuzzer18MutationDispatcher32RecordSuccessfulMutationSequenceEv, symObjAddr: 0x37FC, symBinAddr: 0x10002FA78, symSize: 0x130 }
  - { offset: 0x1A6A3B, size: 0x8, addend: 0x0, symName: __ZN6fuzzer18MutationDispatcher26PrintRecommendedDictionaryEv, symObjAddr: 0x392C, symBinAddr: 0x10002FBA8, symSize: 0x268 }
  - { offset: 0x1A7123, size: 0x8, addend: 0x0, symName: __ZN6fuzzer18MutationDispatcher21PrintMutationSequenceEb, symObjAddr: 0x3B94, symBinAddr: 0x10002FE10, symSize: 0x134 }
  - { offset: 0x1A712E, size: 0x8, addend: 0x0, symName: __ZNSt3__16vectorIN6fuzzer15DictionaryEntryENS_9allocatorIS2_EEE20__throw_length_errorB8nn210106Ev, symObjAddr: 0x55C8, symBinAddr: 0x10003115C, symSize: 0x14 }
  - { offset: 0x1A71A7, size: 0x8, addend: 0x0, symName: __ZN6fuzzer18MutationDispatcher21PrintMutationSequenceEb, symObjAddr: 0x3B94, symBinAddr: 0x10002FE10, symSize: 0x134 }
  - { offset: 0x1A7416, size: 0x8, addend: 0x0, symName: __ZN6fuzzer18MutationDispatcher16MutationSequenceEv, symObjAddr: 0x3CC8, symBinAddr: 0x10002FF44, symSize: 0x6C }
  - { offset: 0x1A75FC, size: 0x8, addend: 0x0, symName: __ZN6fuzzer18MutationDispatcher6MutateEPhmm, symObjAddr: 0x3D34, symBinAddr: 0x10002FFB0, symSize: 0x154 }
  - { offset: 0x1A7806, size: 0x8, addend: 0x0, symName: __ZNSt3__16vectorIN6fuzzer18MutationDispatcher7MutatorENS_9allocatorIS3_EEE9push_backB8nn210106ERKS3_, symObjAddr: 0x412C, symBinAddr: 0x1000303A8, symSize: 0x130 }
  - { offset: 0x1A7C17, size: 0x8, addend: 0x0, symName: __ZN6fuzzer18MutationDispatcher14MutateWithMaskEPhmmRKNSt3__16vectorIhNS2_9allocatorIhEEEE, symObjAddr: 0x425C, symBinAddr: 0x1000304D8, symSize: 0x3D4 }
  - { offset: 0x1A7C22, size: 0x8, addend: 0x0, symName: __ZN6fuzzer18MutationDispatcher10MutateImplEPhmmRNSt3__16vectorINS0_7MutatorENS2_9allocatorIS4_EEEE, symObjAddr: 0x3E88, symBinAddr: 0x100030104, symSize: 0x150 }
  - { offset: 0x1A7DF3, size: 0x8, addend: 0x0, symName: __ZN6fuzzer18MutationDispatcher13DefaultMutateEPhmm, symObjAddr: 0x3FD8, symBinAddr: 0x100030254, symSize: 0x154 }
  - { offset: 0x1A817B, size: 0x8, addend: 0x0, symName: __ZN6fuzzer18MutationDispatcher14MutateWithMaskEPhmmRKNSt3__16vectorIhNS2_9allocatorIhEEEE, symObjAddr: 0x425C, symBinAddr: 0x1000304D8, symSize: 0x3D4 }
  - { offset: 0x1A8364, size: 0x8, addend: 0x0, symName: __ZN6fuzzer18MutationDispatcher25AddWordToManualDictionaryERKNS_9FixedWordILm64EEE, symObjAddr: 0x4630, symBinAddr: 0x1000308AC, symSize: 0x74 }
  - { offset: 0x1AAE3F, size: 0x8, addend: 0x0, symName: __ZN6fuzzer11ComputeSHA1EPKhmPh, symObjAddr: 0x0, symBinAddr: 0x100031170, symSize: 0x15C }
  - { offset: 0x1AAE5F, size: 0x8, addend: 0x0, symName: __ZN6fuzzer11ComputeSHA1EPKhmPh, symObjAddr: 0x0, symBinAddr: 0x100031170, symSize: 0x15C }
  - { offset: 0x1AB068, size: 0x8, addend: 0x0, symName: __ZN6fuzzer12Sha1ToStringEPKh, symObjAddr: 0x15C, symBinAddr: 0x1000312CC, symSize: 0x2C8 }
  - { offset: 0x1AB620, size: 0x8, addend: 0x0, symName: __ZN6fuzzer4HashERKNSt3__16vectorIhNS0_9allocatorIhEEEE, symObjAddr: 0x424, symBinAddr: 0x100031594, symSize: 0x50 }
  - { offset: 0x1B01EF, size: 0x8, addend: 0x0, symName: __ZN12_GLOBAL__N_117sha1_addUncountedEPNS_7sha1nfoEj, symObjAddr: 0x474, symBinAddr: 0x1000315E4, symSize: 0x174 }
  - { offset: 0x1B27E3, size: 0x8, addend: 0x0, symName: ___sancov_lowest_stack, symObjAddr: 0x3330, symBinAddr: 0x100044380, symSize: 0x0 }
  - { offset: 0x1B2806, size: 0x8, addend: 0x0, symName: __ZN6fuzzer3TPCE, symObjAddr: 0x54E00, symBinAddr: 0x100044600, symSize: 0x0 }
  - { offset: 0x1B30F3, size: 0x8, addend: 0x0, symName: __ZN6fuzzer34WarnAboutDeprecatedInstrumentationEPKc, symObjAddr: 0x1DD8, symBinAddr: 0x100033530, symSize: 0x20 }
  - { offset: 0x1B3136, size: 0x8, addend: 0x0, symName: ___sanitizer_cov_trace_pc_guard, symObjAddr: 0x1DF8, symBinAddr: 0x100033550, symSize: 0x28 }
  - { offset: 0x1B9FF0, size: 0x8, addend: 0x0, symName: __ZNSt3__112__hash_tableINS_17__hash_value_typeImmEENS_22__unordered_map_hasherImNS_4pairIKmmEENS_4hashImEENS_8equal_toImEELb1EEENS_21__unordered_map_equalImS6_SA_S8_Lb1EEENS_9allocatorIS6_EEE11__do_rehashILb1EEEvm, symObjAddr: 0x3094, symBinAddr: 0x100034790, symSize: 0x1CC }
  - { offset: 0x1BA855, size: 0x8, addend: 0x0, symName: __ZN6fuzzer7TracePCD1Ev, symObjAddr: 0x0, symBinAddr: 0x100031758, symSize: 0x70 }
  - { offset: 0x1BAC45, size: 0x8, addend: 0x0, symName: __ZN6fuzzer7TracePC18GetTotalPCCoverageEv, symObjAddr: 0x70, symBinAddr: 0x1000317C8, symSize: 0xC }
  - { offset: 0x1BAC6F, size: 0x8, addend: 0x0, symName: __ZN6fuzzer7TracePC18GetTotalPCCoverageEv, symObjAddr: 0x70, symBinAddr: 0x1000317C8, symSize: 0xC }
  - { offset: 0x1BACCD, size: 0x8, addend: 0x0, symName: __ZN6fuzzer7TracePC28HandleInline8bitCountersInitEPhS1_, symObjAddr: 0x7C, symBinAddr: 0x1000317D4, symSize: 0x1A8 }
  - { offset: 0x1BAE8B, size: 0x8, addend: 0x0, symName: __ZN6fuzzer7TracePC13HandlePCsInitEPKmS2_, symObjAddr: 0x224, symBinAddr: 0x10003197C, symSize: 0x48 }
  - { offset: 0x1BAEC4, size: 0x8, addend: 0x0, symName: __ZN6fuzzer7TracePC15PrintModuleInfoEv, symObjAddr: 0x26C, symBinAddr: 0x1000319C4, symSize: 0x1A8 }
  - { offset: 0x1BB086, size: 0x8, addend: 0x0, symName: '__ZNK6fuzzer7TracePC15CollectFeaturesIZNS0_15PrintModuleInfoEvE3$_0EEmT_', symObjAddr: 0x414, symBinAddr: 0x100031B6C, symSize: 0xF4 }
  - { offset: 0x1BB097, size: 0x8, addend: 0x0, symName: '__ZNK6fuzzer7TracePC15CollectFeaturesIZNS0_15PrintModuleInfoEvE3$_0EEmT_', symObjAddr: 0x414, symBinAddr: 0x100031B6C, symSize: 0xF4 }
  - { offset: 0x1BB2EA, size: 0x8, addend: 0x0, symName: __ZN6fuzzer7TracePC18HandleCallerCalleeEmm, symObjAddr: 0x508, symBinAddr: 0x100031C60, symSize: 0x4C }
  - { offset: 0x1BB375, size: 0x8, addend: 0x0, symName: __ZN6fuzzer7TracePC20GetNextInstructionPcEm, symObjAddr: 0x554, symBinAddr: 0x100031CAC, symSize: 0x8 }
  - { offset: 0x1BB3B1, size: 0x8, addend: 0x0, symName: __ZN6fuzzer7TracePC17UpdateObservedPCsEv, symObjAddr: 0x55C, symBinAddr: 0x100031CB4, symSize: 0x5F8 }
  - { offset: 0x1BBF62, size: 0x8, addend: 0x0, symName: __ZN6fuzzer7TracePC15PCTableEntryIdxEPKNS0_12PCTableEntryE, symObjAddr: 0xB54, symBinAddr: 0x1000322AC, symSize: 0x54 }
  - { offset: 0x1BC6F5, size: 0x8, addend: 0x0, symName: __ZNSt3__112__hash_tableINS_17__hash_value_typeImmEENS_22__unordered_map_hasherImNS_4pairIKmmEENS_4hashImEENS_8equal_toImEELb1EEENS_21__unordered_map_equalImS6_SA_S8_Lb1EEENS_9allocatorIS6_EEE25__emplace_unique_key_argsImJRKNS_21piecewise_construct_tENS_5tupleIJRS5_EEENSL_IJEEEEEENS4_INS_15__hash_iteratorIPNS_11__hash_nodeIS2_PvEEEEbEERKT_DpOT0_, symObjAddr: 0x2D5C, symBinAddr: 0x10003446C, symSize: 0x324 }
  - { offset: 0x1BCD22, size: 0x8, addend: 0x0, symName: __ZN6fuzzer7TracePC15PCTableEntryIdxEPKNS0_12PCTableEntryE, symObjAddr: 0xB54, symBinAddr: 0x1000322AC, symSize: 0x54 }
  - { offset: 0x1BCD8D, size: 0x8, addend: 0x0, symName: __ZN6fuzzer7TracePC17PCTableEntryByIdxEm, symObjAddr: 0xBA8, symBinAddr: 0x100032300, symSize: 0x48 }
  - { offset: 0x1BD2D8, size: 0x8, addend: 0x0, symName: __ZN6fuzzer7TracePC16SetFocusFunctionERKNSt3__112basic_stringIcNS1_11char_traitsIcEENS1_9allocatorIcEEEE, symObjAddr: 0xBF0, symBinAddr: 0x100032348, symSize: 0x384 }
  - { offset: 0x1BDD4A, size: 0x8, addend: 0x0, symName: __ZN6fuzzer7TracePC21ObservedFocusFunctionEv, symObjAddr: 0xF74, symBinAddr: 0x1000326CC, symSize: 0x24 }
  - { offset: 0x1BDDAF, size: 0x8, addend: 0x0, symName: __ZTW21__sancov_lowest_stack, symObjAddr: 0x32D4, symBinAddr: 0x10003495C, symSize: 0x20 }
  - { offset: 0x1BDDBA, size: 0x8, addend: 0x0, symName: __ZN6fuzzer7TracePC21ObservedFocusFunctionEv, symObjAddr: 0xF74, symBinAddr: 0x1000326CC, symSize: 0x24 }
  - { offset: 0x1BDDE3, size: 0x8, addend: 0x0, symName: __ZN6fuzzer7TracePC13PrintCoverageEb, symObjAddr: 0xF98, symBinAddr: 0x1000326F0, symSize: 0xA58 }
  - { offset: 0x1C0004, size: 0x8, addend: 0x0, symName: __ZN6fuzzer7TracePC17AddValueForMemcmpEPvPKvS3_mb, symObjAddr: 0x19F0, symBinAddr: 0x100033148, symSize: 0x2C4 }
  - { offset: 0x1C03E7, size: 0x8, addend: 0x0, symName: __ZN6fuzzer7TracePC17AddValueForMemcmpEPvPKvS3_mb, symObjAddr: 0x19F0, symBinAddr: 0x100033148, symSize: 0x2C4 }
  - { offset: 0x1C0721, size: 0x8, addend: 0x0, symName: __ZN6fuzzer7TracePC19ClearInlineCountersEv, symObjAddr: 0x1CB4, symBinAddr: 0x10003340C, symSize: 0xB8 }
  - { offset: 0x1C088D, size: 0x8, addend: 0x0, symName: __ZN6fuzzer7TracePC18RecordInitialStackEv, symObjAddr: 0x1D6C, symBinAddr: 0x1000334C4, symSize: 0x3C }
  - { offset: 0x1C08D4, size: 0x8, addend: 0x0, symName: __ZNK6fuzzer7TracePC17GetMaxStackOffsetEv, symObjAddr: 0x1DA8, symBinAddr: 0x100033500, symSize: 0x30 }
  - { offset: 0x1C0902, size: 0x8, addend: 0x0, symName: ___sanitizer_cov_trace_pc_guard, symObjAddr: 0x1DF8, symBinAddr: 0x100033550, symSize: 0x28 }
  - { offset: 0x1C0968, size: 0x8, addend: 0x0, symName: ___sanitizer_cov_trace_pc, symObjAddr: 0x1E20, symBinAddr: 0x100033578, symSize: 0x28 }
  - { offset: 0x1C0979, size: 0x8, addend: 0x0, symName: ___sanitizer_cov_trace_pc, symObjAddr: 0x1E20, symBinAddr: 0x100033578, symSize: 0x28 }
  - { offset: 0x1C09CE, size: 0x8, addend: 0x0, symName: ___sanitizer_cov_trace_pc_guard_init, symObjAddr: 0x1E48, symBinAddr: 0x1000335A0, symSize: 0x28 }
  - { offset: 0x1C09DF, size: 0x8, addend: 0x0, symName: ___sanitizer_cov_trace_pc_guard_init, symObjAddr: 0x1E48, symBinAddr: 0x1000335A0, symSize: 0x28 }
  - { offset: 0x1C0A56, size: 0x8, addend: 0x0, symName: ___sanitizer_cov_8bit_counters_init, symObjAddr: 0x1E70, symBinAddr: 0x1000335C8, symSize: 0x14 }
  - { offset: 0x1C0A67, size: 0x8, addend: 0x0, symName: ___sanitizer_cov_8bit_counters_init, symObjAddr: 0x1E70, symBinAddr: 0x1000335C8, symSize: 0x14 }
  - { offset: 0x1C0B01, size: 0x8, addend: 0x0, symName: ___sanitizer_cov_pcs_init, symObjAddr: 0x1E84, symBinAddr: 0x1000335DC, symSize: 0x64 }
  - { offset: 0x1C0B39, size: 0x8, addend: 0x0, symName: ___sanitizer_cov_pcs_init, symObjAddr: 0x1E84, symBinAddr: 0x1000335DC, symSize: 0x64 }
  - { offset: 0x1C0BB9, size: 0x8, addend: 0x0, symName: ___sanitizer_cov_trace_pc_indir, symObjAddr: 0x1EE8, symBinAddr: 0x100033640, symSize: 0x60 }
  - { offset: 0x1C0D30, size: 0x8, addend: 0x0, symName: ___sanitizer_cov_trace_cmp8, symObjAddr: 0x1F48, symBinAddr: 0x1000336A0, symSize: 0x88 }
  - { offset: 0x1C0E76, size: 0x8, addend: 0x0, symName: ___sanitizer_cov_trace_const_cmp8, symObjAddr: 0x1FD0, symBinAddr: 0x100033728, symSize: 0x88 }
  - { offset: 0x1C1061, size: 0x8, addend: 0x0, symName: ___sanitizer_cov_trace_cmp4, symObjAddr: 0x2058, symBinAddr: 0x1000337B0, symSize: 0x84 }
  - { offset: 0x1C1195, size: 0x8, addend: 0x0, symName: ___sanitizer_cov_trace_const_cmp4, symObjAddr: 0x20DC, symBinAddr: 0x100033834, symSize: 0x84 }
  - { offset: 0x1C1334, size: 0x8, addend: 0x0, symName: ___sanitizer_cov_trace_cmp2, symObjAddr: 0x2160, symBinAddr: 0x1000338B8, symSize: 0x70 }
  - { offset: 0x1C1450, size: 0x8, addend: 0x0, symName: ___sanitizer_cov_trace_const_cmp2, symObjAddr: 0x21D0, symBinAddr: 0x100033928, symSize: 0x70 }
  - { offset: 0x1C15D7, size: 0x8, addend: 0x0, symName: ___sanitizer_cov_trace_cmp1, symObjAddr: 0x2240, symBinAddr: 0x100033998, symSize: 0x70 }
  - { offset: 0x1C16F3, size: 0x8, addend: 0x0, symName: ___sanitizer_cov_trace_const_cmp1, symObjAddr: 0x22B0, symBinAddr: 0x100033A08, symSize: 0x70 }
  - { offset: 0x1C180F, size: 0x8, addend: 0x0, symName: ___sanitizer_cov_trace_switch, symObjAddr: 0x2320, symBinAddr: 0x100033A78, symSize: 0x2C4 }
  - { offset: 0x1C1D16, size: 0x8, addend: 0x0, symName: ___sanitizer_cov_trace_div4, symObjAddr: 0x25E4, symBinAddr: 0x100033D3C, symSize: 0x80 }
  - { offset: 0x1C1E3A, size: 0x8, addend: 0x0, symName: ___sanitizer_cov_trace_div8, symObjAddr: 0x2664, symBinAddr: 0x100033DBC, symSize: 0x84 }
  - { offset: 0x1C1FE0, size: 0x8, addend: 0x0, symName: ___sanitizer_cov_trace_gep, symObjAddr: 0x26E8, symBinAddr: 0x100033E40, symSize: 0x84 }
  - { offset: 0x1C211B, size: 0x8, addend: 0x0, symName: ___sanitizer_weak_hook_memcmp, symObjAddr: 0x276C, symBinAddr: 0x100033EC4, symSize: 0x44 }
  - { offset: 0x1C219C, size: 0x8, addend: 0x0, symName: ___sanitizer_weak_hook_strncmp, symObjAddr: 0x27B0, symBinAddr: 0x100033F08, symSize: 0xA8 }
  - { offset: 0x1C225D, size: 0x8, addend: 0x0, symName: ___sanitizer_weak_hook_strcmp, symObjAddr: 0x2858, symBinAddr: 0x100033FB0, symSize: 0x74 }
  - { offset: 0x1C2346, size: 0x8, addend: 0x0, symName: ___sanitizer_weak_hook_strncasecmp, symObjAddr: 0x28CC, symBinAddr: 0x100034024, symSize: 0xA8 }
  - { offset: 0x1C2496, size: 0x8, addend: 0x0, symName: ___sanitizer_weak_hook_strcasecmp, symObjAddr: 0x2974, symBinAddr: 0x1000340CC, symSize: 0x74 }
  - { offset: 0x1C2585, size: 0x8, addend: 0x0, symName: ___sanitizer_weak_hook_strstr, symObjAddr: 0x29E8, symBinAddr: 0x100034140, symSize: 0x94 }
  - { offset: 0x1C2684, size: 0x8, addend: 0x0, symName: ___sanitizer_weak_hook_strcasestr, symObjAddr: 0x2A7C, symBinAddr: 0x1000341D4, symSize: 0x94 }
  - { offset: 0x1C2783, size: 0x8, addend: 0x0, symName: ___sanitizer_weak_hook_memmem, symObjAddr: 0x2B10, symBinAddr: 0x100034268, symSize: 0x88 }
  - { offset: 0x1C2B03, size: 0x8, addend: 0x0, symName: __ZN6fuzzer7TracePCC2Ev, symObjAddr: 0x2B98, symBinAddr: 0x1000342F0, symSize: 0x17C }
  - { offset: 0x1C32F7, size: 0x8, addend: 0x0, symName: __ZNSt3__112__hash_tableINS_17__hash_value_typeImmEENS_22__unordered_map_hasherImNS_4pairIKmmEENS_4hashImEENS_8equal_toImEELb1EEENS_21__unordered_map_equalImS6_SA_S8_Lb1EEENS_9allocatorIS6_EEE11__do_rehashILb1EEEvm, symObjAddr: 0x3094, symBinAddr: 0x100034790, symSize: 0x1CC }
  - { offset: 0x1C372A, size: 0x8, addend: 0x0, symName: __GLOBAL__sub_I_FuzzerTracePC.cpp, symObjAddr: 0x32F4, symBinAddr: 0x10003497C, symSize: 0x3C }
  - { offset: 0x1C55AC, size: 0x8, addend: 0x0, symName: __ZN6fuzzer6Base64ERKNSt3__16vectorIhNS0_9allocatorIhEEEE, symObjAddr: 0x1040, symBinAddr: 0x10003572C, symSize: 0x23C }
  - { offset: 0x1C5A6D, size: 0x8, addend: 0x0, symName: __ZN6fuzzerL14SymbolizeMutexE, symObjAddr: 0x1B18, symBinAddr: 0x1000442E8, symSize: 0x0 }
  - { offset: 0x1C5A7B, size: 0x8, addend: 0x0, symName: __ZN6fuzzer13PrintHexArrayEPKhmPKc, symObjAddr: 0x0, symBinAddr: 0x1000349B8, symSize: 0x68 }
  - { offset: 0x1C5B38, size: 0x8, addend: 0x0, symName: __ZN6fuzzer5PrintERKNSt3__16vectorIhNS0_9allocatorIhEEEEPKc, symObjAddr: 0x68, symBinAddr: 0x100034A20, symSize: 0x68 }
  - { offset: 0x1C5C0E, size: 0x8, addend: 0x0, symName: __ZN6fuzzer14PrintASCIIByteEh, symObjAddr: 0xD0, symBinAddr: 0x100034A88, symSize: 0x88 }
  - { offset: 0x1C5C7D, size: 0x8, addend: 0x0, symName: __ZN6fuzzer10PrintASCIIEPKhmPKc, symObjAddr: 0x158, symBinAddr: 0x100034B10, symSize: 0xCC }
  - { offset: 0x1C5D38, size: 0x8, addend: 0x0, symName: __ZN6fuzzer10PrintASCIIERKNSt3__16vectorIhNS0_9allocatorIhEEEEPKc, symObjAddr: 0x224, symBinAddr: 0x100034BDC, symSize: 0xCC }
  - { offset: 0x1C5E1E, size: 0x8, addend: 0x0, symName: __ZN6fuzzer7ToASCIIEPhm, symObjAddr: 0x2F0, symBinAddr: 0x100034CA8, symSize: 0x54 }
  - { offset: 0x1C5F1B, size: 0x8, addend: 0x0, symName: __ZN6fuzzer7IsASCIIERKNSt3__16vectorIhNS0_9allocatorIhEEEE, symObjAddr: 0x344, symBinAddr: 0x100034CFC, symSize: 0xA0 }
  - { offset: 0x1C603A, size: 0x8, addend: 0x0, symName: __ZN6fuzzer7IsASCIIEPKhm, symObjAddr: 0x3E4, symBinAddr: 0x100034D9C, symSize: 0xA8 }
  - { offset: 0x1C6060, size: 0x8, addend: 0x0, symName: __ZN6fuzzer7IsASCIIEPKhm, symObjAddr: 0x3E4, symBinAddr: 0x100034D9C, symSize: 0xA8 }
  - { offset: 0x1C60F3, size: 0x8, addend: 0x0, symName: __ZN6fuzzer23ParseOneDictionaryEntryERKNSt3__112basic_stringIcNS0_11char_traitsIcEENS0_9allocatorIcEEEEPNS0_6vectorIhNS4_IhEEEE, symObjAddr: 0x48C, symBinAddr: 0x100034E44, symSize: 0x4DC }
  - { offset: 0x1C6FC4, size: 0x8, addend: 0x0, symName: __ZN6fuzzer19ParseDictionaryFileERKNSt3__112basic_stringIcNS0_11char_traitsIcEENS0_9allocatorIcEEEEPNS0_6vectorINS9_IhNS4_IhEEEENS4_ISB_EEEE, symObjAddr: 0x968, symBinAddr: 0x100035320, symSize: 0x40C }
  - { offset: 0x1C6FCF, size: 0x8, addend: 0x0, symName: __ZN6fuzzer19ParseDictionaryFileERKNSt3__112basic_stringIcNS0_11char_traitsIcEENS0_9allocatorIcEEEEPNS0_6vectorINS9_IhNS4_IhEEEENS4_ISB_EEEE, symObjAddr: 0x968, symBinAddr: 0x100035320, symSize: 0x40C }
  - { offset: 0x1C7DB1, size: 0x8, addend: 0x0, symName: __ZN6fuzzer10DescribePCEPKcm, symObjAddr: 0x127C, symBinAddr: 0x100035968, symSize: 0x18C }
  - { offset: 0x1C834F, size: 0x8, addend: 0x0, symName: __ZN6fuzzer7PrintPCEPKcS1_m, symObjAddr: 0x1408, symBinAddr: 0x100035AF4, symSize: 0xA8 }
  - { offset: 0x1C835A, size: 0x8, addend: 0x0, symName: __ZN6fuzzer7PrintPCEPKcS1_m, symObjAddr: 0x1408, symBinAddr: 0x100035AF4, symSize: 0xA8 }
  - { offset: 0x1C8547, size: 0x8, addend: 0x0, symName: __ZN6fuzzer15PrintStackTraceEv, symObjAddr: 0x14B0, symBinAddr: 0x100035B9C, symSize: 0x5C }
  - { offset: 0x1C85E3, size: 0x8, addend: 0x0, symName: __ZN6fuzzer18PrintMemoryProfileEv, symObjAddr: 0x150C, symBinAddr: 0x100035BF8, symSize: 0x64 }
  - { offset: 0x1C868B, size: 0x8, addend: 0x0, symName: __ZN6fuzzer16NumberOfCpuCoresEv, symObjAddr: 0x1570, symBinAddr: 0x100035C5C, symSize: 0x30 }
  - { offset: 0x1C86C7, size: 0x8, addend: 0x0, symName: __ZN6fuzzer14SimpleFastHashEPKvmy, symObjAddr: 0x15A0, symBinAddr: 0x100035C8C, symSize: 0x20 }
  - { offset: 0x1C872F, size: 0x8, addend: 0x0, symName: __ZN6fuzzer14SimpleFastHashEPKvmy, symObjAddr: 0x15A0, symBinAddr: 0x100035C8C, symSize: 0x20 }
  - { offset: 0x1D1501, size: 0x8, addend: 0x0, symName: __GLOBAL__sub_I_FuzzerUtil.cpp, symObjAddr: 0x1930, symBinAddr: 0x100035CAC, symSize: 0x1C }
  - { offset: 0x1D1519, size: 0x8, addend: 0x0, symName: __GLOBAL__sub_I_FuzzerUtil.cpp, symObjAddr: 0x1930, symBinAddr: 0x100035CAC, symSize: 0x1C }
  - { offset: 0x1D333D, size: 0x8, addend: 0x0, symName: __ZN6fuzzerL11SignalMutexE, symObjAddr: 0xBB8, symBinAddr: 0x100044328, symSize: 0x0 }
  - { offset: 0x1D334B, size: 0x8, addend: 0x0, symName: __ZN6fuzzer14ExecuteCommandERKNS_7CommandE, symObjAddr: 0x0, symBinAddr: 0x100035CC8, symSize: 0x3CC }
  - { offset: 0x1D3375, size: 0x8, addend: 0x0, symName: __MergedGlobals, symObjAddr: 0x27450, symBinAddr: 0x100078260, symSize: 0x0 }
  - { offset: 0x1D39EC, size: 0x8, addend: 0x0, symName: __MergedGlobals, symObjAddr: 0x27450, symBinAddr: 0x100078260, symSize: 0x0 }
  - { offset: 0x1D3A06, size: 0x8, addend: 0x0, symName: __MergedGlobals, symObjAddr: 0x27450, symBinAddr: 0x100078260, symSize: 0x0 }
  - { offset: 0x1D3A22, size: 0x8, addend: 0x0, symName: __MergedGlobals, symObjAddr: 0x27450, symBinAddr: 0x100078260, symSize: 0x0 }
  - { offset: 0x1D3A3E, size: 0x8, addend: 0x0, symName: __MergedGlobals, symObjAddr: 0x27450, symBinAddr: 0x100078260, symSize: 0x0 }
  - { offset: 0x1D3CB6, size: 0x8, addend: 0x0, symName: __ZN6fuzzer13DiscardOutputEi, symObjAddr: 0x7C4, symBinAddr: 0x100036094, symSize: 0x54 }
  - { offset: 0x1D3D2D, size: 0x8, addend: 0x0, symName: __ZN6fuzzer13SetThreadNameERNSt3__16threadERKNS0_12basic_stringIcNS0_11char_traitsIcEENS0_9allocatorIcEEEE, symObjAddr: 0x818, symBinAddr: 0x1000360E8, symSize: 0x4 }
  - { offset: 0x1D8B3E, size: 0x8, addend: 0x0, symName: __GLOBAL__sub_I_FuzzerUtilDarwin.cpp, symObjAddr: 0xB9C, symBinAddr: 0x1000360EC, symSize: 0x1C }
  - { offset: 0x1DA552, size: 0x8, addend: 0x0, symName: __ZN6fuzzer13DiscardOutputEi, symObjAddr: 0x7C4, symBinAddr: 0x100036094, symSize: 0x54 }
  - { offset: 0x1DB257, size: 0x8, addend: 0x0, symName: __GLOBAL__sub_I_FuzzerUtilDarwin.cpp, symObjAddr: 0xB9C, symBinAddr: 0x1000360EC, symSize: 0x1C }
  - { offset: 0x1DB26F, size: 0x8, addend: 0x0, symName: __GLOBAL__sub_I_FuzzerUtilDarwin.cpp, symObjAddr: 0xB9C, symBinAddr: 0x1000360EC, symSize: 0x1C }
  - { offset: 0x1DCECD, size: 0x8, addend: 0x0, symName: __ZN6fuzzer14ExecuteCommandERKNS_7CommandEPNSt3__112basic_stringIcNS3_11char_traitsIcEENS3_9allocatorIcEEEE, symObjAddr: 0x0, symBinAddr: 0x100036108, symSize: 0xE0 }
  - { offset: 0x1DCEF3, size: 0x8, addend: 0x0, symName: __ZN6fuzzer8PageSizeEv, symObjAddr: 0x970, symBinAddr: 0x100036680, symSize: 0x60 }
  - { offset: 0x1DCF1D, size: 0x8, addend: 0x0, symName: __MergedGlobals, symObjAddr: 0x27228, symBinAddr: 0x1000782A0, symSize: 0x0 }
  - { offset: 0x1DCF47, size: 0x8, addend: 0x0, symName: __ZN6fuzzerL21upstream_segv_handlerE, symObjAddr: 0x27220, symBinAddr: 0x100078298, symSize: 0x0 }
  - { offset: 0x1DCF55, size: 0x8, addend: 0x0, symName: __ZN6fuzzer14ExecuteCommandERKNS_7CommandEPNSt3__112basic_stringIcNS3_11char_traitsIcEENS3_9allocatorIcEEEE, symObjAddr: 0x0, symBinAddr: 0x100036108, symSize: 0xE0 }
  - { offset: 0x1DD3F7, size: 0x8, addend: 0x0, symName: __ZN6fuzzer8SetTimerEi, symObjAddr: 0x4D8, symBinAddr: 0x1000361E8, symSize: 0x7C }
  - { offset: 0x1DD46D, size: 0x8, addend: 0x0, symName: __ZN6fuzzerL12SetSigactionEiPFviP9__siginfoPvE, symObjAddr: 0x554, symBinAddr: 0x100036264, symSize: 0xB0 }
  - { offset: 0x1DD47E, size: 0x8, addend: 0x0, symName: __ZN6fuzzerL12SetSigactionEiPFviP9__siginfoPvE, symObjAddr: 0x554, symBinAddr: 0x100036264, symSize: 0xB0 }
  - { offset: 0x1DD532, size: 0x8, addend: 0x0, symName: __ZN6fuzzerL12AlarmHandlerEiP9__siginfoPv, symObjAddr: 0x604, symBinAddr: 0x100036314, symSize: 0x4 }
  - { offset: 0x1DD555, size: 0x8, addend: 0x0, symName: __ZN6fuzzerL12AlarmHandlerEiP9__siginfoPv, symObjAddr: 0x604, symBinAddr: 0x100036314, symSize: 0x4 }
  - { offset: 0x1DD5AC, size: 0x8, addend: 0x0, symName: __ZN6fuzzer16SetSignalHandlerERKNS_14FuzzingOptionsE, symObjAddr: 0x608, symBinAddr: 0x100036318, symSize: 0x238 }
  - { offset: 0x1DD702, size: 0x8, addend: 0x0, symName: __ZN6fuzzerL16InterruptHandlerEiP9__siginfoPv, symObjAddr: 0x840, symBinAddr: 0x100036550, symSize: 0x4 }
  - { offset: 0x1DD713, size: 0x8, addend: 0x0, symName: __ZN6fuzzerL16InterruptHandlerEiP9__siginfoPv, symObjAddr: 0x840, symBinAddr: 0x100036550, symSize: 0x4 }
  - { offset: 0x1DD746, size: 0x8, addend: 0x0, symName: __ZN6fuzzerL11SegvHandlerEiP9__siginfoPv, symObjAddr: 0x844, symBinAddr: 0x100036554, symSize: 0x14 }
  - { offset: 0x1DD797, size: 0x8, addend: 0x0, symName: __ZN6fuzzerL12CrashHandlerEiP9__siginfoPv, symObjAddr: 0x858, symBinAddr: 0x100036568, symSize: 0x4 }
  - { offset: 0x1DD7CA, size: 0x8, addend: 0x0, symName: __ZN6fuzzerL21FileSizeExceedHandlerEiP9__siginfoPv, symObjAddr: 0x85C, symBinAddr: 0x10003656C, symSize: 0x4 }
  - { offset: 0x1DD7FD, size: 0x8, addend: 0x0, symName: __ZN6fuzzerL19GracefulExitHandlerEiP9__siginfoPv, symObjAddr: 0x860, symBinAddr: 0x100036570, symSize: 0x4 }
  - { offset: 0x1DD830, size: 0x8, addend: 0x0, symName: __ZN6fuzzer12SleepSecondsEi, symObjAddr: 0x864, symBinAddr: 0x100036574, symSize: 0x4 }
  - { offset: 0x1DD85C, size: 0x8, addend: 0x0, symName: __ZN6fuzzer12SleepSecondsEi, symObjAddr: 0x864, symBinAddr: 0x100036574, symSize: 0x4 }
  - { offset: 0x1DD86F, size: 0x8, addend: 0x0, symName: __ZN6fuzzer6GetPidEv, symObjAddr: 0x868, symBinAddr: 0x100036578, symSize: 0x18 }
  - { offset: 0x1DD89C, size: 0x8, addend: 0x0, symName: __ZN6fuzzer12GetPeakRSSMbEv, symObjAddr: 0x880, symBinAddr: 0x100036590, symSize: 0x4C }
  - { offset: 0x1DD8E3, size: 0x8, addend: 0x0, symName: __ZN6fuzzer15OpenProcessPipeEPKcS1_, symObjAddr: 0x8CC, symBinAddr: 0x1000365DC, symSize: 0x4 }
  - { offset: 0x1DD921, size: 0x8, addend: 0x0, symName: __ZN6fuzzer15OpenProcessPipeEPKcS1_, symObjAddr: 0x8CC, symBinAddr: 0x1000365DC, symSize: 0x4 }
  - { offset: 0x1DD93B, size: 0x8, addend: 0x0, symName: __ZN6fuzzer16CloseProcessPipeEP7__sFILE, symObjAddr: 0x8D0, symBinAddr: 0x1000365E0, symSize: 0x4 }
  - { offset: 0x1DD96B, size: 0x8, addend: 0x0, symName: __ZN6fuzzer16CloseProcessPipeEP7__sFILE, symObjAddr: 0x8D0, symBinAddr: 0x1000365E0, symSize: 0x4 }
  - { offset: 0x1DD97E, size: 0x8, addend: 0x0, symName: __ZN6fuzzer12SearchMemoryEPKvmS1_m, symObjAddr: 0x8D4, symBinAddr: 0x1000365E4, symSize: 0x4 }
  - { offset: 0x1DD9D8, size: 0x8, addend: 0x0, symName: __ZN6fuzzer12SearchMemoryEPKvmS1_m, symObjAddr: 0x8D4, symBinAddr: 0x1000365E4, symSize: 0x4 }
  - { offset: 0x1DDA00, size: 0x8, addend: 0x0, symName: __ZN6fuzzer14DisassembleCmdERKNSt3__112basic_stringIcNS0_11char_traitsIcEENS0_9allocatorIcEEEE, symObjAddr: 0x8D8, symBinAddr: 0x1000365E8, symSize: 0x10 }
  - { offset: 0x1DDA4B, size: 0x8, addend: 0x0, symName: __ZN6fuzzer14SearchRegexCmdERKNSt3__112basic_stringIcNS0_11char_traitsIcEENS0_9allocatorIcEEEE, symObjAddr: 0x8E8, symBinAddr: 0x1000365F8, symSize: 0x88 }
  - { offset: 0x1E42DF, size: 0x8, addend: 0x0, symName: __ZN6fuzzer8SetTimerEi, symObjAddr: 0x4D8, symBinAddr: 0x1000361E8, symSize: 0x7C }
  - { offset: 0x1E6D13, size: 0x8, addend: 0x0, symName: _main, symObjAddr: 0x0, symBinAddr: 0x1000366E0, symSize: 0x34 }
  - { offset: 0x1E6D21, size: 0x8, addend: 0x0, symName: _main, symObjAddr: 0x0, symBinAddr: 0x1000366E0, symSize: 0x34 }
...
