---
triple:          'arm64-apple-darwin'
binary-path:     'build/vuln_fuzzer'
relocations:
  - { offset: 0x404, size: 0x8, addend: 0x0, symName: __ZN6fuzzer18MutationDispatcher9CrossOverEPKhmS2_mPhm, symObjAddr: 0x0, symBinAddr: 0x1000011A0, symSize: 0x1A4 }
  - { offset: 0x68F5, size: 0x8, addend: 0x0, symName: __ZN6fuzzer18MutationDispatcher9CrossOverEPKhmS2_mPhm, symObjAddr: 0x0, symBinAddr: 0x1000011A0, symSize: 0x1A4 }
  - { offset: 0x8F6B, size: 0x8, addend: 0x0, symName: __ZN6fuzzer13BlockCoverage14AppendCoverageERKNSt3__112basic_stringIcNS1_11char_traitsIcEENS1_9allocatorIcEEEE, symObjAddr: 0x0, symBinAddr: 0x100001344, symSize: 0x1E0 }
  - { offset: 0x8F91, size: 0x8, addend: 0x0, symName: __ZN6fuzzer15CollectDataFlowERKNSt3__112basic_stringIcNS0_11char_traitsIcEENS0_9allocatorIcEEEES8_RKNS0_6vectorINS_9SizedFileENS4_ISA_EEEE, symObjAddr: 0x25C4, symBinAddr: 0x100003908, symSize: 0x54C }
  - { offset: 0x8FBC, size: 0x8, addend: 0x0, symName: __ZZN6fuzzer15CollectDataFlowERKNSt3__112basic_stringIcNS0_11char_traitsIcEENS0_9allocatorIcEEEES8_RKNS0_6vectorINS_9SizedFileENS4_ISA_EEEEE8DFSanEnv, symObjAddr: 0x5C7E, symBinAddr: 0x100044370, symSize: 0x0 }
  - { offset: 0xABBB, size: 0x8, addend: 0x0, symName: __ZNK6fuzzer7Command8toStringEv, symObjAddr: 0x2B10, symBinAddr: 0x100003E54, symSize: 0x3F8 }
  - { offset: 0xEDF7, size: 0x8, addend: 0x0, symName: __ZNSt3__119piecewise_constructE, symObjAddr: 0x5CA1, symBinAddr: 0x10003C1A0, symSize: 0x0 }
  - { offset: 0x1982C, size: 0x8, addend: 0x0, symName: __ZNSt3__124__put_character_sequenceB8nn210106IcNS_11char_traitsIcEEEERNS_13basic_ostreamIT_T0_EES7_PKS4_m, symObjAddr: 0x33D8, symBinAddr: 0x10000471C, symSize: 0x124 }
  - { offset: 0x25E50, size: 0x8, addend: 0x0, symName: __ZNSt3__17getlineB8nn210106IcNS_11char_traitsIcEENS_9allocatorIcEEEERNS_13basic_istreamIT_T0_EES9_RNS_12basic_stringIS6_S7_T1_EES6_, symObjAddr: 0x8E8, symBinAddr: 0x100001C2C, symSize: 0x2CC }
  - { offset: 0x297B2, size: 0x8, addend: 0x0, symName: __ZNSt3__120__throw_length_errorB8nn210106EPKc, symObjAddr: 0x2F1C, symBinAddr: 0x100004260, symSize: 0x1C }
  - { offset: 0x297DF, size: 0x8, addend: 0x0, symName: __ZSt28__throw_bad_array_new_lengthB8nn210106v, symObjAddr: 0x2F38, symBinAddr: 0x10000427C, symSize: 0x14 }
  - { offset: 0x2A1A1, size: 0x8, addend: 0x0, symName: __ZNSt3__116__pad_and_outputB8nn210106IcNS_11char_traitsIcEEEENS_19ostreambuf_iteratorIT_T0_EES6_PKS4_S8_S8_RNS_8ios_baseES4_, symObjAddr: 0x34FC, symBinAddr: 0x100004840, symSize: 0x22C }
  - { offset: 0x2A6C1, size: 0x8, addend: 0x0, symName: __ZNSt3__112basic_stringIcNS_11char_traitsIcEENS_9allocatorIcEEE20__throw_length_errorB8nn210106Ev, symObjAddr: 0x3728, symBinAddr: 0x100004A6C, symSize: 0x14 }
  - { offset: 0x2A77A, size: 0x8, addend: 0x0, symName: __ZNSt3__120__throw_out_of_rangeB8nn210106EPKc, symObjAddr: 0x3750, symBinAddr: 0x100004A94, symSize: 0x1C }
  - { offset: 0x2A7A7, size: 0x8, addend: 0x0, symName: __ZNSt3__112basic_stringIcNS_11char_traitsIcEENS_9allocatorIcEEE25__init_copy_ctor_externalEPKcm, symObjAddr: 0x376C, symBinAddr: 0x100004AB0, symSize: 0x8C }
  - { offset: 0x2C3FF, size: 0x8, addend: 0x0, symName: __ZSt28__throw_bad_array_new_lengthB8nn210106v, symObjAddr: 0x2F38, symBinAddr: 0x10000427C, symSize: 0x14 }
  - { offset: 0x2C41D, size: 0x8, addend: 0x0, symName: __ZNSt3__16vectorINS_12basic_stringIcNS_11char_traitsIcEENS_9allocatorIcEEEENS4_IS6_EEE6insertENS_11__wrap_iterIPKS6_EERSA_, symObjAddr: 0x2F4C, symBinAddr: 0x100004290, symSize: 0x260 }
  - { offset: 0x2DFB0, size: 0x8, addend: 0x0, symName: __ZN6fuzzer13BlockCoverage14AppendCoverageERKNSt3__112basic_stringIcNS1_11char_traitsIcEENS1_9allocatorIcEEEE, symObjAddr: 0x0, symBinAddr: 0x100001344, symSize: 0x1E0 }
  - { offset: 0x2E2F3, size: 0x8, addend: 0x0, symName: __ZN6fuzzer13BlockCoverage14AppendCoverageERNSt3__113basic_istreamIcNS1_11char_traitsIcEEEE, symObjAddr: 0x1E0, symBinAddr: 0x100001524, symSize: 0x708 }
  - { offset: 0x2F6D7, size: 0x8, addend: 0x0, symName: __ZNSt3__17getlineB8nn210106IcNS_11char_traitsIcEENS_9allocatorIcEEEERNS_13basic_istreamIT_T0_EES9_RNS_12basic_stringIS6_S7_T1_EES6_, symObjAddr: 0x8E8, symBinAddr: 0x100001C2C, symSize: 0x2CC }
  - { offset: 0x30290, size: 0x8, addend: 0x0, symName: __ZNSt3__112__hash_tableImNS_4hashImEENS_8equal_toImEENS_9allocatorImEEE25__emplace_unique_key_argsImJRKmEEENS_4pairINS_15__hash_iteratorIPNS_11__hash_nodeImPvEEEEbEERKT_DpOT0_, symObjAddr: 0x39B8, symBinAddr: 0x100004CFC, symSize: 0x320 }
  - { offset: 0x307D1, size: 0x8, addend: 0x0, symName: __ZNSt3__112__hash_tableINS_17__hash_value_typeImNS_6vectorIjNS_9allocatorIjEEEEEENS_22__unordered_map_hasherImNS_4pairIKmS5_EENS_4hashImEENS_8equal_toImEELb1EEENS_21__unordered_map_equalImSA_SE_SC_Lb1EEENS3_ISA_EEE25__emplace_unique_key_argsImJSA_EEENS8_INS_15__hash_iteratorIPNS_11__hash_nodeIS6_PvEEEEbEERKT_DpOT0_, symObjAddr: 0x3EB8, symBinAddr: 0x1000051FC, symSize: 0x338 }
  - { offset: 0x30DF2, size: 0x8, addend: 0x0, symName: __ZNSt3__16vectorIjNS_9allocatorIjEEE20__throw_length_errorB8nn210106Ev, symObjAddr: 0x3EA4, symBinAddr: 0x1000051E8, symSize: 0x14 }
  - { offset: 0x30E0A, size: 0x8, addend: 0x0, symName: __ZNSt3__112__hash_tableINS_17__hash_value_typeImNS_6vectorIjNS_9allocatorIjEEEEEENS_22__unordered_map_hasherImNS_4pairIKmS5_EENS_4hashImEENS_8equal_toImEELb1EEENS_21__unordered_map_equalImSA_SE_SC_Lb1EEENS3_ISA_EEE25__emplace_unique_key_argsImJSA_EEENS8_INS_15__hash_iteratorIPNS_11__hash_nodeIS6_PvEEEEbEERKT_DpOT0_, symObjAddr: 0x3EB8, symBinAddr: 0x1000051FC, symSize: 0x338 }
  - { offset: 0x30E15, size: 0x8, addend: 0x0, symName: __ZNSt3__112basic_stringIcNS_11char_traitsIcEENS_9allocatorIcEEE20__throw_length_errorB8nn210106Ev, symObjAddr: 0x3728, symBinAddr: 0x100004A6C, symSize: 0x14 }
  - { offset: 0x30E2D, size: 0x8, addend: 0x0, symName: __ZNSt3__112basic_stringIcNS_11char_traitsIcEENS_9allocatorIcEEE20__throw_out_of_rangeB8nn210106Ev, symObjAddr: 0x373C, symBinAddr: 0x100004A80, symSize: 0x14 }
  - { offset: 0x3104E, size: 0x8, addend: 0x0, symName: __ZNSt3__112basic_stringIcNS_11char_traitsIcEENS_9allocatorIcEEE6appendB8nn210106IPKcTnNS_9enable_ifIXsr31__has_forward_iterator_categoryIT_EE5valueEiE4typeELi0EEERS5_SA_SA_, symObjAddr: 0x37F8, symBinAddr: 0x100004B3C, symSize: 0x1C0 }
  - { offset: 0x317B8, size: 0x8, addend: 0x0, symName: __ZNSt3__112__hash_tableImNS_4hashImEENS_8equal_toImEENS_9allocatorImEEE25__emplace_unique_key_argsImJRKmEEENS_4pairINS_15__hash_iteratorIPNS_11__hash_nodeImPvEEEEbEERKT_DpOT0_, symObjAddr: 0x39B8, symBinAddr: 0x100004CFC, symSize: 0x320 }
  - { offset: 0x31CF8, size: 0x8, addend: 0x0, symName: __ZNK6fuzzer13BlockCoverage15FunctionWeightsEm, symObjAddr: 0xBB4, symBinAddr: 0x100001EF8, symSize: 0x378 }
  - { offset: 0x3251A, size: 0x8, addend: 0x0, symName: __ZN6fuzzer13DataFlowTrace12ReadCoverageERKNSt3__112basic_stringIcNS1_11char_traitsIcEENS1_9allocatorIcEEEE, symObjAddr: 0xF2C, symBinAddr: 0x100002270, symSize: 0x274 }
  - { offset: 0x32525, size: 0x8, addend: 0x0, symName: __ZNSt3__16vectorIdNS_9allocatorIdEEE20__throw_length_errorB8nn210106Ev, symObjAddr: 0x43BC, symBinAddr: 0x100005700, symSize: 0x14 }
  - { offset: 0x3253D, size: 0x8, addend: 0x0, symName: __ZNKSt3__112__hash_tableINS_12basic_stringIcNS_11char_traitsIcEENS_9allocatorIcEEEENS_4hashIS6_EENS_8equal_toIS6_EENS4_IS6_EEE4findIS6_EENS_21__hash_const_iteratorIPNS_11__hash_nodeIS6_PvEEEERKT_, symObjAddr: 0x43D0, symBinAddr: 0x100005714, symSize: 0x1DC }
  - { offset: 0x32D62, size: 0x8, addend: 0x0, symName: __ZN6fuzzer13DataFlowTrace12ReadCoverageERKNSt3__112basic_stringIcNS1_11char_traitsIcEENS1_9allocatorIcEEEE, symObjAddr: 0xF2C, symBinAddr: 0x100002270, symSize: 0x274 }
  - { offset: 0x33647, size: 0x8, addend: 0x0, symName: __ZN6fuzzer13DataFlowTrace4InitERKNSt3__112basic_stringIcNS1_11char_traitsIcEENS1_9allocatorIcEEEEPS7_RNS1_6vectorINS_9SizedFileENS5_ISC_EEEERNS_6RandomE, symObjAddr: 0x11A0, symBinAddr: 0x1000024E4, symSize: 0x1238 }
  - { offset: 0x3366E, size: 0x8, addend: 0x0, symName: __ZNKSt3__112__hash_tableINS_12basic_stringIcNS_11char_traitsIcEENS_9allocatorIcEEEENS_4hashIS6_EENS_8equal_toIS6_EENS4_IS6_EEE4findIS6_EENS_21__hash_const_iteratorIPNS_11__hash_nodeIS6_PvEEEERKT_, symObjAddr: 0x43D0, symBinAddr: 0x100005714, symSize: 0x1DC }
  - { offset: 0x339E0, size: 0x8, addend: 0x0, symName: __ZNSt3__112basic_stringIcNS_11char_traitsIcEENS_9allocatorIcEEE20__throw_out_of_rangeB8nn210106Ev, symObjAddr: 0x373C, symBinAddr: 0x100004A80, symSize: 0x14 }
  - { offset: 0x339F8, size: 0x8, addend: 0x0, symName: __ZNSt3__120__throw_out_of_rangeB8nn210106EPKc, symObjAddr: 0x3750, symBinAddr: 0x100004A94, symSize: 0x1C }
  - { offset: 0x348B4, size: 0x8, addend: 0x0, symName: __ZN6fuzzer13DataFlowTrace4InitERKNSt3__112basic_stringIcNS1_11char_traitsIcEENS1_9allocatorIcEEEEPS7_RNS1_6vectorINS_9SizedFileENS5_ISC_EEEERNS_6RandomE, symObjAddr: 0x11A0, symBinAddr: 0x1000024E4, symSize: 0x1238 }
  - { offset: 0x38594, size: 0x8, addend: 0x0, symName: __ZN6fuzzer13BlockCoverage24GetNumberOfCoveredBlocksEm, symObjAddr: 0x23D8, symBinAddr: 0x10000371C, symSize: 0x1EC }
  - { offset: 0x385A9, size: 0x8, addend: 0x0, symName: __ZNSt3__112__hash_tableINS_12basic_stringIcNS_11char_traitsIcEENS_9allocatorIcEEEENS_4hashIS6_EENS_8equal_toIS6_EENS4_IS6_EEE25__emplace_unique_key_argsIS6_JS6_EEENS_4pairINS_15__hash_iteratorIPNS_11__hash_nodeIS6_PvEEEEbEERKT_DpOT0_, symObjAddr: 0x45AC, symBinAddr: 0x1000058F0, symSize: 0x3C0 }
  - { offset: 0x38D3E, size: 0x8, addend: 0x0, symName: __ZNSt3__112basic_stringIcNS_11char_traitsIcEENS_9allocatorIcEEE25__init_copy_ctor_externalEPKcm, symObjAddr: 0x376C, symBinAddr: 0x100004AB0, symSize: 0x8C }
  - { offset: 0x38EE7, size: 0x8, addend: 0x0, symName: __ZNSt3__112basic_stringIcNS_11char_traitsIcEENS_9allocatorIcEEE6appendB8nn210106IPKcTnNS_9enable_ifIXsr31__has_forward_iterator_categoryIT_EE5valueEiE4typeELi0EEERS5_SA_SA_, symObjAddr: 0x37F8, symBinAddr: 0x100004B3C, symSize: 0x1C0 }
  - { offset: 0x38EF2, size: 0x8, addend: 0x0, symName: __ZNSt3__131piecewise_constant_distributionIdE10param_typeC2INS_11__wrap_iterIPdEES6_EET_S7_T0_, symObjAddr: 0x4B38, symBinAddr: 0x100005E7C, symSize: 0x1A4 }
  - { offset: 0x39686, size: 0x8, addend: 0x0, symName: __ZNSt3__16vectorIdNS_9allocatorIdEEE6assignEmRKd, symObjAddr: 0x4CDC, symBinAddr: 0x100006020, symSize: 0x1EC }
  - { offset: 0x396A3, size: 0x8, addend: 0x0, symName: __ZN6fuzzer13BlockCoverage24GetNumberOfCoveredBlocksEm, symObjAddr: 0x23D8, symBinAddr: 0x10000371C, symSize: 0x1EC }
  - { offset: 0x39706, size: 0x8, addend: 0x0, symName: __ZN6fuzzer13BlockCoverage24GetNumberOfCoveredBlocksEm, symObjAddr: 0x23D8, symBinAddr: 0x10000371C, symSize: 0x1EC }
  - { offset: 0x39721, size: 0x8, addend: 0x0, symName: __ZN6fuzzer13BlockCoverage24GetNumberOfCoveredBlocksEm, symObjAddr: 0x23D8, symBinAddr: 0x10000371C, symSize: 0x1EC }
  - { offset: 0x39746, size: 0x8, addend: 0x0, symName: __ZN6fuzzer13BlockCoverage24GetNumberOfCoveredBlocksEm, symObjAddr: 0x23D8, symBinAddr: 0x10000371C, symSize: 0x1EC }
  - { offset: 0x39762, size: 0x8, addend: 0x0, symName: __ZN6fuzzer13BlockCoverage24GetNumberOfCoveredBlocksEm, symObjAddr: 0x23D8, symBinAddr: 0x10000371C, symSize: 0x1EC }
  - { offset: 0x398E3, size: 0x8, addend: 0x0, symName: __ZNSt3__112__hash_tableINS_17__hash_value_typeINS_12basic_stringIcNS_11char_traitsIcEENS_9allocatorIcEEEENS_6vectorIhNS5_IhEEEEEENS_22__unordered_map_hasherIS7_NS_4pairIKS7_SA_EENS_4hashIS7_EENS_8equal_toIS7_EELb1EEENS_21__unordered_map_equalIS7_SF_SJ_SH_Lb1EEENS5_ISF_EEE25__emplace_unique_key_argsIS7_JRKNS_21piecewise_construct_tENS_5tupleIJRSE_EEENST_IJEEEEEENSD_INS_15__hash_iteratorIPNS_11__hash_nodeISB_PvEEEEbEERKT_DpOT0_, symObjAddr: 0x53B0, symBinAddr: 0x1000066F4, symSize: 0x3DC }
  - { offset: 0x3A196, size: 0x8, addend: 0x0, symName: __ZNSt3__16vectorINS_12basic_stringIcNS_11char_traitsIcEENS_9allocatorIcEEEENS4_IS6_EEE20__throw_length_errorB8nn210106Ev, symObjAddr: 0x33C4, symBinAddr: 0x100004708, symSize: 0x14 }
  - { offset: 0x3A1AE, size: 0x8, addend: 0x0, symName: __ZNSt3__124__put_character_sequenceB8nn210106IcNS_11char_traitsIcEEEERNS_13basic_ostreamIT_T0_EES7_PKS4_m, symObjAddr: 0x33D8, symBinAddr: 0x10000471C, symSize: 0x124 }
  - { offset: 0x3A1B9, size: 0x8, addend: 0x0, symName: __ZNSt3__16vectorIhNS_9allocatorIhEEE20__throw_length_errorB8nn210106Ev, symObjAddr: 0x2F08, symBinAddr: 0x10000424C, symSize: 0x14 }
  - { offset: 0x3A1D1, size: 0x8, addend: 0x0, symName: __ZNSt3__120__throw_length_errorB8nn210106EPKc, symObjAddr: 0x2F1C, symBinAddr: 0x100004260, symSize: 0x1C }
  - { offset: 0x3A37C, size: 0x8, addend: 0x0, symName: __ZNSt3__16vectorINS_12basic_stringIcNS_11char_traitsIcEENS_9allocatorIcEEEENS4_IS6_EEE6insertENS_11__wrap_iterIPKS6_EERSA_, symObjAddr: 0x2F4C, symBinAddr: 0x100004290, symSize: 0x260 }
  - { offset: 0x3AC05, size: 0x8, addend: 0x0, symName: __ZNSt3__114__split_bufferINS_12basic_stringIcNS_11char_traitsIcEENS_9allocatorIcEEEERNS4_IS6_EEE12emplace_backIJRKS6_EEEvDpOT_, symObjAddr: 0x31AC, symBinAddr: 0x1000044F0, symSize: 0x218 }
  - { offset: 0x3AC10, size: 0x8, addend: 0x0, symName: __ZNK6fuzzer7Command8toStringEv, symObjAddr: 0x2B10, symBinAddr: 0x100003E54, symSize: 0x3F8 }
  - { offset: 0x3B8C8, size: 0x8, addend: 0x0, symName: __ZNSt3__16vectorIhNS_9allocatorIhEEE20__throw_length_errorB8nn210106Ev, symObjAddr: 0x2F08, symBinAddr: 0x10000424C, symSize: 0x14 }
  - { offset: 0x3BE83, size: 0x8, addend: 0x0, symName: __ZNSt3__114__split_bufferINS_12basic_stringIcNS_11char_traitsIcEENS_9allocatorIcEEEERNS4_IS6_EEE12emplace_backIJRKS6_EEEvDpOT_, symObjAddr: 0x31AC, symBinAddr: 0x1000044F0, symSize: 0x218 }
  - { offset: 0x3C679, size: 0x8, addend: 0x0, symName: __ZNSt3__16vectorINS_12basic_stringIcNS_11char_traitsIcEENS_9allocatorIcEEEENS4_IS6_EEE20__throw_length_errorB8nn210106Ev, symObjAddr: 0x33C4, symBinAddr: 0x100004708, symSize: 0x14 }
  - { offset: 0x3CF1F, size: 0x8, addend: 0x0, symName: __ZNSt3__112__hash_tableImNS_4hashImEENS_8equal_toImEENS_9allocatorImEEE11__do_rehashILb1EEEvm, symObjAddr: 0x3CD8, symBinAddr: 0x10000501C, symSize: 0x1CC }
  - { offset: 0x3D29D, size: 0x8, addend: 0x0, symName: __ZNSt3__16vectorIjNS_9allocatorIjEEE20__throw_length_errorB8nn210106Ev, symObjAddr: 0x3EA4, symBinAddr: 0x1000051E8, symSize: 0x14 }
  - { offset: 0x3D601, size: 0x8, addend: 0x0, symName: __ZNSt3__112__hash_tableINS_17__hash_value_typeImNS_6vectorIjNS_9allocatorIjEEEEEENS_22__unordered_map_hasherImNS_4pairIKmS5_EENS_4hashImEENS_8equal_toImEELb1EEENS_21__unordered_map_equalImSA_SE_SC_Lb1EEENS3_ISA_EEE11__do_rehashILb1EEEvm, symObjAddr: 0x41F0, symBinAddr: 0x100005534, symSize: 0x1CC }
  - { offset: 0x3D97F, size: 0x8, addend: 0x0, symName: __ZNSt3__16vectorIdNS_9allocatorIdEEE20__throw_length_errorB8nn210106Ev, symObjAddr: 0x43BC, symBinAddr: 0x100005700, symSize: 0x14 }
  - { offset: 0x3DD66, size: 0x8, addend: 0x0, symName: __ZNSt3__112__hash_tableINS_12basic_stringIcNS_11char_traitsIcEENS_9allocatorIcEEEENS_4hashIS6_EENS_8equal_toIS6_EENS4_IS6_EEE11__do_rehashILb1EEEvm, symObjAddr: 0x496C, symBinAddr: 0x100005CB0, symSize: 0x1CC }
  - { offset: 0x3E0E4, size: 0x8, addend: 0x0, symName: __ZNSt3__131piecewise_constant_distributionIdE10param_typeC2INS_11__wrap_iterIPdEES6_EET_S7_T0_, symObjAddr: 0x4B38, symBinAddr: 0x100005E7C, symSize: 0x1A4 }
  - { offset: 0x3E58E, size: 0x8, addend: 0x0, symName: __ZNSt3__16vectorIdNS_9allocatorIdEEE8__appendEm, symObjAddr: 0x5204, symBinAddr: 0x100006548, symSize: 0x1AC }
  - { offset: 0x3E9B6, size: 0x8, addend: 0x0, symName: __ZNSt3__112__hash_tableINS_17__hash_value_typeINS_12basic_stringIcNS_11char_traitsIcEENS_9allocatorIcEEEENS_6vectorIhNS5_IhEEEEEENS_22__unordered_map_hasherIS7_NS_4pairIKS7_SA_EENS_4hashIS7_EENS_8equal_toIS7_EELb1EEENS_21__unordered_map_equalIS7_SF_SJ_SH_Lb1EEENS5_ISF_EEE25__emplace_unique_key_argsIS7_JRKNS_21piecewise_construct_tENS_5tupleIJRSE_EEENST_IJEEEEEENSD_INS_15__hash_iteratorIPNS_11__hash_nodeISB_PvEEEEbEERKT_DpOT0_, symObjAddr: 0x53B0, symBinAddr: 0x1000066F4, symSize: 0x3DC }
  - { offset: 0x3E9C1, size: 0x8, addend: 0x0, symName: __ZNSt3__16vectorIdNS_9allocatorIdEEE6assignEmRKd, symObjAddr: 0x4CDC, symBinAddr: 0x100006020, symSize: 0x1EC }
  - { offset: 0x3EE86, size: 0x8, addend: 0x0, symName: __ZNSt3__16vectorIdNS_9allocatorIdEEE9push_backB8nn210106ERKd, symObjAddr: 0x4EC8, symBinAddr: 0x10000620C, symSize: 0xF8 }
  - { offset: 0x3EE91, size: 0x8, addend: 0x0, symName: __ZNSt3__16vectorIdNS_9allocatorIdEEE9push_backB8nn210106ERKd, symObjAddr: 0x4EC8, symBinAddr: 0x10000620C, symSize: 0xF8 }
  - { offset: 0x3F2A8, size: 0x8, addend: 0x0, symName: __ZNSt3__131piecewise_constant_distributionIdE10param_type6__initEv, symObjAddr: 0x4FC0, symBinAddr: 0x100006304, symSize: 0x244 }
  - { offset: 0x3F2B3, size: 0x8, addend: 0x0, symName: __ZNSt3__131piecewise_constant_distributionIdE10param_type6__initEv, symObjAddr: 0x4FC0, symBinAddr: 0x100006304, symSize: 0x244 }
  - { offset: 0x3FC67, size: 0x8, addend: 0x0, symName: __ZNSt3__112__hash_tableINS_17__hash_value_typeINS_12basic_stringIcNS_11char_traitsIcEENS_9allocatorIcEEEENS_6vectorIhNS5_IhEEEEEENS_22__unordered_map_hasherIS7_NS_4pairIKS7_SA_EENS_4hashIS7_EENS_8equal_toIS7_EELb1EEENS_21__unordered_map_equalIS7_SF_SJ_SH_Lb1EEENS5_ISF_EEE11__do_rehashILb1EEEvm, symObjAddr: 0x578C, symBinAddr: 0x100006AD0, symSize: 0x1CC }
  - { offset: 0x41E22, size: 0x8, addend: 0x0, symName: __ZN6fuzzerL2MuE, symObjAddr: 0x99A8, symBinAddr: 0x100044398, symSize: 0x0 }
  - { offset: 0x41E3D, size: 0x8, addend: 0x0, symName: __ZN6fuzzer2EFE, symObjAddr: 0x148CD0, symBinAddr: 0x100044600, symSize: 0x0 }
  - { offset: 0x41F5E, size: 0x8, addend: 0x0, symName: __MergedGlobals, symObjAddr: 0x148CD8, symBinAddr: 0x100078208, symSize: 0x0 }
  - { offset: 0x42386, size: 0x8, addend: 0x0, symName: __MergedGlobals, symObjAddr: 0x148CD8, symBinAddr: 0x100078208, symSize: 0x0 }
  - { offset: 0x423A2, size: 0x8, addend: 0x0, symName: __MergedGlobals, symObjAddr: 0x148CD8, symBinAddr: 0x100078208, symSize: 0x0 }
  - { offset: 0x423CB, size: 0x8, addend: 0x0, symName: __ZN6fuzzerL16FlagDescriptionsE, symObjAddr: 0xCA08, symBinAddr: 0x100040558, symSize: 0x0 }
  - { offset: 0x43EE5, size: 0x8, addend: 0x0, symName: __ZN6fuzzer17CloneArgsWithoutXERKNSt3__16vectorINS0_12basic_stringIcNS0_11char_traitsIcEENS0_9allocatorIcEEEENS5_IS7_EEEEPKcSD_, symObjAddr: 0x4, symBinAddr: 0x100006CA0, symSize: 0x244 }
  - { offset: 0x4474C, size: 0x8, addend: 0x0, symName: __ZN6fuzzer10RunOneTestEPNS_6FuzzerEPKcm, symObjAddr: 0x248, symBinAddr: 0x100006EE4, symSize: 0x160 }
  - { offset: 0x44757, size: 0x8, addend: 0x0, symName: __ZN6fuzzer10RunOneTestEPNS_6FuzzerEPKcm, symObjAddr: 0x248, symBinAddr: 0x100006EE4, symSize: 0x160 }
  - { offset: 0x44D63, size: 0x8, addend: 0x0, symName: __ZNSt3__112basic_stringIcNS_11char_traitsIcEENS_9allocatorIcEEEC1B8nn210106ILi0EEEPKc, symObjAddr: 0x3A8, symBinAddr: 0x100007044, symSize: 0xA8 }
  - { offset: 0x44D8D, size: 0x8, addend: 0x0, symName: __ZN6fuzzer17CleanseCrashInputERKNSt3__16vectorINS0_12basic_stringIcNS0_11char_traitsIcEENS0_9allocatorIcEEEENS5_IS7_EEEERKNS_14FuzzingOptionsE, symObjAddr: 0x450, symBinAddr: 0x1000070EC, symSize: 0x9D4 }
  - { offset: 0x46DE2, size: 0x8, addend: 0x0, symName: __ZN6fuzzer7Command10removeFlagERKNSt3__112basic_stringIcNS1_11char_traitsIcEENS1_9allocatorIcEEEE, symObjAddr: 0xE24, symBinAddr: 0x100007AC0, symSize: 0x21C }
  - { offset: 0x46E64, size: 0x8, addend: 0x0, symName: __ZN6fuzzer18MinimizeCrashInputERKNSt3__16vectorINS0_12basic_stringIcNS0_11char_traitsIcEENS0_9allocatorIcEEEENS5_IS7_EEEERKNS_14FuzzingOptionsE, symObjAddr: 0x11F0, symBinAddr: 0x100007E8C, symSize: 0xEEC }
  - { offset: 0x4B4F8, size: 0x8, addend: 0x0, symName: __ZN6fuzzer7Command7addFlagERKNSt3__112basic_stringIcNS1_11char_traitsIcEENS1_9allocatorIcEEEES9_, symObjAddr: 0x20DC, symBinAddr: 0x100008D78, symSize: 0x1A8 }
  - { offset: 0x4B51D, size: 0x8, addend: 0x0, symName: __ZN6fuzzerL26GetDedupTokenFromCmdOutputERKNSt3__112basic_stringIcNS0_11char_traitsIcEENS0_9allocatorIcEEEE, symObjAddr: 0x267C, symBinAddr: 0x100008F20, symSize: 0x240 }
  - { offset: 0x4BC51, size: 0x8, addend: 0x0, symName: __ZN6fuzzer30MinimizeCrashInputInternalStepEPNS_6FuzzerEPNS_11InputCorpusE, symObjAddr: 0x28BC, symBinAddr: 0x100009160, symSize: 0xFC }
  - { offset: 0x4BC71, size: 0x8, addend: 0x0, symName: __ZN6fuzzer30MinimizeCrashInputInternalStepEPNS_6FuzzerEPNS_11InputCorpusE, symObjAddr: 0x28BC, symBinAddr: 0x100009160, symSize: 0xFC }
  - { offset: 0x4BE82, size: 0x8, addend: 0x0, symName: __ZN6fuzzer5MergeEPNS_6FuzzerERNS_14FuzzingOptionsERKNSt3__16vectorINS4_12basic_stringIcNS4_11char_traitsIcEENS4_9allocatorIcEEEENS9_ISB_EEEESF_PKc, symObjAddr: 0x29B8, symBinAddr: 0x10000925C, symSize: 0x334 }
  - { offset: 0x4BE93, size: 0x8, addend: 0x0, symName: __ZN6fuzzer5MergeEPNS_6FuzzerERNS_14FuzzingOptionsERKNSt3__16vectorINS4_12basic_stringIcNS4_11char_traitsIcEENS4_9allocatorIcEEEENS9_ISB_EEEESF_PKc, symObjAddr: 0x29B8, symBinAddr: 0x10000925C, symSize: 0x334 }
  - { offset: 0x4CCCE, size: 0x8, addend: 0x0, symName: __ZN6fuzzer17AnalyzeDictionaryEPNS_6FuzzerERKNSt3__16vectorINS3_IhNS2_9allocatorIhEEEENS4_IS6_EEEERS8_, symObjAddr: 0x2CEC, symBinAddr: 0x100009590, symSize: 0x698 }
  - { offset: 0x4CD38, size: 0x8, addend: 0x0, symName: __ZN6fuzzer17AnalyzeDictionaryEPNS_6FuzzerERKNSt3__16vectorINS3_IhNS2_9allocatorIhEEEENS4_IS6_EEEERS8_, symObjAddr: 0x2CEC, symBinAddr: 0x100009590, symSize: 0x698 }
  - { offset: 0x4E2E2, size: 0x8, addend: 0x0, symName: '__ZNK6fuzzer7TracePC15CollectFeaturesIZNS_17AnalyzeDictionaryEPNS_6FuzzerERKNSt3__16vectorINS5_IhNS4_9allocatorIhEEEENS6_IS8_EEEERSA_E3$_0EEmT_', symObjAddr: 0x3384, symBinAddr: 0x100009C28, symSize: 0x290 }
  - { offset: 0x4EA13, size: 0x8, addend: 0x0, symName: '__ZN6fuzzer18ForEachNonZeroByteIZNKS_7TracePC15CollectFeaturesIZNS_17AnalyzeDictionaryEPNS_6FuzzerERKNSt3__16vectorINS6_IhNS5_9allocatorIhEEEENS7_IS9_EEEERSB_E3$_0EEmT_EUlmmhE_EEmPKhSJ_mSG_', symObjAddr: 0x8F70, symBinAddr: 0x10000EF24, symSize: 0x3D8 }
  - { offset: 0x4EF03, size: 0x8, addend: 0x0, symName: __ZNSt3__16vectorImNS_9allocatorImEEE9push_backB8nn210106ERKm, symObjAddr: 0x9348, symBinAddr: 0x10000F2FC, symSize: 0xF8 }
  - { offset: 0x4EF35, size: 0x8, addend: 0x0, symName: '__ZN6fuzzer18ForEachNonZeroByteIZNKS_7TracePC15CollectFeaturesIZNS_17AnalyzeDictionaryEPNS_6FuzzerERKNSt3__16vectorINS6_IhNS5_9allocatorIhEEEENS7_IS9_EEEERSB_E3$_1EEmT_EUlmmhE_EEmPKhSJ_mSG_', symObjAddr: 0x9454, symBinAddr: 0x10000F408, symSize: 0x3D8 }
  - { offset: 0x4F425, size: 0x8, addend: 0x0, symName: __ZNSt3__16vectorINS_12basic_stringIcNS_11char_traitsIcEENS_9allocatorIcEEEENS4_IS6_EEE16__init_with_sizeB8nn210106IPPcSB_EEvT_T0_m, symObjAddr: 0x982C, symBinAddr: 0x10000F7E0, symSize: 0x118 }
  - { offset: 0x4F439, size: 0x8, addend: 0x0, symName: __ZN6fuzzer14ParseSeedInutsEPKc, symObjAddr: 0x38A4, symBinAddr: 0x10000A148, symSize: 0x49C }
  - { offset: 0x50851, size: 0x8, addend: 0x0, symName: __ZNSt3__16vectorINS_12basic_stringIcNS_11char_traitsIcEENS_9allocatorIcEEEENS4_IS6_EEE9push_backB8nn210106EOS6_, symObjAddr: 0x3D40, symBinAddr: 0x10000A5E4, symSize: 0x140 }
  - { offset: 0x50B0B, size: 0x8, addend: 0x0, symName: __ZN6fuzzer12FuzzerDriverEPiPPPcPFiPKhmE, symObjAddr: 0x3F00, symBinAddr: 0x10000A7A4, symSize: 0x1F54 }
  - { offset: 0x56C71, size: 0x8, addend: 0x0, symName: __ZN6fuzzerL23ValidateDirectoryExistsERKNSt3__112basic_stringIcNS0_11char_traitsIcEENS0_9allocatorIcEEEEb, symObjAddr: 0x5E54, symBinAddr: 0x10000C6F8, symSize: 0xBC }
  - { offset: 0x56CC6, size: 0x8, addend: 0x0, symName: __ZN6fuzzerL23ValidateDirectoryExistsERKNSt3__112basic_stringIcNS0_11char_traitsIcEENS0_9allocatorIcEEEEb, symObjAddr: 0x5E54, symBinAddr: 0x10000C6F8, symSize: 0xBC }
  - { offset: 0x56EB8, size: 0x8, addend: 0x0, symName: __ZN6fuzzerL11ReadCorporaERKNSt3__16vectorINS0_12basic_stringIcNS0_11char_traitsIcEENS0_9allocatorIcEEEENS5_IS7_EEEESB_, symObjAddr: 0x5F10, symBinAddr: 0x10000C7B4, symSize: 0x188 }
  - { offset: 0x56F43, size: 0x8, addend: 0x0, symName: __ZN6fuzzerL11ReadCorporaERKNSt3__16vectorINS0_12basic_stringIcNS0_11char_traitsIcEENS0_9allocatorIcEEEENS5_IS7_EEEESB_, symObjAddr: 0x5F10, symBinAddr: 0x10000C7B4, symSize: 0x188 }
  - { offset: 0x575AB, size: 0x8, addend: 0x0, symName: __ZN6fuzzerL11PulseThreadEv, symObjAddr: 0x6CF4, symBinAddr: 0x10000CD48, symSize: 0x40 }
  - { offset: 0x576A6, size: 0x8, addend: 0x0, symName: __ZN6fuzzerL12WorkerThreadERKNS_7CommandEPNSt3__16atomicIjEEjPNS4_IbEE, symObjAddr: 0x6D34, symBinAddr: 0x10000CD88, symSize: 0x2D0 }
  - { offset: 0x58374, size: 0x8, addend: 0x0, symName: __ZN6fuzzerL9RssThreadEPNS_6FuzzerEm, symObjAddr: 0x764C, symBinAddr: 0x10000D6A0, symSize: 0x34 }
  - { offset: 0x70784, size: 0x8, addend: 0x0, symName: __ZNSt3__111__introsortINS_17_ClassicAlgPolicyERNS_6__lessIvvEEPN6fuzzer9SizedFileELb0EEEvT1_S8_T0_NS_15iterator_traitsIS8_E15difference_typeEb, symObjAddr: 0x7A50, symBinAddr: 0x10000DA04, symSize: 0x528 }
  - { offset: 0x716A4, size: 0x8, addend: 0x0, symName: __ZNSt3__111__sift_downB8nn210106INS_17_ClassicAlgPolicyERNS_6__lessIvvEEPN6fuzzer9SizedFileEEEvT1_OT0_NS_15iterator_traitsIS8_E15difference_typeES8_, symObjAddr: 0x8B50, symBinAddr: 0x10000EB04, symSize: 0x178 }
  - { offset: 0x71B6E, size: 0x8, addend: 0x0, symName: __ZNSt3__131__partition_with_equals_on_leftB8nn210106INS_17_ClassicAlgPolicyEPN6fuzzer9SizedFileERNS_6__lessIvvEEEET0_S8_S8_T1_, symObjAddr: 0x8598, symBinAddr: 0x10000E54C, symSize: 0x1AC }
  - { offset: 0x722D7, size: 0x8, addend: 0x0, symName: __ZNSt3__132__partition_with_equals_on_rightB8nn210106INS_17_ClassicAlgPolicyEPN6fuzzer9SizedFileERNS_6__lessIvvEEEENS_4pairIT0_bEES9_S9_T1_, symObjAddr: 0x8744, symBinAddr: 0x10000E6F8, symSize: 0x1B8 }
  - { offset: 0x72A4B, size: 0x8, addend: 0x0, symName: __ZNSt3__127__insertion_sort_incompleteB8nn210106INS_17_ClassicAlgPolicyERNS_6__lessIvvEEPN6fuzzer9SizedFileEEEbT1_S8_T0_, symObjAddr: 0x88FC, symBinAddr: 0x10000E8B0, symSize: 0x254 }
  - { offset: 0x77238, size: 0x8, addend: 0x0, symName: __ZNSt3__19remove_ifB8nn210106INS_11__wrap_iterIPNS_12basic_stringIcNS_11char_traitsIcEENS_9allocatorIcEEEEEEZN6fuzzer7Command10removeFlagERKS7_EUlSD_E_EET_SF_SF_T0_, symObjAddr: 0x6164, symBinAddr: 0x10000C9C4, symSize: 0x134 }
  - { offset: 0x778C4, size: 0x8, addend: 0x0, symName: __ZNSt3__16removeB8nn210106INS_11__wrap_iterIPNS_12basic_stringIcNS_11char_traitsIcEENS_9allocatorIcEEEEEES7_EET_SA_SA_RKT0_, symObjAddr: 0x62C8, symBinAddr: 0x10000CAF8, symSize: 0x140 }
  - { offset: 0x7D152, size: 0x8, addend: 0x0, symName: __ZNSt3__16removeB8nn210106INS_11__wrap_iterIPNS_12basic_stringIcNS_11char_traitsIcEENS_9allocatorIcEEEEEES7_EET_SA_SA_RKT0_, symObjAddr: 0x62C8, symBinAddr: 0x10000CAF8, symSize: 0x140 }
  - { offset: 0x7DB13, size: 0x8, addend: 0x0, symName: __ZNSt3__114__thread_proxyB8nn210106INS_5tupleIJNS_10unique_ptrINS_15__thread_structENS_14default_deleteIS3_EEEEPFvvEEEEEEPvSA_, symObjAddr: 0x7004, symBinAddr: 0x10000D058, symSize: 0x60 }
  - { offset: 0x7E05C, size: 0x8, addend: 0x0, symName: __ZNSt3__114__thread_proxyB8nn210106INS_5tupleIJNS_10unique_ptrINS_15__thread_structENS_14default_deleteIS3_EEEEPFvRKN6fuzzer7CommandEPNS_6atomicIjEEjPNSB_IbEEENS_17reference_wrapperIS8_EESD_jSF_EEEEEPvSL_, symObjAddr: 0x72F8, symBinAddr: 0x10000D34C, symSize: 0x6C }
  - { offset: 0x7E5E1, size: 0x8, addend: 0x0, symName: __ZNSt3__114__thread_proxyB8nn210106INS_5tupleIJNS_10unique_ptrINS_15__thread_structENS_14default_deleteIS3_EEEEPFvPN6fuzzer6FuzzerEmES9_mEEEEEPvSD_, symObjAddr: 0x7680, symBinAddr: 0x10000D6D4, symSize: 0x64 }
  - { offset: 0x7EC6C, size: 0x8, addend: 0x0, symName: __ZNSt3__17__sort3B8nn210106INS_17_ClassicAlgPolicyERNS_6__lessIvvEEPN6fuzzer9SizedFileETnNS_9enable_ifIXnt21__use_branchless_sortIT0_T1_EEiE4typeELi0EEEbSA_SA_SA_S9_, symObjAddr: 0x7F78, symBinAddr: 0x10000DF2C, symSize: 0x298 }
  - { offset: 0x7F8C7, size: 0x8, addend: 0x0, symName: __ZNSt3__17__sort5B8nn210106INS_17_ClassicAlgPolicyERNS_6__lessIvvEEPN6fuzzer9SizedFileETnNS_9enable_ifIXnt21__use_branchless_sortIT0_T1_EEiE4typeELi0EEEvSA_SA_SA_SA_SA_S9_, symObjAddr: 0x83A8, symBinAddr: 0x10000E35C, symSize: 0x1F0 }
  - { offset: 0x804D7, size: 0x8, addend: 0x0, symName: __ZNSt3__17__sort4B8nn210106INS_17_ClassicAlgPolicyERNS_6__lessIvvEEPN6fuzzer9SizedFileETnNS_9enable_ifIXnt21__use_branchless_sortIT0_T1_EEiE4typeELi0EEEvSA_SA_SA_SA_S9_, symObjAddr: 0x8210, symBinAddr: 0x10000E1C4, symSize: 0x198 }
  - { offset: 0x80DF8, size: 0x8, addend: 0x0, symName: __ZNSt3__110__pop_heapB8nn210106INS_17_ClassicAlgPolicyENS_6__lessIvvEEPN6fuzzer9SizedFileEEEvT1_S7_RT0_NS_15iterator_traitsIS7_E15difference_typeE, symObjAddr: 0x8CC8, symBinAddr: 0x10000EC7C, symSize: 0x24C }
  - { offset: 0x829E2, size: 0x8, addend: 0x0, symName: __ZNSt3__19remove_ifB8nn210106INS_11__wrap_iterIPNS_12basic_stringIcNS_11char_traitsIcEENS_9allocatorIcEEEEEEZN6fuzzer7Command10removeFlagERKS7_EUlSD_E_EET_SF_SF_T0_, symObjAddr: 0x6164, symBinAddr: 0x10000C9C4, symSize: 0x134 }
  - { offset: 0x84806, size: 0x8, addend: 0x0, symName: ___libfuzzer_is_present, symObjAddr: 0x0, symBinAddr: 0x100006C9C, symSize: 0x4 }
  - { offset: 0x84C67, size: 0x8, addend: 0x0, symName: __ZN6fuzzerL11PulseThreadEv, symObjAddr: 0x6CF4, symBinAddr: 0x10000CD48, symSize: 0x40 }
  - { offset: 0x84EBE, size: 0x8, addend: 0x0, symName: __ZNSt3__112basic_stringIcNS_11char_traitsIcEENS_9allocatorIcEEEC1B8nn210106ILi0EEEPKc, symObjAddr: 0x3A8, symBinAddr: 0x100007044, symSize: 0xA8 }
  - { offset: 0x85113, size: 0x8, addend: 0x0, symName: __ZN6fuzzer17CleanseCrashInputERKNSt3__16vectorINS0_12basic_stringIcNS0_11char_traitsIcEENS0_9allocatorIcEEEENS5_IS7_EEEERKNS_14FuzzingOptionsE, symObjAddr: 0x450, symBinAddr: 0x1000070EC, symSize: 0x9D4 }
  - { offset: 0x85A5B, size: 0x8, addend: 0x0, symName: __ZNSt3__16vectorINS_12basic_stringIcNS_11char_traitsIcEENS_9allocatorIcEEEENS4_IS6_EEE24__emplace_back_slow_pathIJRKS6_EEEPS6_DpOT_, symObjAddr: 0x78F8, symBinAddr: 0x10000D8C0, symSize: 0x130 }
  - { offset: 0x85A66, size: 0x8, addend: 0x0, symName: __ZN6fuzzer7Command10removeFlagERKNSt3__112basic_stringIcNS1_11char_traitsIcEENS1_9allocatorIcEEEE, symObjAddr: 0xE24, symBinAddr: 0x100007AC0, symSize: 0x21C }
  - { offset: 0x862D8, size: 0x8, addend: 0x0, symName: __ZN6fuzzer7Command14removeArgumentERKNSt3__112basic_stringIcNS1_11char_traitsIcEENS1_9allocatorIcEEEE, symObjAddr: 0x1040, symBinAddr: 0x100007CDC, symSize: 0x1B0 }
  - { offset: 0x8630E, size: 0x8, addend: 0x0, symName: __ZN6fuzzer7Command14removeArgumentERKNSt3__112basic_stringIcNS1_11char_traitsIcEENS1_9allocatorIcEEEE, symObjAddr: 0x1040, symBinAddr: 0x100007CDC, symSize: 0x1B0 }
  - { offset: 0x868E6, size: 0x8, addend: 0x0, symName: __ZN6fuzzer18MinimizeCrashInputERKNSt3__16vectorINS0_12basic_stringIcNS0_11char_traitsIcEENS0_9allocatorIcEEEENS5_IS7_EEEERKNS_14FuzzingOptionsE, symObjAddr: 0x11F0, symBinAddr: 0x100007E8C, symSize: 0xEEC }
  - { offset: 0x86E94, size: 0x8, addend: 0x0, symName: __ZNSt3__16vectorINS_12basic_stringIcNS_11char_traitsIcEENS_9allocatorIcEEEENS4_IS6_EEE20__throw_out_of_rangeB8nn210106Ev, symObjAddr: 0x7A3C, symBinAddr: 0x10000D9F0, symSize: 0x14 }
  - { offset: 0x86EAC, size: 0x8, addend: 0x0, symName: __ZNSt3__111__introsortINS_17_ClassicAlgPolicyERNS_6__lessIvvEEPN6fuzzer9SizedFileELb0EEEvT1_S8_T0_NS_15iterator_traitsIS8_E15difference_typeEb, symObjAddr: 0x7A50, symBinAddr: 0x10000DA04, symSize: 0x528 }
  - { offset: 0x8711C, size: 0x8, addend: 0x0, symName: __ZN6fuzzer7Command7addFlagERKNSt3__112basic_stringIcNS1_11char_traitsIcEENS1_9allocatorIcEEEES9_, symObjAddr: 0x20DC, symBinAddr: 0x100008D78, symSize: 0x1A8 }
  - { offset: 0x88011, size: 0x8, addend: 0x0, symName: __ZN6fuzzerL26GetDedupTokenFromCmdOutputERKNSt3__112basic_stringIcNS0_11char_traitsIcEENS0_9allocatorIcEEEE, symObjAddr: 0x267C, symBinAddr: 0x100008F20, symSize: 0x240 }
  - { offset: 0x8871B, size: 0x8, addend: 0x0, symName: __ZNSt3__16__treeIjNS_4lessIjEENS_9allocatorIjEEE7destroyEPNS_11__tree_nodeIjPvEE, symObjAddr: 0x8F14, symBinAddr: 0x10000EEC8, symSize: 0x48 }
  - { offset: 0x8929D, size: 0x8, addend: 0x0, symName: '__ZNK6fuzzer7TracePC15CollectFeaturesIZNS_17AnalyzeDictionaryEPNS_6FuzzerERKNSt3__16vectorINS5_IhNS4_9allocatorIhEEEENS6_IS8_EEEERSA_E3$_0EEmT_', symObjAddr: 0x3384, symBinAddr: 0x100009C28, symSize: 0x290 }
  - { offset: 0x898E5, size: 0x8, addend: 0x0, symName: '__ZNK6fuzzer7TracePC15CollectFeaturesIZNS_17AnalyzeDictionaryEPNS_6FuzzerERKNSt3__16vectorINS5_IhNS4_9allocatorIhEEEENS6_IS8_EEEERSA_E3$_1EEmT_', symObjAddr: 0x3614, symBinAddr: 0x100009EB8, symSize: 0x290 }
  - { offset: 0x89936, size: 0x8, addend: 0x0, symName: '__ZNK6fuzzer7TracePC15CollectFeaturesIZNS_17AnalyzeDictionaryEPNS_6FuzzerERKNSt3__16vectorINS5_IhNS4_9allocatorIhEEEENS6_IS8_EEEERSA_E3$_1EEmT_', symObjAddr: 0x3614, symBinAddr: 0x100009EB8, symSize: 0x290 }
  - { offset: 0x89F7E, size: 0x8, addend: 0x0, symName: __ZN6fuzzer14ParseSeedInutsEPKc, symObjAddr: 0x38A4, symBinAddr: 0x10000A148, symSize: 0x49C }
  - { offset: 0x89FD9, size: 0x8, addend: 0x0, symName: __ZNSt3__16vectorINS_12basic_stringIcNS_11char_traitsIcEENS_9allocatorIcEEEENS4_IS6_EEE20__throw_out_of_rangeB8nn210106Ev, symObjAddr: 0x7A3C, symBinAddr: 0x10000D9F0, symSize: 0x14 }
  - { offset: 0x89FE4, size: 0x8, addend: 0x0, symName: __ZNSt3__16vectorIiNS_9allocatorIiEEE20__throw_length_errorB8nn210106Ev, symObjAddr: 0x8F5C, symBinAddr: 0x10000EF10, symSize: 0x14 }
  - { offset: 0x89FFC, size: 0x8, addend: 0x0, symName: '__ZN6fuzzer18ForEachNonZeroByteIZNKS_7TracePC15CollectFeaturesIZNS_17AnalyzeDictionaryEPNS_6FuzzerERKNSt3__16vectorINS6_IhNS5_9allocatorIhEEEENS7_IS9_EEEERSB_E3$_0EEmT_EUlmmhE_EEmPKhSJ_mSG_', symObjAddr: 0x8F70, symBinAddr: 0x10000EF24, symSize: 0x3D8 }
  - { offset: 0x8A401, size: 0x8, addend: 0x0, symName: __ZNSt3__16vectorImNS_9allocatorImEEE9push_backB8nn210106ERKm, symObjAddr: 0x9348, symBinAddr: 0x10000F2FC, symSize: 0xF8 }
  - { offset: 0x8A80C, size: 0x8, addend: 0x0, symName: __ZNSt3__16vectorImNS_9allocatorImEEE20__throw_length_errorB8nn210106Ev, symObjAddr: 0x9440, symBinAddr: 0x10000F3F4, symSize: 0x14 }
  - { offset: 0x8A817, size: 0x8, addend: 0x0, symName: __ZNSt3__16vectorImNS_9allocatorImEEE20__throw_length_errorB8nn210106Ev, symObjAddr: 0x9440, symBinAddr: 0x10000F3F4, symSize: 0x14 }
  - { offset: 0x8A82F, size: 0x8, addend: 0x0, symName: '__ZN6fuzzer18ForEachNonZeroByteIZNKS_7TracePC15CollectFeaturesIZNS_17AnalyzeDictionaryEPNS_6FuzzerERKNSt3__16vectorINS6_IhNS5_9allocatorIhEEEENS7_IS9_EEEERSB_E3$_1EEmT_EUlmmhE_EEmPKhSJ_mSG_', symObjAddr: 0x9454, symBinAddr: 0x10000F408, symSize: 0x3D8 }
  - { offset: 0x8AC4E, size: 0x8, addend: 0x0, symName: __ZNSt3__16vectorINS_12basic_stringIcNS_11char_traitsIcEENS_9allocatorIcEEEENS4_IS6_EEE9push_backB8nn210106EOS6_, symObjAddr: 0x3D40, symBinAddr: 0x10000A5E4, symSize: 0x140 }
  - { offset: 0x8B102, size: 0x8, addend: 0x0, symName: __ZNSt3__16vectorINS_12basic_stringIcNS_11char_traitsIcEENS_9allocatorIcEEEENS4_IS6_EEED1B8nn210106Ev, symObjAddr: 0x3E80, symBinAddr: 0x10000A724, symSize: 0x80 }
  - { offset: 0x8B249, size: 0x8, addend: 0x0, symName: __ZNSt3__16vectorINS_12basic_stringIcNS_11char_traitsIcEENS_9allocatorIcEEEENS4_IS6_EEED1B8nn210106Ev, symObjAddr: 0x3E80, symBinAddr: 0x10000A724, symSize: 0x80 }
  - { offset: 0x8CD0B, size: 0x8, addend: 0x0, symName: __ZNSt3__16vectorINS_12basic_stringIcNS_11char_traitsIcEENS_9allocatorIcEEEENS4_IS6_EEE16__init_with_sizeB8nn210106IPPcSB_EEvT_T0_m, symObjAddr: 0x982C, symBinAddr: 0x10000F7E0, symSize: 0x118 }
  - { offset: 0x8D1CC, size: 0x8, addend: 0x0, symName: __ZNSt3__16vectorINS_12basic_stringIcNS_11char_traitsIcEENS_9allocatorIcEEEENS4_IS6_EEE24__emplace_back_slow_pathIJRKS6_EEEPS6_DpOT_, symObjAddr: 0x78F8, symBinAddr: 0x10000D8C0, symSize: 0x130 }
  - { offset: 0x8D611, size: 0x8, addend: 0x0, symName: __ZNSt3__16vectorINS_6threadENS_9allocatorIS1_EEE8__appendEm, symObjAddr: 0x7064, symBinAddr: 0x10000D0B8, symSize: 0x280 }
  - { offset: 0x8DBA2, size: 0x8, addend: 0x0, symName: __ZNSt3__16vectorINS_6threadENS_9allocatorIS1_EEE20__throw_length_errorB8nn210106Ev, symObjAddr: 0x72E4, symBinAddr: 0x10000D338, symSize: 0x14 }
  - { offset: 0x8DBAD, size: 0x8, addend: 0x0, symName: __ZN6fuzzer11InputCorpusC2ERKNSt3__112basic_stringIcNS1_11char_traitsIcEENS1_9allocatorIcEEEENS_15EntropicOptionsE, symObjAddr: 0x74BC, symBinAddr: 0x10000D510, symSize: 0x190 }
  - { offset: 0x8E44D, size: 0x8, addend: 0x0, symName: __ZN6fuzzer14FuzzingOptionsD2Ev, symObjAddr: 0x76E4, symBinAddr: 0x10000D738, symSize: 0x188 }
  - { offset: 0x8EF22, size: 0x8, addend: 0x0, symName: __ZNSt3__16vectorINS0_IhNS_9allocatorIhEEEENS1_IS3_EEED1B8nn210106Ev, symObjAddr: 0x6098, symBinAddr: 0x10000C93C, symSize: 0x84 }
  - { offset: 0x8F39F, size: 0x8, addend: 0x0, symName: __ZNSt3__16vectorIN6fuzzer9SizedFileENS_9allocatorIS2_EEE24__emplace_back_slow_pathIJS2_EEEPS2_DpOT_, symObjAddr: 0x7364, symBinAddr: 0x10000D3B8, symSize: 0x144 }
  - { offset: 0x8FA3C, size: 0x8, addend: 0x0, symName: __ZNSt3__16vectorIN6fuzzer9SizedFileENS_9allocatorIS2_EEE20__throw_length_errorB8nn210106Ev, symObjAddr: 0x74A8, symBinAddr: 0x10000D4FC, symSize: 0x14 }
  - { offset: 0x8FA54, size: 0x8, addend: 0x0, symName: _LLVMFuzzerRunDriver, symObjAddr: 0x611C, symBinAddr: 0x10000C9C0, symSize: 0x4 }
  - { offset: 0x8FAA0, size: 0x8, addend: 0x0, symName: _LLVMFuzzerRunDriver, symObjAddr: 0x611C, symBinAddr: 0x10000C9C0, symSize: 0x4 }
  - { offset: 0x90272, size: 0x8, addend: 0x0, symName: __ZN6fuzzer7CommandC2ERKS0_, symObjAddr: 0x6880, symBinAddr: 0x10000CC38, symSize: 0x110 }
  - { offset: 0x90375, size: 0x8, addend: 0x0, symName: __ZN6fuzzer7CommandC2ERKS0_, symObjAddr: 0x6880, symBinAddr: 0x10000CC38, symSize: 0x110 }
  - { offset: 0x91238, size: 0x8, addend: 0x0, symName: __ZNSt3__16vectorINS_6threadENS_9allocatorIS1_EEE20__throw_length_errorB8nn210106Ev, symObjAddr: 0x72E4, symBinAddr: 0x10000D338, symSize: 0x14 }
  - { offset: 0x91250, size: 0x8, addend: 0x0, symName: __ZNSt3__114__thread_proxyB8nn210106INS_5tupleIJNS_10unique_ptrINS_15__thread_structENS_14default_deleteIS3_EEEEPFvRKN6fuzzer7CommandEPNS_6atomicIjEEjPNSB_IbEEENS_17reference_wrapperIS8_EESD_jSF_EEEEEPvSL_, symObjAddr: 0x72F8, symBinAddr: 0x10000D34C, symSize: 0x6C }
  - { offset: 0x914ED, size: 0x8, addend: 0x0, symName: __ZNSt3__16vectorIN6fuzzer9SizedFileENS_9allocatorIS2_EEE20__throw_length_errorB8nn210106Ev, symObjAddr: 0x74A8, symBinAddr: 0x10000D4FC, symSize: 0x14 }
  - { offset: 0x91505, size: 0x8, addend: 0x0, symName: __ZN6fuzzer11InputCorpusC2ERKNSt3__112basic_stringIcNS1_11char_traitsIcEENS1_9allocatorIcEEEENS_15EntropicOptionsE, symObjAddr: 0x74BC, symBinAddr: 0x10000D510, symSize: 0x190 }
  - { offset: 0x91E28, size: 0x8, addend: 0x0, symName: __GLOBAL__sub_I_FuzzerDriver.cpp, symObjAddr: 0x9988, symBinAddr: 0x10000F8F8, symSize: 0x1C }
  - { offset: 0x91E40, size: 0x8, addend: 0x0, symName: __GLOBAL__sub_I_FuzzerDriver.cpp, symObjAddr: 0x9988, symBinAddr: 0x10000F8F8, symSize: 0x1C }
  - { offset: 0x93C73, size: 0x8, addend: 0x0, symName: __ZN6fuzzer17ExternalFunctionsC2Ev, symObjAddr: 0x0, symBinAddr: 0x10000F914, symSize: 0x2F4 }
  - { offset: 0x94243, size: 0x8, addend: 0x0, symName: __ZN6fuzzer17ExternalFunctionsC2Ev, symObjAddr: 0x0, symBinAddr: 0x10000F914, symSize: 0x2F4 }
  - { offset: 0x948DA, size: 0x8, addend: 0x0, symName: __ZN6fuzzer17ExternalFunctionsC1Ev, symObjAddr: 0x2F4, symBinAddr: 0x10000FC08, symSize: 0x4 }
  - { offset: 0x94908, size: 0x8, addend: 0x0, symName: __ZN6fuzzer17ExternalFunctionsC1Ev, symObjAddr: 0x2F4, symBinAddr: 0x10000FC08, symSize: 0x4 }
  - { offset: 0x97354, size: 0x8, addend: 0x0, symName: __ZN6fuzzer18ExtraCountersBeginEv, symObjAddr: 0x0, symBinAddr: 0x10000FC0C, symSize: 0x8 }
  - { offset: 0x97367, size: 0x8, addend: 0x0, symName: __ZN6fuzzer18ExtraCountersBeginEv, symObjAddr: 0x0, symBinAddr: 0x10000FC0C, symSize: 0x8 }
  - { offset: 0x97385, size: 0x8, addend: 0x0, symName: __ZN6fuzzer16ExtraCountersEndEv, symObjAddr: 0x8, symBinAddr: 0x10000FC14, symSize: 0x8 }
  - { offset: 0x973A3, size: 0x8, addend: 0x0, symName: __ZN6fuzzer18ClearExtraCountersEv, symObjAddr: 0x10, symBinAddr: 0x10000FC1C, symSize: 0x4 }
  - { offset: 0x974FE, size: 0x8, addend: 0x0, symName: __ZN6fuzzer12WorkerThreadEPNS_8JobQueueES1_, symObjAddr: 0x0, symBinAddr: 0x10000FC20, symSize: 0xC4 }
  - { offset: 0xA6515, size: 0x8, addend: 0x0, symName: __ZNSt3__1rsB8nn210106IcNS_11char_traitsIcEENS_9allocatorIcEEEERNS_13basic_istreamIT_T0_EES9_RNS_12basic_stringIS6_S7_T1_EE, symObjAddr: 0x7100, symBinAddr: 0x100015598, symSize: 0x1D0 }
  - { offset: 0xB1707, size: 0x8, addend: 0x0, symName: __ZNSt3__127__tree_balance_after_insertB8nn210106IPNS_16__tree_node_baseIPvEEEEvT_S5_, symObjAddr: 0x621C, symBinAddr: 0x100014F1C, symSize: 0x1D4 }
  - { offset: 0xB4171, size: 0x8, addend: 0x0, symName: __ZNK6fuzzer7Command12getFlagValueERKNSt3__112basic_stringIcNS1_11char_traitsIcEENS1_9allocatorIcEEEE, symObjAddr: 0x6C58, symBinAddr: 0x1000150F0, symSize: 0x2A8 }
  - { offset: 0xB6C82, size: 0x8, addend: 0x0, symName: __ZNSt3__114__thread_proxyB8nn210106INS_5tupleIJNS_10unique_ptrINS_15__thread_structENS_14default_deleteIS3_EEEEPFvPN6fuzzer8JobQueueES9_ES9_S9_EEEEEPvSD_, symObjAddr: 0x8F60, symBinAddr: 0x100015D04, symSize: 0x64 }
  - { offset: 0xB8112, size: 0x8, addend: 0x0, symName: __ZN6fuzzer12WorkerThreadEPNS_8JobQueueES1_, symObjAddr: 0x0, symBinAddr: 0x10000FC20, symSize: 0xC4 }
  - { offset: 0xB84E0, size: 0x8, addend: 0x0, symName: __ZN6fuzzer12FuzzWithForkERNS_6RandomERKNS_14FuzzingOptionsERKNSt3__16vectorINS5_12basic_stringIcNS5_11char_traitsIcEENS5_9allocatorIcEEEENSA_ISC_EEEESG_i, symObjAddr: 0x1A4, symBinAddr: 0x10000FDC4, symSize: 0x1724 }
  - { offset: 0xBE6CB, size: 0x8, addend: 0x0, symName: __ZNSt3__13setIjNS_4lessIjEENS_9allocatorIjEEE6insertB8nn210106INS_21__tree_const_iteratorIjPNS_11__tree_nodeIjPvEElEEEEvT_SD_, symObjAddr: 0x18C8, symBinAddr: 0x1000114E8, symSize: 0x104 }
  - { offset: 0xBFE49, size: 0x8, addend: 0x0, symName: __ZN6fuzzer8JobQueue3PopEv, symObjAddr: 0xC4, symBinAddr: 0x10000FCE4, symSize: 0xE0 }
  - { offset: 0xC0129, size: 0x8, addend: 0x0, symName: __ZNSt3__15dequeIPN6fuzzer7FuzzJobENS_9allocatorIS3_EEE19__add_back_capacityEv, symObjAddr: 0x4434, symBinAddr: 0x100013D88, symSize: 0x2F0 }
  - { offset: 0xC0C3E, size: 0x8, addend: 0x0, symName: __ZNSt3__114__split_bufferIPPN6fuzzer7FuzzJobENS_9allocatorIS4_EEE12emplace_backIJRS4_EEEvDpOT_, symObjAddr: 0x4724, symBinAddr: 0x100014078, symSize: 0x180 }
  - { offset: 0xC325B, size: 0x8, addend: 0x0, symName: __ZNSt3__16vectorINS_12basic_stringIcNS_11char_traitsIcEENS_9allocatorIcEEEENS4_IS6_EEE18__assign_with_sizeB8nn210106IPS6_SA_EEvT_T0_l, symObjAddr: 0x7468, symBinAddr: 0x1000158D8, symSize: 0x28C }
  - { offset: 0xC3ED7, size: 0x8, addend: 0x0, symName: __ZNSt3__13setIjNS_4lessIjEENS_9allocatorIjEEE6insertB8nn210106INS_21__tree_const_iteratorIjPNS_11__tree_nodeIjPvEElEEEEvT_SD_, symObjAddr: 0x18C8, symBinAddr: 0x1000114E8, symSize: 0x104 }
  - { offset: 0xC3F1E, size: 0x8, addend: 0x0, symName: __ZNSt3__13setIjNS_4lessIjEENS_9allocatorIjEEE6insertB8nn210106INS_21__tree_const_iteratorIjPNS_11__tree_nodeIjPvEElEEEEvT_SD_, symObjAddr: 0x18C8, symBinAddr: 0x1000114E8, symSize: 0x104 }
  - { offset: 0xC42D9, size: 0x8, addend: 0x0, symName: __ZN6fuzzer9GlobalEnv12CreateNewJobEm, symObjAddr: 0x19CC, symBinAddr: 0x1000115EC, symSize: 0x16C8 }
  - { offset: 0xCAF08, size: 0x8, addend: 0x0, symName: '__ZZN6fuzzer12FuzzWithForkERNS_6RandomERKNS_14FuzzingOptionsERKNSt3__16vectorINS5_12basic_stringIcNS5_11char_traitsIcEENS5_9allocatorIcEEEENSA_ISC_EEEESG_iENK3$_0clEv', symObjAddr: 0x3094, symBinAddr: 0x100012CB4, symSize: 0x19C }
  - { offset: 0xCAF13, size: 0x8, addend: 0x0, symName: __ZN6fuzzer7FuzzJobD2Ev, symObjAddr: 0x8FD8, symBinAddr: 0x100015D68, symSize: 0x17C }
  - { offset: 0xCB806, size: 0x8, addend: 0x0, symName: __ZN6fuzzer9GlobalEnv14RunOneMergeJobEPNS_7FuzzJobE, symObjAddr: 0x3230, symBinAddr: 0x100012E50, symSize: 0xEF4 }
  - { offset: 0xCF4A4, size: 0x8, addend: 0x0, symName: '__ZZN6fuzzer12FuzzWithForkERNS_6RandomERKNS_14FuzzingOptionsERKNSt3__16vectorINS5_12basic_stringIcNS5_11char_traitsIcEENS5_9allocatorIcEEEENSA_ISC_EEEESG_iENK3$_0clEv', symObjAddr: 0x3094, symBinAddr: 0x100012CB4, symSize: 0x19C }
  - { offset: 0xCFCC6, size: 0x8, addend: 0x0, symName: __ZNSt3__16vectorINS_12basic_stringIcNS_11char_traitsIcEENS_9allocatorIcEEEENS4_IS6_EEE18__assign_with_sizeB8nn210106IPS6_SA_EEvT_T0_l, symObjAddr: 0x7468, symBinAddr: 0x1000158D8, symSize: 0x28C }
  - { offset: 0xCFCD1, size: 0x8, addend: 0x0, symName: __ZNK6fuzzer9GlobalEnv26secondsSinceProcessStartUpEv, symObjAddr: 0x43F0, symBinAddr: 0x100013D44, symSize: 0x44 }
  - { offset: 0xCFD88, size: 0x8, addend: 0x0, symName: __ZN6fuzzer7FuzzJobD2Ev, symObjAddr: 0x8FD8, symBinAddr: 0x100015D68, symSize: 0x17C }
  - { offset: 0xD0089, size: 0x8, addend: 0x0, symName: __ZNSt3__16__treeIjNS_4lessIjEENS_9allocatorIjEEE12__find_equalIjEERPNS_16__tree_node_baseIPvEENS_21__tree_const_iteratorIjPNS_11__tree_nodeIjS8_EElEERPNS_15__tree_end_nodeISA_EESB_RKT_, symObjAddr: 0x8DC0, symBinAddr: 0x100015B64, symSize: 0x1A0 }
  - { offset: 0xD00ED, size: 0x8, addend: 0x0, symName: __ZNSt3__16__treeIjNS_4lessIjEENS_9allocatorIjEEE12__find_equalIjEERPNS_16__tree_node_baseIPvEENS_21__tree_const_iteratorIjPNS_11__tree_nodeIjS8_EElEERPNS_15__tree_end_nodeISA_EESB_RKT_, symObjAddr: 0x8DC0, symBinAddr: 0x100015B64, symSize: 0x1A0 }
  - { offset: 0xD0109, size: 0x8, addend: 0x0, symName: __ZNSt3__16__treeIjNS_4lessIjEENS_9allocatorIjEEE12__find_equalIjEERPNS_16__tree_node_baseIPvEENS_21__tree_const_iteratorIjPNS_11__tree_nodeIjS8_EElEERPNS_15__tree_end_nodeISA_EESB_RKT_, symObjAddr: 0x8DC0, symBinAddr: 0x100015B64, symSize: 0x1A0 }
  - { offset: 0xD177A, size: 0x8, addend: 0x0, symName: __ZN6fuzzer9GlobalEnv8StopFileEv, symObjAddr: 0x5138, symBinAddr: 0x100014504, symSize: 0xF4 }
  - { offset: 0xD1785, size: 0x8, addend: 0x0, symName: __ZN6fuzzer9GlobalEnv8StopFileEv, symObjAddr: 0x5138, symBinAddr: 0x100014504, symSize: 0xF4 }
  - { offset: 0xD1B02, size: 0x8, addend: 0x0, symName: __ZNK6fuzzer7Command7hasFlagERKNSt3__112basic_stringIcNS1_11char_traitsIcEENS1_9allocatorIcEEEE, symObjAddr: 0x522C, symBinAddr: 0x1000145F8, symSize: 0x1A8 }
  - { offset: 0xD1B0D, size: 0x8, addend: 0x0, symName: __ZNK6fuzzer7Command7hasFlagERKNSt3__112basic_stringIcNS1_11char_traitsIcEENS1_9allocatorIcEEEE, symObjAddr: 0x522C, symBinAddr: 0x1000145F8, symSize: 0x1A8 }
  - { offset: 0xD2298, size: 0x8, addend: 0x0, symName: __ZN6fuzzer9GlobalEnv10CollectDFTERKNSt3__112basic_stringIcNS1_11char_traitsIcEENS1_9allocatorIcEEEE, symObjAddr: 0x53D4, symBinAddr: 0x1000147A0, symSize: 0x570 }
  - { offset: 0xD22A3, size: 0x8, addend: 0x0, symName: __ZN6fuzzer9GlobalEnv10CollectDFTERKNSt3__112basic_stringIcNS1_11char_traitsIcEENS1_9allocatorIcEEEE, symObjAddr: 0x53D4, symBinAddr: 0x1000147A0, symSize: 0x570 }
  - { offset: 0xD55B4, size: 0x8, addend: 0x0, symName: __ZNSt3__16vectorIN6fuzzer9SizedFileENS_9allocatorIS2_EEE24__emplace_back_slow_pathIJRKS2_EEEPS2_DpOT_, symObjAddr: 0x72D0, symBinAddr: 0x100015768, symSize: 0x170 }
  - { offset: 0xD5C9E, size: 0x8, addend: 0x0, symName: __ZNK6fuzzer7Command12getFlagValueERKNSt3__112basic_stringIcNS1_11char_traitsIcEENS1_9allocatorIcEEEE, symObjAddr: 0x6C58, symBinAddr: 0x1000150F0, symSize: 0x2A8 }
  - { offset: 0xD6873, size: 0x8, addend: 0x0, symName: __ZNSt3__16vectorImNS_9allocatorImEEE6insertENS_11__wrap_iterIPKmEERS5_, symObjAddr: 0x6F00, symBinAddr: 0x100015398, symSize: 0x200 }
  - { offset: 0xD687E, size: 0x8, addend: 0x0, symName: __ZNSt3__16vectorImNS_9allocatorImEEE6insertENS_11__wrap_iterIPKmEERS5_, symObjAddr: 0x6F00, symBinAddr: 0x100015398, symSize: 0x200 }
  - { offset: 0xD706A, size: 0x8, addend: 0x0, symName: __ZNSt3__1rsB8nn210106IcNS_11char_traitsIcEENS_9allocatorIcEEEERNS_13basic_istreamIT_T0_EES9_RNS_12basic_stringIS6_S7_T1_EE, symObjAddr: 0x7100, symBinAddr: 0x100015598, symSize: 0x1D0 }
  - { offset: 0xD7B6A, size: 0x8, addend: 0x0, symName: __ZNSt3__114__split_bufferIPPN6fuzzer7FuzzJobENS_9allocatorIS4_EEE12emplace_backIJRS4_EEEvDpOT_, symObjAddr: 0x4724, symBinAddr: 0x100014078, symSize: 0x180 }
  - { offset: 0xD8001, size: 0x8, addend: 0x0, symName: __ZNSt3__114__split_bufferIPPN6fuzzer7FuzzJobENS_9allocatorIS4_EEE12emplace_backIJS4_EEEvDpOT_, symObjAddr: 0x48A4, symBinAddr: 0x1000141F8, symSize: 0x180 }
  - { offset: 0xD8019, size: 0x8, addend: 0x0, symName: __ZNSt3__114__split_bufferIPPN6fuzzer7FuzzJobENS_9allocatorIS4_EEE12emplace_backIJS4_EEEvDpOT_, symObjAddr: 0x48A4, symBinAddr: 0x1000141F8, symSize: 0x180 }
  - { offset: 0xD84B0, size: 0x8, addend: 0x0, symName: __ZNSt3__114__split_bufferIPPN6fuzzer7FuzzJobENS_9allocatorIS4_EEE13emplace_frontIJS4_EEEvDpOT_, symObjAddr: 0x4A24, symBinAddr: 0x100014378, symSize: 0x18C }
  - { offset: 0xD84C8, size: 0x8, addend: 0x0, symName: __ZNSt3__114__split_bufferIPPN6fuzzer7FuzzJobENS_9allocatorIS4_EEE13emplace_frontIJS4_EEEvDpOT_, symObjAddr: 0x4A24, symBinAddr: 0x100014378, symSize: 0x18C }
  - { offset: 0xD8CD0, size: 0x8, addend: 0x0, symName: __ZNSt3__16__treeINS_12basic_stringIcNS_11char_traitsIcEENS_9allocatorIcEEEENS_4lessIS6_EENS4_IS6_EEE25__emplace_unique_key_argsIS6_JRKS6_EEENS_4pairINS_15__tree_iteratorIS6_PNS_11__tree_nodeIS6_PvEElEEbEERKT_DpOT0_, symObjAddr: 0x6010, symBinAddr: 0x100014D10, symSize: 0xE0 }
  - { offset: 0xD93F2, size: 0x8, addend: 0x0, symName: __ZNSt3__16__treeINS_12basic_stringIcNS_11char_traitsIcEENS_9allocatorIcEEEENS_4lessIS6_EENS4_IS6_EEE12__find_equalIS6_EERPNS_16__tree_node_baseIPvEERPNS_15__tree_end_nodeISF_EERKT_, symObjAddr: 0x60F0, symBinAddr: 0x100014DF0, symSize: 0x12C }
  - { offset: 0xDCDF6, size: 0x8, addend: 0x0, symName: __ZN6fuzzerL10OutputFileE, symObjAddr: 0x5E418, symBinAddr: 0x1000783C0, symSize: 0x0 }
  - { offset: 0xDCE5D, size: 0x8, addend: 0x0, symName: __ZN6fuzzer13GetOutputFileEv, symObjAddr: 0x0, symBinAddr: 0x100015EE4, symSize: 0xC }
  - { offset: 0xDCE7B, size: 0x8, addend: 0x0, symName: __ZN6fuzzer13SetOutputFileEP7__sFILE, symObjAddr: 0xC, symBinAddr: 0x100015EF0, symSize: 0xC }
  - { offset: 0xDCEA4, size: 0x8, addend: 0x0, symName: __ZN6fuzzer8GetEpochERKNSt3__112basic_stringIcNS0_11char_traitsIcEENS0_9allocatorIcEEEE, symObjAddr: 0x18, symBinAddr: 0x100015EFC, symSize: 0x54 }
  - { offset: 0xDCF53, size: 0x8, addend: 0x0, symName: __ZN6fuzzer12FileToVectorERKNSt3__112basic_stringIcNS0_11char_traitsIcEENS0_9allocatorIcEEEEmb, symObjAddr: 0x6C, symBinAddr: 0x100015F50, symSize: 0x2BC }
  - { offset: 0xDD41A, size: 0x8, addend: 0x0, symName: __ZN6fuzzer6PrintfEPKcz, symObjAddr: 0x328, symBinAddr: 0x10001620C, symSize: 0x44 }
  - { offset: 0xDD42B, size: 0x8, addend: 0x0, symName: __ZN6fuzzer6PrintfEPKcz, symObjAddr: 0x328, symBinAddr: 0x10001620C, symSize: 0x44 }
  - { offset: 0xDD48F, size: 0x8, addend: 0x0, symName: __ZN6fuzzer12FileToStringERKNSt3__112basic_stringIcNS0_11char_traitsIcEENS0_9allocatorIcEEEE, symObjAddr: 0x36C, symBinAddr: 0x100016250, symSize: 0x1E4 }
  - { offset: 0xDD8E0, size: 0x8, addend: 0x0, symName: __ZN6fuzzer13CopyFileToErrERKNSt3__112basic_stringIcNS0_11char_traitsIcEENS0_9allocatorIcEEEE, symObjAddr: 0x550, symBinAddr: 0x100016434, symSize: 0x78 }
  - { offset: 0xDDAD5, size: 0x8, addend: 0x0, symName: __ZN6fuzzer4PutsEPKc, symObjAddr: 0x5C8, symBinAddr: 0x1000164AC, symSize: 0x28 }
  - { offset: 0xDDB51, size: 0x8, addend: 0x0, symName: __ZN6fuzzer11WriteToFileERKNSt3__16vectorIhNS0_9allocatorIhEEEERKNS0_12basic_stringIcNS0_11char_traitsIcEENS2_IcEEEE, symObjAddr: 0x5F0, symBinAddr: 0x1000164D4, symSize: 0x70 }
  - { offset: 0xDDC9B, size: 0x8, addend: 0x0, symName: __ZN6fuzzer11WriteToFileEPKhmRKNSt3__112basic_stringIcNS2_11char_traitsIcEENS2_9allocatorIcEEEE, symObjAddr: 0x660, symBinAddr: 0x100016544, symSize: 0x74 }
  - { offset: 0xDDD89, size: 0x8, addend: 0x0, symName: __ZN6fuzzer11WriteToFileERKNSt3__112basic_stringIcNS0_11char_traitsIcEENS0_9allocatorIcEEEES8_, symObjAddr: 0x6D4, symBinAddr: 0x1000165B8, symSize: 0x8C }
  - { offset: 0xDDF4F, size: 0x8, addend: 0x0, symName: __ZN6fuzzer12AppendToFileERKNSt3__112basic_stringIcNS0_11char_traitsIcEENS0_9allocatorIcEEEES8_, symObjAddr: 0x760, symBinAddr: 0x100016644, symSize: 0x8C }
  - { offset: 0xDE0C5, size: 0x8, addend: 0x0, symName: __ZN6fuzzer12AppendToFileEPKhmRKNSt3__112basic_stringIcNS2_11char_traitsIcEENS2_9allocatorIcEEEE, symObjAddr: 0x7EC, symBinAddr: 0x1000166D0, symSize: 0x74 }
  - { offset: 0xDE1DB, size: 0x8, addend: 0x0, symName: __ZN6fuzzer22ReadDirToVectorOfUnitsEPKcPNSt3__16vectorINS3_IhNS2_9allocatorIhEEEENS4_IS6_EEEEPlmbPNS3_INS2_12basic_stringIcNS2_11char_traitsIcEENS4_IcEEEENS4_ISF_EEEE, symObjAddr: 0x860, symBinAddr: 0x100016744, symSize: 0x380 }
  - { offset: 0xDF125, size: 0x8, addend: 0x0, symName: __ZN6fuzzer20GetSizedFilesFromDirERKNSt3__112basic_stringIcNS0_11char_traitsIcEENS0_9allocatorIcEEEEPNS0_6vectorINS_9SizedFileENS4_ISA_EEEE, symObjAddr: 0xBE0, symBinAddr: 0x100016AC4, symSize: 0x174 }
  - { offset: 0xDF150, size: 0x8, addend: 0x0, symName: __ZN6fuzzer20GetSizedFilesFromDirERKNSt3__112basic_stringIcNS0_11char_traitsIcEENS0_9allocatorIcEEEEPNS0_6vectorINS_9SizedFileENS4_ISA_EEEE, symObjAddr: 0xBE0, symBinAddr: 0x100016AC4, symSize: 0x174 }
  - { offset: 0xDF85D, size: 0x8, addend: 0x0, symName: __ZN6fuzzer11DirPlusFileERKNSt3__112basic_stringIcNS0_11char_traitsIcEENS0_9allocatorIcEEEES8_, symObjAddr: 0xD54, symBinAddr: 0x100016C38, symSize: 0x130 }
  - { offset: 0xDFDBB, size: 0x8, addend: 0x0, symName: __ZN6fuzzer17DupAndCloseStderrEv, symObjAddr: 0xE84, symBinAddr: 0x100016D68, symSize: 0x70 }
  - { offset: 0xDFDD5, size: 0x8, addend: 0x0, symName: __ZN6fuzzer17DupAndCloseStderrEv, symObjAddr: 0xE84, symBinAddr: 0x100016D68, symSize: 0x70 }
  - { offset: 0xDFEC9, size: 0x8, addend: 0x0, symName: __ZN6fuzzer11CloseStdoutEv, symObjAddr: 0xEF4, symBinAddr: 0x100016DD8, symSize: 0x8 }
  - { offset: 0xDFEF8, size: 0x8, addend: 0x0, symName: __ZN6fuzzer7VPrintfEbPKcz, symObjAddr: 0xEFC, symBinAddr: 0x100016DE0, symSize: 0x44 }
  - { offset: 0xDFF64, size: 0x8, addend: 0x0, symName: __ZN6fuzzer14MkDirRecursiveERKNSt3__112basic_stringIcNS0_11char_traitsIcEENS0_9allocatorIcEEEE, symObjAddr: 0xF40, symBinAddr: 0x100016E24, symSize: 0x60 }
  - { offset: 0xE0019, size: 0x8, addend: 0x0, symName: __ZN6fuzzerL19MkDirRecursiveInnerERKNSt3__112basic_stringIcNS0_11char_traitsIcEENS0_9allocatorIcEEEE, symObjAddr: 0xFA0, symBinAddr: 0x100016E84, symSize: 0xFC }
  - { offset: 0xE0304, size: 0x8, addend: 0x0, symName: __ZN6fuzzer14RmDirRecursiveERKNSt3__112basic_stringIcNS0_11char_traitsIcEENS0_9allocatorIcEEEE, symObjAddr: 0x109C, symBinAddr: 0x100016F80, symSize: 0x1C }
  - { offset: 0xE0335, size: 0x8, addend: 0x0, symName: __ZN6fuzzer14RmDirRecursiveERKNSt3__112basic_stringIcNS0_11char_traitsIcEENS0_9allocatorIcEEEE, symObjAddr: 0x109C, symBinAddr: 0x100016F80, symSize: 0x1C }
  - { offset: 0xE03F5, size: 0x8, addend: 0x0, symName: __ZN6fuzzer8TempPathEPKcS1_, symObjAddr: 0x10B8, symBinAddr: 0x100016F9C, symSize: 0x230 }
  - { offset: 0xEFC70, size: 0x8, addend: 0x0, symName: '__ZZN6fuzzer14RmDirRecursiveERKNSt3__112basic_stringIcNS0_11char_traitsIcEENS0_9allocatorIcEEEEEN3$_08__invokeES8_', symObjAddr: 0x1318, symBinAddr: 0x1000171CC, symSize: 0x4 }
  - { offset: 0xF2818, size: 0x8, addend: 0x0, symName: __ZNSt3__16vectorINS0_IhNS_9allocatorIhEEEENS1_IS3_EEE24__emplace_back_slow_pathIJRKS3_EEEPS3_DpOT_, symObjAddr: 0x1408, symBinAddr: 0x1000171D8, symSize: 0x138 }
  - { offset: 0xF2E68, size: 0x8, addend: 0x0, symName: __ZNSt3__16vectorINS0_IhNS_9allocatorIhEEEENS1_IS3_EEE20__throw_length_errorB8nn210106Ev, symObjAddr: 0x1540, symBinAddr: 0x100017310, symSize: 0x14 }
  - { offset: 0xF3249, size: 0x8, addend: 0x0, symName: __ZNSt3__16vectorINS0_IhNS_9allocatorIhEEEENS1_IS3_EEE24__emplace_back_slow_pathIJRKS3_EEEPS3_DpOT_, symObjAddr: 0x1408, symBinAddr: 0x1000171D8, symSize: 0x138 }
  - { offset: 0xF3AC1, size: 0x8, addend: 0x0, symName: '__ZZN6fuzzer14RmDirRecursiveERKNSt3__112basic_stringIcNS0_11char_traitsIcEENS0_9allocatorIcEEEEEN3$_08__invokeES8_', symObjAddr: 0x1318, symBinAddr: 0x1000171CC, symSize: 0x4 }
  - { offset: 0xF3B18, size: 0x8, addend: 0x0, symName: '__ZZN6fuzzer14RmDirRecursiveERKNSt3__112basic_stringIcNS0_11char_traitsIcEENS0_9allocatorIcEEEEEN3$_18__invokeES8_', symObjAddr: 0x131C, symBinAddr: 0x1000171D0, symSize: 0x4 }
  - { offset: 0xF3B41, size: 0x8, addend: 0x0, symName: '__ZZN6fuzzer14RmDirRecursiveERKNSt3__112basic_stringIcNS0_11char_traitsIcEENS0_9allocatorIcEEEEEN3$_18__invokeES8_', symObjAddr: 0x131C, symBinAddr: 0x1000171D0, symSize: 0x4 }
  - { offset: 0xF3B5E, size: 0x8, addend: 0x0, symName: '__ZZN6fuzzer14RmDirRecursiveERKNSt3__112basic_stringIcNS0_11char_traitsIcEENS0_9allocatorIcEEEEEN3$_18__invokeES8_', symObjAddr: 0x131C, symBinAddr: 0x1000171D0, symSize: 0x4 }
  - { offset: 0xF3BA4, size: 0x8, addend: 0x0, symName: '__ZZN6fuzzer14RmDirRecursiveERKNSt3__112basic_stringIcNS0_11char_traitsIcEENS0_9allocatorIcEEEEEN3$_28__invokeES8_', symObjAddr: 0x1320, symBinAddr: 0x1000171D4, symSize: 0x4 }
  - { offset: 0xF3BCD, size: 0x8, addend: 0x0, symName: '__ZZN6fuzzer14RmDirRecursiveERKNSt3__112basic_stringIcNS0_11char_traitsIcEENS0_9allocatorIcEEEEEN3$_28__invokeES8_', symObjAddr: 0x1320, symBinAddr: 0x1000171D4, symSize: 0x4 }
  - { offset: 0xF3BEA, size: 0x8, addend: 0x0, symName: '__ZZN6fuzzer14RmDirRecursiveERKNSt3__112basic_stringIcNS0_11char_traitsIcEENS0_9allocatorIcEEEEEN3$_28__invokeES8_', symObjAddr: 0x1320, symBinAddr: 0x1000171D4, symSize: 0x4 }
  - { offset: 0xF3E03, size: 0x8, addend: 0x0, symName: __ZNSt3__16vectorINS0_IhNS_9allocatorIhEEEENS1_IS3_EEE20__throw_length_errorB8nn210106Ev, symObjAddr: 0x1540, symBinAddr: 0x100017310, symSize: 0x14 }
  - { offset: 0xF4212, size: 0x8, addend: 0x0, symName: __GLOBAL__sub_I_FuzzerIO.cpp, symObjAddr: 0x17F0, symBinAddr: 0x100017324, symSize: 0x18 }
  - { offset: 0xF4224, size: 0x8, addend: 0x0, symName: __GLOBAL__sub_I_FuzzerIO.cpp, symObjAddr: 0x17F0, symBinAddr: 0x100017324, symSize: 0x18 }
  - { offset: 0xF423C, size: 0x8, addend: 0x0, symName: __GLOBAL__sub_I_FuzzerIO.cpp, symObjAddr: 0x17F0, symBinAddr: 0x100017324, symSize: 0x18 }
  - { offset: 0xF5EA1, size: 0x8, addend: 0x0, symName: __ZN6fuzzer6IsFileERKNSt3__112basic_stringIcNS0_11char_traitsIcEENS0_9allocatorIcEEEE, symObjAddr: 0x0, symBinAddr: 0x10001733C, symSize: 0x60 }
  - { offset: 0xF5EC7, size: 0x8, addend: 0x0, symName: __ZN6fuzzer10getDevNullEv, symObjAddr: 0xEF0, symBinAddr: 0x100018184, symSize: 0x80 }
  - { offset: 0xF5EF1, size: 0x8, addend: 0x0, symName: __MergedGlobals, symObjAddr: 0x23698, symBinAddr: 0x1000783C8, symSize: 0x0 }
  - { offset: 0xF5F13, size: 0x8, addend: 0x0, symName: __ZN6fuzzer6IsFileERKNSt3__112basic_stringIcNS0_11char_traitsIcEENS0_9allocatorIcEEEE, symObjAddr: 0x0, symBinAddr: 0x10001733C, symSize: 0x60 }
  - { offset: 0xF5FC2, size: 0x8, addend: 0x0, symName: __ZN6fuzzer11IsDirectoryERKNSt3__112basic_stringIcNS0_11char_traitsIcEENS0_9allocatorIcEEEE, symObjAddr: 0x60, symBinAddr: 0x10001739C, symSize: 0x60 }
  - { offset: 0xF6071, size: 0x8, addend: 0x0, symName: __ZN6fuzzer8FileSizeERKNSt3__112basic_stringIcNS0_11char_traitsIcEENS0_9allocatorIcEEEE, symObjAddr: 0xC0, symBinAddr: 0x1000173FC, symSize: 0x54 }
  - { offset: 0xF6136, size: 0x8, addend: 0x0, symName: __ZN6fuzzer8BasenameERKNSt3__112basic_stringIcNS0_11char_traitsIcEENS0_9allocatorIcEEEE, symObjAddr: 0x114, symBinAddr: 0x100017450, symSize: 0x154 }
  - { offset: 0xF64A7, size: 0x8, addend: 0x0, symName: __ZN6fuzzer12GetSeparatorEv, symObjAddr: 0x268, symBinAddr: 0x1000175A4, symSize: 0x8 }
  - { offset: 0xF64B2, size: 0x8, addend: 0x0, symName: __ZN6fuzzer12GetSeparatorEv, symObjAddr: 0x268, symBinAddr: 0x1000175A4, symSize: 0x8 }
  - { offset: 0xF6520, size: 0x8, addend: 0x0, symName: __ZN6fuzzer23ListFilesInDirRecursiveERKNSt3__112basic_stringIcNS0_11char_traitsIcEENS0_9allocatorIcEEEEPlPNS0_6vectorIS6_NS4_IS6_EEEEb, symObjAddr: 0x270, symBinAddr: 0x1000175AC, symSize: 0x3FC }
  - { offset: 0xF729A, size: 0x8, addend: 0x0, symName: __ZN6fuzzer19IterateDirRecursiveERKNSt3__112basic_stringIcNS0_11char_traitsIcEENS0_9allocatorIcEEEEPFvS8_ESA_SA_, symObjAddr: 0x714, symBinAddr: 0x1000179A8, symSize: 0x258 }
  - { offset: 0xF79E8, size: 0x8, addend: 0x0, symName: __ZN6fuzzer11IsSeparatorEc, symObjAddr: 0x96C, symBinAddr: 0x100017C00, symSize: 0xC }
  - { offset: 0xF79F3, size: 0x8, addend: 0x0, symName: __ZN6fuzzer11IsSeparatorEc, symObjAddr: 0x96C, symBinAddr: 0x100017C00, symSize: 0xC }
  - { offset: 0xF7A21, size: 0x8, addend: 0x0, symName: __ZN6fuzzer8OpenFileEiPKc, symObjAddr: 0x978, symBinAddr: 0x100017C0C, symSize: 0x4 }
  - { offset: 0xF7A5F, size: 0x8, addend: 0x0, symName: __ZN6fuzzer8OpenFileEiPKc, symObjAddr: 0x978, symBinAddr: 0x100017C0C, symSize: 0x4 }
  - { offset: 0xF7A79, size: 0x8, addend: 0x0, symName: __ZN6fuzzer9CloseFileEi, symObjAddr: 0x97C, symBinAddr: 0x100017C10, symSize: 0x4 }
  - { offset: 0xF7AA9, size: 0x8, addend: 0x0, symName: __ZN6fuzzer9CloseFileEi, symObjAddr: 0x97C, symBinAddr: 0x100017C10, symSize: 0x4 }
  - { offset: 0xF7ABC, size: 0x8, addend: 0x0, symName: __ZN6fuzzer13DuplicateFileEi, symObjAddr: 0x980, symBinAddr: 0x100017C14, symSize: 0x4 }
  - { offset: 0xF7AEC, size: 0x8, addend: 0x0, symName: __ZN6fuzzer13DuplicateFileEi, symObjAddr: 0x980, symBinAddr: 0x100017C14, symSize: 0x4 }
  - { offset: 0xF7AFF, size: 0x8, addend: 0x0, symName: __ZN6fuzzer10RemoveFileERKNSt3__112basic_stringIcNS0_11char_traitsIcEENS0_9allocatorIcEEEE, symObjAddr: 0x984, symBinAddr: 0x100017C18, symSize: 0x14 }
  - { offset: 0xF7B2B, size: 0x8, addend: 0x0, symName: __ZN6fuzzer10RemoveFileERKNSt3__112basic_stringIcNS0_11char_traitsIcEENS0_9allocatorIcEEEE, symObjAddr: 0x984, symBinAddr: 0x100017C18, symSize: 0x14 }
  - { offset: 0xF7B46, size: 0x8, addend: 0x0, symName: __ZN6fuzzer10RemoveFileERKNSt3__112basic_stringIcNS0_11char_traitsIcEENS0_9allocatorIcEEEE, symObjAddr: 0x984, symBinAddr: 0x100017C18, symSize: 0x14 }
  - { offset: 0xF7B62, size: 0x8, addend: 0x0, symName: __ZN6fuzzer10RemoveFileERKNSt3__112basic_stringIcNS0_11char_traitsIcEENS0_9allocatorIcEEEE, symObjAddr: 0x984, symBinAddr: 0x100017C18, symSize: 0x14 }
  - { offset: 0xF7B7E, size: 0x8, addend: 0x0, symName: __ZN6fuzzer10RemoveFileERKNSt3__112basic_stringIcNS0_11char_traitsIcEENS0_9allocatorIcEEEE, symObjAddr: 0x984, symBinAddr: 0x100017C18, symSize: 0x14 }
  - { offset: 0xF7BAA, size: 0x8, addend: 0x0, symName: __ZN6fuzzer10RenameFileERKNSt3__112basic_stringIcNS0_11char_traitsIcEENS0_9allocatorIcEEEES8_, symObjAddr: 0x998, symBinAddr: 0x100017C2C, symSize: 0x24 }
  - { offset: 0xF7BE5, size: 0x8, addend: 0x0, symName: __ZN6fuzzer10RenameFileERKNSt3__112basic_stringIcNS0_11char_traitsIcEENS0_9allocatorIcEEEES8_, symObjAddr: 0x998, symBinAddr: 0x100017C2C, symSize: 0x24 }
  - { offset: 0xF7C00, size: 0x8, addend: 0x0, symName: __ZN6fuzzer10RenameFileERKNSt3__112basic_stringIcNS0_11char_traitsIcEENS0_9allocatorIcEEEES8_, symObjAddr: 0x998, symBinAddr: 0x100017C2C, symSize: 0x24 }
  - { offset: 0xF7C1C, size: 0x8, addend: 0x0, symName: __ZN6fuzzer10RenameFileERKNSt3__112basic_stringIcNS0_11char_traitsIcEENS0_9allocatorIcEEEES8_, symObjAddr: 0x998, symBinAddr: 0x100017C2C, symSize: 0x24 }
  - { offset: 0xF7C38, size: 0x8, addend: 0x0, symName: __ZN6fuzzer10RenameFileERKNSt3__112basic_stringIcNS0_11char_traitsIcEENS0_9allocatorIcEEEES8_, symObjAddr: 0x998, symBinAddr: 0x100017C2C, symSize: 0x24 }
  - { offset: 0xF7CD7, size: 0x8, addend: 0x0, symName: __ZN6fuzzer15GetHandleFromFdEi, symObjAddr: 0x9BC, symBinAddr: 0x100017C50, symSize: 0x8 }
  - { offset: 0xF7D05, size: 0x8, addend: 0x0, symName: __ZN6fuzzer7DirNameERKNSt3__112basic_stringIcNS0_11char_traitsIcEENS0_9allocatorIcEEEE, symObjAddr: 0x9C4, symBinAddr: 0x100017C58, symSize: 0xFC }
  - { offset: 0xF807F, size: 0x8, addend: 0x0, symName: __ZN6fuzzer6TmpDirEv, symObjAddr: 0xAC0, symBinAddr: 0x100017D54, symSize: 0x120 }
  - { offset: 0xF808A, size: 0x8, addend: 0x0, symName: __ZN6fuzzer6TmpDirEv, symObjAddr: 0xAC0, symBinAddr: 0x100017D54, symSize: 0x120 }
  - { offset: 0xF8587, size: 0x8, addend: 0x0, symName: __ZN6fuzzer25IsInterestingCoverageFileERKNSt3__112basic_stringIcNS0_11char_traitsIcEENS0_9allocatorIcEEEE, symObjAddr: 0xBE0, symBinAddr: 0x100017E74, symSize: 0x2B8 }
  - { offset: 0xF8592, size: 0x8, addend: 0x0, symName: __ZN6fuzzer25IsInterestingCoverageFileERKNSt3__112basic_stringIcNS0_11char_traitsIcEENS0_9allocatorIcEEEE, symObjAddr: 0xBE0, symBinAddr: 0x100017E74, symSize: 0x2B8 }
  - { offset: 0xF8CC3, size: 0x8, addend: 0x0, symName: __ZN6fuzzer8RawPrintEPKc, symObjAddr: 0xE98, symBinAddr: 0x10001812C, symSize: 0x2C }
  - { offset: 0xF8CCE, size: 0x8, addend: 0x0, symName: __ZN6fuzzer8RawPrintEPKc, symObjAddr: 0xE98, symBinAddr: 0x10001812C, symSize: 0x2C }
  - { offset: 0xF8D22, size: 0x8, addend: 0x0, symName: __ZN6fuzzer5MkDirERKNSt3__112basic_stringIcNS0_11char_traitsIcEENS0_9allocatorIcEEEE, symObjAddr: 0xEC4, symBinAddr: 0x100018158, symSize: 0x18 }
  - { offset: 0xF8D4E, size: 0x8, addend: 0x0, symName: __ZN6fuzzer5MkDirERKNSt3__112basic_stringIcNS0_11char_traitsIcEENS0_9allocatorIcEEEE, symObjAddr: 0xEC4, symBinAddr: 0x100018158, symSize: 0x18 }
  - { offset: 0xF8D69, size: 0x8, addend: 0x0, symName: __ZN6fuzzer5MkDirERKNSt3__112basic_stringIcNS0_11char_traitsIcEENS0_9allocatorIcEEEE, symObjAddr: 0xEC4, symBinAddr: 0x100018158, symSize: 0x18 }
  - { offset: 0xF8D85, size: 0x8, addend: 0x0, symName: __ZN6fuzzer5MkDirERKNSt3__112basic_stringIcNS0_11char_traitsIcEENS0_9allocatorIcEEEE, symObjAddr: 0xEC4, symBinAddr: 0x100018158, symSize: 0x18 }
  - { offset: 0xF8DA1, size: 0x8, addend: 0x0, symName: __ZN6fuzzer5MkDirERKNSt3__112basic_stringIcNS0_11char_traitsIcEENS0_9allocatorIcEEEE, symObjAddr: 0xEC4, symBinAddr: 0x100018158, symSize: 0x18 }
  - { offset: 0xF8DD5, size: 0x8, addend: 0x0, symName: __ZN6fuzzer5RmDirERKNSt3__112basic_stringIcNS0_11char_traitsIcEENS0_9allocatorIcEEEE, symObjAddr: 0xEDC, symBinAddr: 0x100018170, symSize: 0x14 }
  - { offset: 0xF8E01, size: 0x8, addend: 0x0, symName: __ZN6fuzzer5RmDirERKNSt3__112basic_stringIcNS0_11char_traitsIcEENS0_9allocatorIcEEEE, symObjAddr: 0xEDC, symBinAddr: 0x100018170, symSize: 0x14 }
  - { offset: 0xF8E1C, size: 0x8, addend: 0x0, symName: __ZN6fuzzer5RmDirERKNSt3__112basic_stringIcNS0_11char_traitsIcEENS0_9allocatorIcEEEE, symObjAddr: 0xEDC, symBinAddr: 0x100018170, symSize: 0x14 }
  - { offset: 0xF8E38, size: 0x8, addend: 0x0, symName: __ZN6fuzzer5RmDirERKNSt3__112basic_stringIcNS0_11char_traitsIcEENS0_9allocatorIcEEEE, symObjAddr: 0xEDC, symBinAddr: 0x100018170, symSize: 0x14 }
  - { offset: 0xF8E54, size: 0x8, addend: 0x0, symName: __ZN6fuzzer5RmDirERKNSt3__112basic_stringIcNS0_11char_traitsIcEENS0_9allocatorIcEEEE, symObjAddr: 0xEDC, symBinAddr: 0x100018170, symSize: 0x14 }
  - { offset: 0xFDBD8, size: 0x8, addend: 0x0, symName: __ZN6fuzzer19IterateDirRecursiveERKNSt3__112basic_stringIcNS0_11char_traitsIcEENS0_9allocatorIcEEEEPFvS8_ESA_SA_, symObjAddr: 0x714, symBinAddr: 0x1000179A8, symSize: 0x258 }
  - { offset: 0xFFC83, size: 0x8, addend: 0x0, symName: __ZN6fuzzer6Fuzzer10IsMyThreadE, symObjAddr: 0xA1B4, symBinAddr: 0x100044458, symSize: 0x0 }
  - { offset: 0x1013A5, size: 0x8, addend: 0x0, symName: __ZN6fuzzer19RunningUserCallbackE, symObjAddr: 0x12250D, symBinAddr: 0x100044608, symSize: 0x0 }
  - { offset: 0x1013BF, size: 0x8, addend: 0x0, symName: __MergedGlobals, symObjAddr: 0x122510, symBinAddr: 0x1000783E8, symSize: 0x0 }
  - { offset: 0x101472, size: 0x8, addend: 0x0, symName: __MergedGlobals, symObjAddr: 0x122510, symBinAddr: 0x1000783E8, symSize: 0x0 }
  - { offset: 0x101A4D, size: 0x8, addend: 0x0, symName: __ZN6fuzzer10MallocHookEPVKvm, symObjAddr: 0x28, symBinAddr: 0x10001822C, symSize: 0xE4 }
  - { offset: 0x101C7F, size: 0x8, addend: 0x0, symName: __ZN6fuzzer8FreeHookEPVKv, symObjAddr: 0x18C, symBinAddr: 0x100018390, symSize: 0xC4 }
  - { offset: 0x102038, size: 0x8, addend: 0x0, symName: __ZN6fuzzerL20RenameFeatureSetFileERKNSt3__112basic_stringIcNS0_11char_traitsIcEENS0_9allocatorIcEEEES8_S8_, symObjAddr: 0x2C4C, symBinAddr: 0x10001AE50, symSize: 0xA0 }
  - { offset: 0x102089, size: 0x8, addend: 0x0, symName: __ZN6fuzzerL20RenameFeatureSetFileERKNSt3__112basic_stringIcNS0_11char_traitsIcEENS0_9allocatorIcEEEES8_S8_, symObjAddr: 0x2C4C, symBinAddr: 0x10001AE50, symSize: 0xA0 }
  - { offset: 0x1020A5, size: 0x8, addend: 0x0, symName: __ZN6fuzzerL20RenameFeatureSetFileERKNSt3__112basic_stringIcNS0_11char_traitsIcEENS0_9allocatorIcEEEES8_S8_, symObjAddr: 0x2C4C, symBinAddr: 0x10001AE50, symSize: 0xA0 }
  - { offset: 0x1020C1, size: 0x8, addend: 0x0, symName: __ZN6fuzzerL20RenameFeatureSetFileERKNSt3__112basic_stringIcNS0_11char_traitsIcEENS0_9allocatorIcEEEES8_S8_, symObjAddr: 0x2C4C, symBinAddr: 0x10001AE50, symSize: 0xA0 }
  - { offset: 0x10240C, size: 0x8, addend: 0x0, symName: '__ZN6fuzzer18ForEachNonZeroByteIZNKS_7TracePC15CollectFeaturesIZNS_6Fuzzer6RunOneEPKhmbPNS_9InputInfoEbPbE3$_0EEmT_EUlmmhE_EEmS5_S5_mSA_', symObjAddr: 0x7520, symBinAddr: 0x10001E464, symSize: 0xAEC }
  - { offset: 0x1032E8, size: 0x8, addend: 0x0, symName: '__ZZN6fuzzer6Fuzzer6RunOneEPKhmbPNS_9InputInfoEbPbENK3$_0clEj', symObjAddr: 0x800C, symBinAddr: 0x10001EF50, symSize: 0x114 }
  - { offset: 0x119273, size: 0x8, addend: 0x0, symName: __ZNSt3__113__stable_sortINS_17_ClassicAlgPolicyERNS_6__lessIvvEENS_11__wrap_iterIPN6fuzzer9SizedFileEEEEEvT1_SA_T0_NS_15iterator_traitsISA_E15difference_typeEPNSD_10value_typeEl, symObjAddr: 0x8F50, symBinAddr: 0x10001FE94, symSize: 0x2A4 }
  - { offset: 0x119C4F, size: 0x8, addend: 0x0, symName: __ZNSt3__124__buffered_inplace_mergeB8nn210106INS_17_ClassicAlgPolicyERNS_6__lessIvvEENS_11__wrap_iterIPN6fuzzer9SizedFileEEEEEvT1_SA_SA_OT0_NS_15iterator_traitsISA_E15difference_typeESF_PNSE_10value_typeE, symObjAddr: 0x9AE4, symBinAddr: 0x100020A28, symSize: 0x174 }
  - { offset: 0x11E71F, size: 0x8, addend: 0x0, symName: __ZNSt3__115__inplace_mergeINS_17_ClassicAlgPolicyERNS_6__lessIvvEENS_11__wrap_iterIPN6fuzzer9SizedFileEEEEEvT1_SA_SA_OT0_NS_15iterator_traitsISA_E15difference_typeESF_PNSE_10value_typeEl, symObjAddr: 0x964C, symBinAddr: 0x100020590, symSize: 0x2E4 }
  - { offset: 0x11F0FC, size: 0x8, addend: 0x0, symName: __ZNSt3__118__stable_sort_moveINS_17_ClassicAlgPolicyERNS_6__lessIvvEENS_11__wrap_iterIPN6fuzzer9SizedFileEEEEEvT1_SA_T0_NS_15iterator_traitsISA_E15difference_typeEPNSD_10value_typeE, symObjAddr: 0x91F4, symBinAddr: 0x100020138, symSize: 0x2AC }
  - { offset: 0x11F9CC, size: 0x8, addend: 0x0, symName: __ZNSt3__119__merge_move_assignB8nn210106INS_17_ClassicAlgPolicyERNS_6__lessIvvEEPN6fuzzer9SizedFileES7_NS_11__wrap_iterIS7_EEEEvT1_SA_T2_SB_T3_T0_, symObjAddr: 0x94A0, symBinAddr: 0x1000203E4, symSize: 0x1AC }
  - { offset: 0x12017E, size: 0x8, addend: 0x0, symName: __ZNSt3__121__insertion_sort_moveB8nn210106INS_17_ClassicAlgPolicyERNS_6__lessIvvEENS_11__wrap_iterIPN6fuzzer9SizedFileEEEEEvT1_SA_PNS_15iterator_traitsISA_E10value_typeET0_, symObjAddr: 0x9930, symBinAddr: 0x100020874, symSize: 0x1B4 }
  - { offset: 0x120C96, size: 0x8, addend: 0x0, symName: __ZNSt3__116__rotate_forwardB8nn210106INS_17_ClassicAlgPolicyENS_11__wrap_iterIPN6fuzzer9SizedFileEEEEET0_S7_S7_S7_, symObjAddr: 0x9F10, symBinAddr: 0x100020E54, symSize: 0x1E0 }
  - { offset: 0x121329, size: 0x8, addend: 0x0, symName: __ZNSt3__120__half_inplace_mergeB8nn210106INS_17_ClassicAlgPolicyENS_8__invertIRNS_6__lessIvvEEEENS_16reverse_iteratorIPN6fuzzer9SizedFileEEESB_NS7_INS_11__wrap_iterISA_EEEESE_SE_EEvT1_T2_T3_T4_T5_OT0_, symObjAddr: 0x9D94, symBinAddr: 0x100020CD8, symSize: 0x17C }
  - { offset: 0x1218C6, size: 0x8, addend: 0x0, symName: __ZNSt3__120__half_inplace_mergeB8nn210106INS_17_ClassicAlgPolicyERNS_6__lessIvvEEPN6fuzzer9SizedFileES7_NS_11__wrap_iterIS7_EES9_S9_EEvT1_T2_T3_T4_T5_OT0_, symObjAddr: 0x9C58, symBinAddr: 0x100020B9C, symSize: 0x13C }
  - { offset: 0x122E35, size: 0x8, addend: 0x0, symName: __ZNSt3__16vectorIhNS_9allocatorIhEEE18__assign_with_sizeB8nn210106IPhS5_EEvT_T0_l, symObjAddr: 0x4C78, symBinAddr: 0x10001CC70, symSize: 0x13C }
  - { offset: 0x123E23, size: 0x8, addend: 0x0, symName: __ZN6fuzzer6Fuzzer23CheckExitOnSrcPosOrItemEv, symObjAddr: 0x140C, symBinAddr: 0x100019610, symSize: 0x320 }
  - { offset: 0x123E4B, size: 0x8, addend: 0x0, symName: __MergedGlobals, symObjAddr: 0x122510, symBinAddr: 0x1000783E8, symSize: 0x0 }
  - { offset: 0x12483A, size: 0x8, addend: 0x0, symName: __ZN6fuzzer6Fuzzer18RereadOutputCorpusEm, symObjAddr: 0x172C, symBinAddr: 0x100019930, symSize: 0x2D0 }
  - { offset: 0x124E4B, size: 0x8, addend: 0x0, symName: __ZNSt3__124uniform_int_distributionIlEclIN6fuzzer6RandomEEElRT_RKNS1_10param_typeE, symObjAddr: 0x8BA8, symBinAddr: 0x10001FAEC, symSize: 0x1B4 }
  - { offset: 0x124EE7, size: 0x8, addend: 0x0, symName: __ZNSt3__124uniform_int_distributionIlEclIN6fuzzer6RandomEEElRT_RKNS1_10param_typeE, symObjAddr: 0x8BA8, symBinAddr: 0x10001FAEC, symSize: 0x1B4 }
  - { offset: 0x1250CA, size: 0x8, addend: 0x0, symName: __ZN6fuzzer16MallocFreeTracerD1Ev, symObjAddr: 0x0, symBinAddr: 0x100018204, symSize: 0x28 }
  - { offset: 0x125285, size: 0x8, addend: 0x0, symName: __ZN6fuzzer6Fuzzer12HandleMallocEm, symObjAddr: 0x10C, symBinAddr: 0x100018310, symSize: 0x80 }
  - { offset: 0x12532F, size: 0x8, addend: 0x0, symName: __ZN6fuzzer8FreeHookEPVKv, symObjAddr: 0x18C, symBinAddr: 0x100018390, symSize: 0xC4 }
  - { offset: 0x125339, size: 0x8, addend: 0x0, symName: __ZN6fuzzer6Fuzzer15DumpCurrentUnitEPKc, symObjAddr: 0x250, symBinAddr: 0x100018454, symSize: 0x18C }
  - { offset: 0x125AE6, size: 0x8, addend: 0x0, symName: __ZN6fuzzer6Fuzzer15PrintFinalStatsEv, symObjAddr: 0x3DC, symBinAddr: 0x1000185E0, symSize: 0x160 }
  - { offset: 0x125AF1, size: 0x8, addend: 0x0, symName: __ZN6fuzzer6Fuzzer15PrintFinalStatsEv, symObjAddr: 0x3DC, symBinAddr: 0x1000185E0, symSize: 0x160 }
  - { offset: 0x126169, size: 0x8, addend: 0x0, symName: __ZN6fuzzer6Fuzzer25WriteUnitToFileWithPrefixERKNSt3__16vectorIhNS1_9allocatorIhEEEEPKc, symObjAddr: 0x7D4, symBinAddr: 0x1000189D8, symSize: 0x294 }
  - { offset: 0x126CD5, size: 0x8, addend: 0x0, symName: __ZN6fuzzer6Fuzzer19StaticAlarmCallbackEv, symObjAddr: 0xA68, symBinAddr: 0x100018C6C, symSize: 0xC }
  - { offset: 0x126CEA, size: 0x8, addend: 0x0, symName: __ZNSt3__16vectorIjNS_9allocatorIjEEE18__assign_with_sizeB8nn210106IPjS5_EEvT_T0_l, symObjAddr: 0x4DC8, symBinAddr: 0x10001CDAC, symSize: 0x14C }
  - { offset: 0x126D6A, size: 0x8, addend: 0x0, symName: __ZN6fuzzer11InputCorpus10PrintStatsEv, symObjAddr: 0x12E4, symBinAddr: 0x1000194E8, symSize: 0xC8 }
  - { offset: 0x126D8F, size: 0x8, addend: 0x0, symName: __ZN6fuzzer11InputCorpus10PrintStatsEv, symObjAddr: 0x12E4, symBinAddr: 0x1000194E8, symSize: 0xC8 }
  - { offset: 0x12753B, size: 0x8, addend: 0x0, symName: __ZN6fuzzer6FuzzerC2EPFiPKhmERNS_11InputCorpusERNS_18MutationDispatcherERKNS_14FuzzingOptionsE, symObjAddr: 0x53C, symBinAddr: 0x100018740, symSize: 0x1F8 }
  - { offset: 0x127C13, size: 0x8, addend: 0x0, symName: __ZN6fuzzer14FuzzingOptionsC2ERKS0_, symObjAddr: 0x4704, symBinAddr: 0x10001C908, symSize: 0x25C }
  - { offset: 0x12808A, size: 0x8, addend: 0x0, symName: __ZN6fuzzer6Fuzzer19StaticDeathCallbackEv, symObjAddr: 0x734, symBinAddr: 0x100018938, symSize: 0x34 }
  - { offset: 0x1280E2, size: 0x8, addend: 0x0, symName: __ZN6fuzzer6Fuzzer23AllocateCurrentUnitDataEv, symObjAddr: 0x768, symBinAddr: 0x10001896C, symSize: 0x3C }
  - { offset: 0x128104, size: 0x8, addend: 0x0, symName: __ZN6fuzzer6FuzzerC1EPFiPKhmERNS_11InputCorpusERNS_18MutationDispatcherERKNS_14FuzzingOptionsE, symObjAddr: 0x7A4, symBinAddr: 0x1000189A8, symSize: 0x4 }
  - { offset: 0x12816A, size: 0x8, addend: 0x0, symName: __ZN6fuzzer6FuzzerC1EPFiPKhmERNS_11InputCorpusERNS_18MutationDispatcherERKNS_14FuzzingOptionsE, symObjAddr: 0x7A4, symBinAddr: 0x1000189A8, symSize: 0x4 }
  - { offset: 0x128199, size: 0x8, addend: 0x0, symName: __ZN6fuzzer6Fuzzer13DeathCallbackEv, symObjAddr: 0x7A8, symBinAddr: 0x1000189AC, symSize: 0x2C }
  - { offset: 0x1284AE, size: 0x8, addend: 0x0, symName: __ZN6fuzzer6Fuzzer19StaticAlarmCallbackEv, symObjAddr: 0xA68, symBinAddr: 0x100018C6C, symSize: 0xC }
  - { offset: 0x1284D3, size: 0x8, addend: 0x0, symName: __ZN6fuzzer6Fuzzer13AlarmCallbackEv, symObjAddr: 0xA74, symBinAddr: 0x100018C78, symSize: 0x138 }
  - { offset: 0x128625, size: 0x8, addend: 0x0, symName: __ZN6fuzzer6Fuzzer25StaticCrashSignalCallbackEv, symObjAddr: 0xBAC, symBinAddr: 0x100018DB0, symSize: 0xC }
  - { offset: 0x128649, size: 0x8, addend: 0x0, symName: __ZN6fuzzer6Fuzzer25StaticCrashSignalCallbackEv, symObjAddr: 0xBAC, symBinAddr: 0x100018DB0, symSize: 0xC }
  - { offset: 0x12866D, size: 0x8, addend: 0x0, symName: __ZN6fuzzer6Fuzzer13CrashCallbackEv, symObjAddr: 0xBB8, symBinAddr: 0x100018DBC, symSize: 0x90 }
  - { offset: 0x128714, size: 0x8, addend: 0x0, symName: __ZN6fuzzer6Fuzzer18StaticExitCallbackEv, symObjAddr: 0xC48, symBinAddr: 0x100018E4C, symSize: 0xC }
  - { offset: 0x12871F, size: 0x8, addend: 0x0, symName: __ZN6fuzzer6Fuzzer18StaticExitCallbackEv, symObjAddr: 0xC48, symBinAddr: 0x100018E4C, symSize: 0xC }
  - { offset: 0x128743, size: 0x8, addend: 0x0, symName: __ZN6fuzzer6Fuzzer12ExitCallbackEv, symObjAddr: 0xC54, symBinAddr: 0x100018E58, symSize: 0x94 }
  - { offset: 0x1287DC, size: 0x8, addend: 0x0, symName: __ZN6fuzzer6Fuzzer23StaticInterruptCallbackEv, symObjAddr: 0xCE8, symBinAddr: 0x100018EEC, symSize: 0x14 }
  - { offset: 0x1287E7, size: 0x8, addend: 0x0, symName: __ZN6fuzzer6Fuzzer23StaticInterruptCallbackEv, symObjAddr: 0xCE8, symBinAddr: 0x100018EEC, symSize: 0x14 }
  - { offset: 0x128801, size: 0x8, addend: 0x0, symName: __ZN6fuzzer6Fuzzer17InterruptCallbackEv, symObjAddr: 0xCFC, symBinAddr: 0x100018F00, symSize: 0x78 }
  - { offset: 0x12880C, size: 0x8, addend: 0x0, symName: __ZN6fuzzer6Fuzzer17InterruptCallbackEv, symObjAddr: 0xCFC, symBinAddr: 0x100018F00, symSize: 0x78 }
  - { offset: 0x1288DB, size: 0x8, addend: 0x0, symName: __ZN6fuzzer6Fuzzer26StaticGracefulExitCallbackEv, symObjAddr: 0xD74, symBinAddr: 0x100018F78, symSize: 0x1C }
  - { offset: 0x1288E6, size: 0x8, addend: 0x0, symName: __ZN6fuzzer6Fuzzer26StaticGracefulExitCallbackEv, symObjAddr: 0xD74, symBinAddr: 0x100018F78, symSize: 0x1C }
  - { offset: 0x12890B, size: 0x8, addend: 0x0, symName: __ZN6fuzzer6Fuzzer28StaticFileSizeExceedCallbackEv, symObjAddr: 0xD90, symBinAddr: 0x100018F94, symSize: 0x28 }
  - { offset: 0x128941, size: 0x8, addend: 0x0, symName: __ZN6fuzzer6Fuzzer19MaybeExitGracefullyEv, symObjAddr: 0xDB8, symBinAddr: 0x100018FBC, symSize: 0x74 }
  - { offset: 0x128960, size: 0x8, addend: 0x0, symName: __ZN6fuzzer6Fuzzer19MaybeExitGracefullyEv, symObjAddr: 0xDB8, symBinAddr: 0x100018FBC, symSize: 0x74 }
  - { offset: 0x1289CE, size: 0x8, addend: 0x0, symName: __ZN6fuzzer6Fuzzer17InterruptExitCodeEv, symObjAddr: 0xE2C, symBinAddr: 0x100019030, symSize: 0x10 }
  - { offset: 0x1289DF, size: 0x8, addend: 0x0, symName: __ZN6fuzzer6Fuzzer17InterruptExitCodeEv, symObjAddr: 0xE2C, symBinAddr: 0x100019030, symSize: 0x10 }
  - { offset: 0x1289F6, size: 0x8, addend: 0x0, symName: __ZN6fuzzer6Fuzzer16RssLimitCallbackEv, symObjAddr: 0xE3C, symBinAddr: 0x100019040, symSize: 0xA0 }
  - { offset: 0x128AAC, size: 0x8, addend: 0x0, symName: __ZN6fuzzer6Fuzzer10PrintStatsEPKcS2_mm, symObjAddr: 0xEDC, symBinAddr: 0x1000190E0, symSize: 0x408 }
  - { offset: 0x128C4F, size: 0x8, addend: 0x0, symName: __ZN6fuzzer6Fuzzer10PrintStatsEPKcS2_mm, symObjAddr: 0xEDC, symBinAddr: 0x1000190E0, symSize: 0x408 }
  - { offset: 0x1290EE, size: 0x8, addend: 0x0, symName: __ZN6fuzzer6Fuzzer14SetMaxInputLenEm, symObjAddr: 0x13AC, symBinAddr: 0x1000195B0, symSize: 0x58 }
  - { offset: 0x129146, size: 0x8, addend: 0x0, symName: __ZN6fuzzer6Fuzzer17SetMaxMutationLenEm, symObjAddr: 0x1404, symBinAddr: 0x100019608, symSize: 0x8 }
  - { offset: 0x129DBC, size: 0x8, addend: 0x0, symName: __ZN6fuzzer6Fuzzer18RereadOutputCorpusEm, symObjAddr: 0x172C, symBinAddr: 0x100019930, symSize: 0x2D0 }
  - { offset: 0x129E29, size: 0x8, addend: 0x0, symName: __ZN6fuzzer6Fuzzer18RereadOutputCorpusEm, symObjAddr: 0x172C, symBinAddr: 0x100019930, symSize: 0x2D0 }
  - { offset: 0x129E48, size: 0x8, addend: 0x0, symName: __ZN6fuzzer6Fuzzer18RereadOutputCorpusEm, symObjAddr: 0x172C, symBinAddr: 0x100019930, symSize: 0x2D0 }
  - { offset: 0x129E67, size: 0x8, addend: 0x0, symName: __ZN6fuzzer6Fuzzer18RereadOutputCorpusEm, symObjAddr: 0x172C, symBinAddr: 0x100019930, symSize: 0x2D0 }
  - { offset: 0x12A8DD, size: 0x8, addend: 0x0, symName: __ZN6fuzzer6Fuzzer6RunOneEPKhmbPNS_9InputInfoEbPb, symObjAddr: 0x19FC, symBinAddr: 0x100019C00, symSize: 0x514 }
  - { offset: 0x12BEA9, size: 0x8, addend: 0x0, symName: __ZN6fuzzer6Fuzzer28PrintPulseAndReportSlowInputEPKhm, symObjAddr: 0x1F10, symBinAddr: 0x10001A114, symSize: 0x1AC }
  - { offset: 0x12C12D, size: 0x8, addend: 0x0, symName: __ZN6fuzzer6Fuzzer15ExecuteCallbackEPKhm, symObjAddr: 0x217C, symBinAddr: 0x10001A380, symSize: 0x280 }
  - { offset: 0x12C926, size: 0x8, addend: 0x0, symName: '__ZNK6fuzzer7TracePC15CollectFeaturesIZNS_6Fuzzer6RunOneEPKhmbPNS_9InputInfoEbPbE3$_0EEmT_', symObjAddr: 0x23FC, symBinAddr: 0x10001A600, symSize: 0x554 }
  - { offset: 0x12C936, size: 0x8, addend: 0x0, symName: '__ZNK6fuzzer7TracePC15CollectFeaturesIZNS_6Fuzzer6RunOneEPKhmbPNS_9InputInfoEbPbE3$_0EEmT_', symObjAddr: 0x23FC, symBinAddr: 0x10001A600, symSize: 0x554 }
  - { offset: 0x12D7F4, size: 0x8, addend: 0x0, symName: __ZN6fuzzer11InputCorpus11AddToCorpusERKNSt3__16vectorIhNS1_9allocatorIhEEEEmbbbNS1_6chrono8durationIxNS1_5ratioILl1ELl1000000EEEEERKNS2_IjNS3_IjEEEERKNS_13DataFlowTraceEPKNS_9InputInfoE, symObjAddr: 0x2950, symBinAddr: 0x10001AB54, symSize: 0x204 }
  - { offset: 0x12D845, size: 0x8, addend: 0x0, symName: __ZN6fuzzer6Fuzzer28PrintPulseAndReportSlowInputEPKhm, symObjAddr: 0x1F10, symBinAddr: 0x10001A114, symSize: 0x1AC }
  - { offset: 0x12DDEB, size: 0x8, addend: 0x0, symName: __ZNSt3__16vectorIhNS_9allocatorIhEEEC1B8nn210106IPKhTnNS_9enable_ifIXaasr31__has_forward_iterator_categoryIT_EE5valuesr16is_constructibleIhNS_15iterator_traitsIS8_E9referenceEEE5valueEiE4typeELi0EEES8_S8_, symObjAddr: 0x20BC, symBinAddr: 0x10001A2C0, symSize: 0xC0 }
  - { offset: 0x12DDF6, size: 0x8, addend: 0x0, symName: __ZNSt3__16vectorIhNS_9allocatorIhEEEC1B8nn210106IPKhTnNS_9enable_ifIXaasr31__has_forward_iterator_categoryIT_EE5valuesr16is_constructibleIhNS_15iterator_traitsIS8_E9referenceEEE5valueEiE4typeELi0EEES8_S8_, symObjAddr: 0x20BC, symBinAddr: 0x10001A2C0, symSize: 0xC0 }
  - { offset: 0x12E0C3, size: 0x8, addend: 0x0, symName: __ZN6fuzzer6Fuzzer15ExecuteCallbackEPKhm, symObjAddr: 0x217C, symBinAddr: 0x10001A380, symSize: 0x280 }
  - { offset: 0x12E0CE, size: 0x8, addend: 0x0, symName: __ZN6fuzzer11InputCorpus7ReplaceEPNS_9InputInfoERKNSt3__16vectorIhNS3_9allocatorIhEEEENS3_6chrono8durationIxNS3_5ratioILl1ELl1000000EEEEE, symObjAddr: 0x2B54, symBinAddr: 0x10001AD58, symSize: 0xF8 }
  - { offset: 0x12E56A, size: 0x8, addend: 0x0, symName: __ZN6fuzzer11InputCorpus11AddToCorpusERKNSt3__16vectorIhNS1_9allocatorIhEEEEmbbbNS1_6chrono8durationIxNS1_5ratioILl1ELl1000000EEEEERKNS2_IjNS3_IjEEEERKNS_13DataFlowTraceEPKNS_9InputInfoE, symObjAddr: 0x2950, symBinAddr: 0x10001AB54, symSize: 0x204 }
  - { offset: 0x12F624, size: 0x8, addend: 0x0, symName: __ZN6fuzzer11InputCorpus10DeleteFileERKNS_9InputInfoE, symObjAddr: 0x56B4, symBinAddr: 0x10001D4B8, symSize: 0xB8 }
  - { offset: 0x12F8F5, size: 0x8, addend: 0x0, symName: __ZN6fuzzer11InputCorpus14AddRareFeatureEj, symObjAddr: 0x845C, symBinAddr: 0x10001F3A0, symSize: 0x440 }
  - { offset: 0x130365, size: 0x8, addend: 0x0, symName: __ZNSt3__16vectorINS_4pairIjtEENS_9allocatorIS2_EEE6insertENS_11__wrap_iterIPKS2_EEOS2_, symObjAddr: 0x8994, symBinAddr: 0x10001F8D8, symSize: 0x200 }
  - { offset: 0x130B44, size: 0x8, addend: 0x0, symName: __ZNSt3__16vectorINS_4pairIjtEENS_9allocatorIS2_EEE20__throw_length_errorB8nn210106Ev, symObjAddr: 0x8B94, symBinAddr: 0x10001FAD8, symSize: 0x14 }
  - { offset: 0x130B4F, size: 0x8, addend: 0x0, symName: __ZNSt3__16vectorINS_4pairIjtEENS_9allocatorIS2_EEE9push_backB8nn210106EOS2_, symObjAddr: 0x889C, symBinAddr: 0x10001F7E0, symSize: 0xF8 }
  - { offset: 0x130F66, size: 0x8, addend: 0x0, symName: __ZNSt3__16vectorINS_4pairIjtEENS_9allocatorIS2_EEE6insertENS_11__wrap_iterIPKS2_EEOS2_, symObjAddr: 0x8994, symBinAddr: 0x10001F8D8, symSize: 0x200 }
  - { offset: 0x130F71, size: 0x8, addend: 0x0, symName: '__ZZN6fuzzer6Fuzzer6RunOneEPKhmbPNS_9InputInfoEbPbENK3$_0clEj', symObjAddr: 0x800C, symBinAddr: 0x10001EF50, symSize: 0x114 }
  - { offset: 0x13129C, size: 0x8, addend: 0x0, symName: __ZNSt3__112__hash_tableINS_12basic_stringIcNS_11char_traitsIcEENS_9allocatorIcEEEENS_4hashIS6_EENS_8equal_toIS6_EENS4_IS6_EEE25__emplace_unique_key_argsIS6_JRKS6_EEENS_4pairINS_15__hash_iteratorIPNS_11__hash_nodeIS6_PvEEEEbEERKT_DpOT0_, symObjAddr: 0x4F28, symBinAddr: 0x10001CEF8, symSize: 0x3E4 }
  - { offset: 0x1314E2, size: 0x8, addend: 0x0, symName: __ZNSt3__16vectorIPN6fuzzer9InputInfoENS_9allocatorIS3_EEE9push_backB8nn210106EOS3_, symObjAddr: 0x4B3C, symBinAddr: 0x10001CB64, symSize: 0xF8 }
  - { offset: 0x1318F9, size: 0x8, addend: 0x0, symName: __ZNSt3__16vectorIPN6fuzzer9InputInfoENS_9allocatorIS3_EEE20__throw_length_errorB8nn210106Ev, symObjAddr: 0x4C34, symBinAddr: 0x10001CC5C, symSize: 0x14 }
  - { offset: 0x131904, size: 0x8, addend: 0x0, symName: __ZNSt3__16vectorIhNS_9allocatorIhEEE18__assign_with_sizeB8nn210106IPhS5_EEvT_T0_l, symObjAddr: 0x4C78, symBinAddr: 0x10001CC70, symSize: 0x13C }
  - { offset: 0x1322E9, size: 0x8, addend: 0x0, symName: __ZNSt3__16vectorIjNS_9allocatorIjEEE18__assign_with_sizeB8nn210106IPjS5_EEvT_T0_l, symObjAddr: 0x4DC8, symBinAddr: 0x10001CDAC, symSize: 0x14C }
  - { offset: 0x132D0C, size: 0x8, addend: 0x0, symName: __ZNSt3__112__hash_tableINS_12basic_stringIcNS_11char_traitsIcEENS_9allocatorIcEEEENS_4hashIS6_EENS_8equal_toIS6_EENS4_IS6_EEE25__emplace_unique_key_argsIS6_JRKS6_EEENS_4pairINS_15__hash_iteratorIPNS_11__hash_nodeIS6_PvEEEEbEERKT_DpOT0_, symObjAddr: 0x4F28, symBinAddr: 0x10001CEF8, symSize: 0x3E4 }
  - { offset: 0x1334C5, size: 0x8, addend: 0x0, symName: __ZNKSt3__112__hash_tableINS_17__hash_value_typeINS_12basic_stringIcNS_11char_traitsIcEENS_9allocatorIcEEEENS_6vectorIhNS5_IhEEEEEENS_22__unordered_map_hasherIS7_NS_4pairIKS7_SA_EENS_4hashIS7_EENS_8equal_toIS7_EELb1EEENS_21__unordered_map_equalIS7_SF_SJ_SH_Lb1EEENS5_ISF_EEE4findIS7_EENS_21__hash_const_iteratorIPNS_11__hash_nodeISB_PvEEEERKT_, symObjAddr: 0x54D8, symBinAddr: 0x10001D2DC, symSize: 0x1DC }
  - { offset: 0x133954, size: 0x8, addend: 0x0, symName: __ZNSt3__112__hash_tableINS_12basic_stringIcNS_11char_traitsIcEENS_9allocatorIcEEEENS_4hashIS6_EENS_8equal_toIS6_EENS4_IS6_EEE4findIS6_EENS_15__hash_iteratorIPNS_11__hash_nodeIS6_PvEEEERKT_, symObjAddr: 0x576C, symBinAddr: 0x10001D570, symSize: 0x1DC }
  - { offset: 0x133CC6, size: 0x8, addend: 0x0, symName: __ZNSt3__112__hash_tableINS_12basic_stringIcNS_11char_traitsIcEENS_9allocatorIcEEEENS_4hashIS6_EENS_8equal_toIS6_EENS4_IS6_EEE5eraseENS_21__hash_const_iteratorIPNS_11__hash_nodeIS6_PvEEEE, symObjAddr: 0x5948, symBinAddr: 0x10001D74C, symSize: 0x170 }
  - { offset: 0x1345E1, size: 0x8, addend: 0x0, symName: __ZN6fuzzer6Fuzzer20TPCUpdateObservedPCsEv, symObjAddr: 0x2CEC, symBinAddr: 0x10001AEF0, symSize: 0xC }
  - { offset: 0x13460A, size: 0x8, addend: 0x0, symName: __ZNK6fuzzer6Fuzzer28GetCurrentUnitInFuzzingTheadEPPKh, symObjAddr: 0x2CF8, symBinAddr: 0x10001AEFC, symSize: 0x10 }
  - { offset: 0x1346A5, size: 0x8, addend: 0x0, symName: __ZN6fuzzer6Fuzzer22CrashOnOverwrittenDataEv, symObjAddr: 0x2D08, symBinAddr: 0x10001AF0C, symSize: 0x58 }
  - { offset: 0x13472C, size: 0x8, addend: 0x0, symName: __ZN6fuzzer6Fuzzer19WriteToOutputCorpusERKNSt3__16vectorIhNS1_9allocatorIhEEEE, symObjAddr: 0x2D60, symBinAddr: 0x10001AF64, symSize: 0x194 }
  - { offset: 0x1347E4, size: 0x8, addend: 0x0, symName: __ZN6fuzzer6Fuzzer19WriteToOutputCorpusERKNSt3__16vectorIhNS1_9allocatorIhEEEE, symObjAddr: 0x2D60, symBinAddr: 0x10001AF64, symSize: 0x194 }
  - { offset: 0x134CBE, size: 0x8, addend: 0x0, symName: __ZN6fuzzer6Fuzzer21PrintStatusForNewUnitERKNSt3__16vectorIhNS1_9allocatorIhEEEEPKc, symObjAddr: 0x2EF4, symBinAddr: 0x10001B0F8, symSize: 0x184 }
  - { offset: 0x134D17, size: 0x8, addend: 0x0, symName: __ZN6fuzzer6Fuzzer21PrintStatusForNewUnitERKNSt3__16vectorIhNS1_9allocatorIhEEEEPKc, symObjAddr: 0x2EF4, symBinAddr: 0x10001B0F8, symSize: 0x184 }
  - { offset: 0x134E5F, size: 0x8, addend: 0x0, symName: __ZN6fuzzer6Fuzzer17ReportNewCoverageEPNS_9InputInfoERKNSt3__16vectorIhNS3_9allocatorIhEEEE, symObjAddr: 0x3078, symBinAddr: 0x10001B27C, symSize: 0x1F4 }
  - { offset: 0x135100, size: 0x8, addend: 0x0, symName: __ZN6fuzzer6Fuzzer23TryDetectingAMemoryLeakEPKhmb, symObjAddr: 0x326C, symBinAddr: 0x10001B470, symSize: 0x130 }
  - { offset: 0x135258, size: 0x8, addend: 0x0, symName: __ZN6fuzzer6Fuzzer16MutateAndTestOneEv, symObjAddr: 0x339C, symBinAddr: 0x10001B5A0, symSize: 0x2A4 }
  - { offset: 0x1353E8, size: 0x8, addend: 0x0, symName: __ZN6fuzzer6Fuzzer16MutateAndTestOneEv, symObjAddr: 0x339C, symBinAddr: 0x10001B5A0, symSize: 0x2A4 }
  - { offset: 0x135CF0, size: 0x8, addend: 0x0, symName: __ZN6fuzzer6Fuzzer14PurgeAllocatorEv, symObjAddr: 0x3640, symBinAddr: 0x10001B844, symSize: 0x9C }
  - { offset: 0x135CFB, size: 0x8, addend: 0x0, symName: __ZN6fuzzer11InputCorpus21ChooseUnitIdxToMutateERNS_6RandomE, symObjAddr: 0x5E78, symBinAddr: 0x10001D8BC, symSize: 0x128 }
  - { offset: 0x1361BC, size: 0x8, addend: 0x0, symName: __ZN6fuzzer6Fuzzer14PurgeAllocatorEv, symObjAddr: 0x3640, symBinAddr: 0x10001B844, symSize: 0x9C }
  - { offset: 0x13683C, size: 0x8, addend: 0x0, symName: __ZN6fuzzer6Fuzzer25ReadAndExecuteSeedCorporaERNSt3__16vectorINS_9SizedFileENS1_9allocatorIS3_EEEE, symObjAddr: 0x36DC, symBinAddr: 0x10001B8E0, symSize: 0x80C }
  - { offset: 0x1383D3, size: 0x8, addend: 0x0, symName: __ZN6fuzzer6Fuzzer4LoopERNSt3__16vectorINS_9SizedFileENS1_9allocatorIS3_EEEE, symObjAddr: 0x3EE8, symBinAddr: 0x10001C0EC, symSize: 0x490 }
  - { offset: 0x139199, size: 0x8, addend: 0x0, symName: __ZN6fuzzer6Fuzzer17MinimizeCrashLoopERKNSt3__16vectorIhNS1_9allocatorIhEEEE, symObjAddr: 0x4378, symBinAddr: 0x10001C57C, symSize: 0x370 }
  - { offset: 0x139A0D, size: 0x8, addend: 0x0, symName: _LLVMFuzzerMutate, symObjAddr: 0x46E8, symBinAddr: 0x10001C8EC, symSize: 0x1C }
  - { offset: 0x139A2C, size: 0x8, addend: 0x0, symName: _LLVMFuzzerMutate, symObjAddr: 0x46E8, symBinAddr: 0x10001C8EC, symSize: 0x1C }
  - { offset: 0x139EA9, size: 0x8, addend: 0x0, symName: __ZNSt3__16vectorIPN6fuzzer9InputInfoENS_9allocatorIS3_EEE20__throw_length_errorB8nn210106Ev, symObjAddr: 0x4C34, symBinAddr: 0x10001CC5C, symSize: 0x14 }
  - { offset: 0x13A449, size: 0x8, addend: 0x0, symName: __ZNKSt3__112__hash_tableINS_17__hash_value_typeINS_12basic_stringIcNS_11char_traitsIcEENS_9allocatorIcEEEENS_6vectorIhNS5_IhEEEEEENS_22__unordered_map_hasherIS7_NS_4pairIKS7_SA_EENS_4hashIS7_EENS_8equal_toIS7_EELb1EEENS_21__unordered_map_equalIS7_SF_SJ_SH_Lb1EEENS5_ISF_EEE4findIS7_EENS_21__hash_const_iteratorIPNS_11__hash_nodeISB_PvEEEERKT_, symObjAddr: 0x54D8, symBinAddr: 0x10001D2DC, symSize: 0x1DC }
  - { offset: 0x13AA51, size: 0x8, addend: 0x0, symName: __ZN6fuzzer11InputCorpus24UpdateCorpusDistributionERNS_6RandomE, symObjAddr: 0x5FA0, symBinAddr: 0x10001D9E4, symSize: 0x5EC }
  - { offset: 0x13BA44, size: 0x8, addend: 0x0, symName: __ZN6fuzzer9InputInfo12UpdateEnergyEmbNSt3__16chrono8durationIxNS1_5ratioILl1ELl1000000EEEEE, symObjAddr: 0x658C, symBinAddr: 0x10001DFD0, symSize: 0x178 }
  - { offset: 0x13C0AC, size: 0x8, addend: 0x0, symName: __ZNSt3__131piecewise_constant_distributionIdE10param_typeaSERKS2_, symObjAddr: 0x6F90, symBinAddr: 0x10001E148, symSize: 0x1D0 }
  - { offset: 0x13CC04, size: 0x8, addend: 0x0, symName: __ZNSt3__16vectorIdNS_9allocatorIdEEE18__assign_with_sizeB8nn210106IPdS5_EEvT_T0_l, symObjAddr: 0x7160, symBinAddr: 0x10001E318, symSize: 0x14C }
  - { offset: 0x13DB78, size: 0x8, addend: 0x0, symName: __ZNSt3__16vectorIdNS_9allocatorIdEEE18__assign_with_sizeB8nn210106IPdS5_EEvT_T0_l, symObjAddr: 0x7160, symBinAddr: 0x10001E318, symSize: 0x14C }
  - { offset: 0x13E678, size: 0x8, addend: 0x0, symName: __ZN6fuzzer11InputCorpus10AddFeatureEmjb, symObjAddr: 0x8120, symBinAddr: 0x10001F064, symSize: 0x120 }
  - { offset: 0x13E8D2, size: 0x8, addend: 0x0, symName: __ZNSt3__16vectorIjNS_9allocatorIjEEE9push_backB8nn210106ERKj, symObjAddr: 0x8240, symBinAddr: 0x10001F184, symSize: 0xF8 }
  - { offset: 0x13ECDD, size: 0x8, addend: 0x0, symName: __ZN6fuzzer11InputCorpus22UpdateFeatureFrequencyEPNS_9InputInfoEm, symObjAddr: 0x8338, symBinAddr: 0x10001F27C, symSize: 0x124 }
  - { offset: 0x13ECE8, size: 0x8, addend: 0x0, symName: __ZN6fuzzer11InputCorpus22UpdateFeatureFrequencyEPNS_9InputInfoEm, symObjAddr: 0x8338, symBinAddr: 0x10001F27C, symSize: 0x124 }
  - { offset: 0x13F592, size: 0x8, addend: 0x0, symName: __ZNSt3__16vectorINS_4pairIjtEENS_9allocatorIS2_EEE20__throw_length_errorB8nn210106Ev, symObjAddr: 0x8B94, symBinAddr: 0x10001FAD8, symSize: 0x14 }
  - { offset: 0x13F5AA, size: 0x8, addend: 0x0, symName: __ZNSt3__124uniform_int_distributionIlEclIN6fuzzer6RandomEEElRT_RKNS1_10param_typeE, symObjAddr: 0x8BA8, symBinAddr: 0x10001FAEC, symSize: 0x1B4 }
  - { offset: 0x13F836, size: 0x8, addend: 0x0, symName: __ZNSt3__125__independent_bits_engineIN6fuzzer6RandomEmE6__evalENS_17integral_constantIbLb1EEE, symObjAddr: 0x8D5C, symBinAddr: 0x10001FCA0, symSize: 0x1F4 }
  - { offset: 0x13FE7F, size: 0x8, addend: 0x0, symName: __GLOBAL__sub_I_FuzzerLoop.cpp, symObjAddr: 0xA170, symBinAddr: 0x100021054, symSize: 0x44 }
  - { offset: 0x141D43, size: 0x8, addend: 0x0, symName: __ZN6fuzzer6Merger5ParseERKNSt3__112basic_stringIcNS1_11char_traitsIcEENS1_9allocatorIcEEEEb, symObjAddr: 0x0, symBinAddr: 0x100021098, symSize: 0x188 }
  - { offset: 0x151ECA, size: 0x8, addend: 0x0, symName: '__ZNSt3__111__introsortINS_17_ClassicAlgPolicyERZN6fuzzer6Merger5MergeERKNS_3setIjNS_4lessIjEENS_9allocatorIjEEEEPS9_SB_SC_PNS_6vectorINS_12basic_stringIcNS_11char_traitsIcEENS7_IcEEEENS7_ISI_EEEEE3$_0PNS2_13MergeFileInfoELb0EEEvT1_SQ_T0_NS_15iterator_traitsISQ_E15difference_typeEb', symObjAddr: 0x925C, symBinAddr: 0x100028020, symSize: 0x1430 }
  - { offset: 0x156EE5, size: 0x8, addend: 0x0, symName: '__ZNSt3__127__insertion_sort_incompleteB8nn210106INS_17_ClassicAlgPolicyERZN6fuzzer6Merger5MergeERKNS_3setIjNS_4lessIjEENS_9allocatorIjEEEEPS9_SB_SC_PNS_6vectorINS_12basic_stringIcNS_11char_traitsIcEENS7_IcEEEENS7_ISI_EEEEE3$_0PNS2_13MergeFileInfoEEEbT1_SQ_T0_', symObjAddr: 0xAA08, symBinAddr: 0x1000297CC, symSize: 0x35C }
  - { offset: 0x1642AB, size: 0x8, addend: 0x0, symName: __ZNSt3__113__tree_removeB8nn210106IPNS_16__tree_node_baseIPvEEEEvT_S5_, symObjAddr: 0xC958, symBinAddr: 0x10002B5EC, symSize: 0x424 }
  - { offset: 0x165CE1, size: 0x8, addend: 0x0, symName: __ZNSt3__134__uninitialized_allocator_relocateB8nn210106INS_9allocatorIN6fuzzer13MergeFileInfoEEEPS3_EEvRT_T0_S8_S8_, symObjAddr: 0x8A8C, symBinAddr: 0x100027E84, symSize: 0xF8 }
  - { offset: 0x165D40, size: 0x8, addend: 0x0, symName: __ZNSt3__134__uninitialized_allocator_relocateB8nn210106INS_9allocatorIN6fuzzer13MergeFileInfoEEEPS3_EEvRT_T0_S8_S8_, symObjAddr: 0x8A8C, symBinAddr: 0x100027E84, symSize: 0xF8 }
  - { offset: 0x166F49, size: 0x8, addend: 0x0, symName: '__ZNSt3__17__sort3B8nn210106INS_17_ClassicAlgPolicyERZN6fuzzer6Merger5MergeERKNS_3setIjNS_4lessIjEENS_9allocatorIjEEEEPS9_SB_SC_PNS_6vectorINS_12basic_stringIcNS_11char_traitsIcEENS7_IcEEEENS7_ISI_EEEEE3$_0PNS2_13MergeFileInfoETnNS_9enable_ifIXnt21__use_branchless_sortIT0_T1_EEiE4typeELi0EEEbSS_SS_SS_SR_', symObjAddr: 0xA68C, symBinAddr: 0x100029450, symSize: 0x150 }
  - { offset: 0x167328, size: 0x8, addend: 0x0, symName: __ZNSt3__14swapB8nn210106IN6fuzzer13MergeFileInfoEEENS_9enable_ifIXaasr21is_move_constructibleIT_EE5valuesr18is_move_assignableIS4_EE5valueEvE4typeERS4_S7_, symObjAddr: 0xAD64, symBinAddr: 0x100029B28, symSize: 0x168 }
  - { offset: 0x167B91, size: 0x8, addend: 0x0, symName: '__ZNSt3__17__sort5B8nn210106INS_17_ClassicAlgPolicyERZN6fuzzer6Merger5MergeERKNS_3setIjNS_4lessIjEENS_9allocatorIjEEEEPS9_SB_SC_PNS_6vectorINS_12basic_stringIcNS_11char_traitsIcEENS7_IcEEEENS7_ISI_EEEEE3$_0PNS2_13MergeFileInfoETnNS_9enable_ifIXnt21__use_branchless_sortIT0_T1_EEiE4typeELi0EEEvSS_SS_SS_SS_SS_SR_', symObjAddr: 0xA8CC, symBinAddr: 0x100029690, symSize: 0x13C }
  - { offset: 0x167F0E, size: 0x8, addend: 0x0, symName: '__ZNSt3__17__sort4B8nn210106INS_17_ClassicAlgPolicyERZN6fuzzer6Merger5MergeERKNS_3setIjNS_4lessIjEENS_9allocatorIjEEEEPS9_SB_SC_PNS_6vectorINS_12basic_stringIcNS_11char_traitsIcEENS7_IcEEEENS7_ISI_EEEEE3$_0PNS2_13MergeFileInfoETnNS_9enable_ifIXnt21__use_branchless_sortIT0_T1_EEiE4typeELi0EEEvSS_SS_SS_SS_SR_', symObjAddr: 0xA7DC, symBinAddr: 0x1000295A0, symSize: 0xF0 }
  - { offset: 0x16B385, size: 0x8, addend: 0x0, symName: '__ZN6fuzzer18ForEachNonZeroByteIZNKS_7TracePC15CollectFeaturesIZNS_6Fuzzer31CrashResistantMergeInternalStepERKNSt3__112basic_stringIcNS4_11char_traitsIcEENS4_9allocatorIcEEEEbE3$_1EEmT_EUlmmhE_EEmPKhSH_mSE_', symObjAddr: 0xB150, symBinAddr: 0x100029DE4, symSize: 0x714 }
  - { offset: 0x16BF43, size: 0x8, addend: 0x0, symName: '__ZN6fuzzer18ForEachNonZeroByteIZNKS_7TracePC15CollectFeaturesIZNS_6Fuzzer31CrashResistantMergeInternalStepERKNSt3__112basic_stringIcNS4_11char_traitsIcEENS4_9allocatorIcEEEEbE3$_2EEmT_EUlmmhE_EEmPKhSH_mSE_', symObjAddr: 0xB9C0, symBinAddr: 0x10002A654, symSize: 0xC5C }
  - { offset: 0x16CFE2, size: 0x8, addend: 0x0, symName: __ZN6fuzzer19CrashResistantMergeERKNSt3__16vectorINS0_12basic_stringIcNS0_11char_traitsIcEENS0_9allocatorIcEEEENS5_IS7_EEEERKNS1_INS_9SizedFileENS5_ISC_EEEESG_PS9_RKNS0_3setIjNS0_4lessIjEENS5_IjEEEEPSM_SO_SP_RKS7_bb, symObjAddr: 0x59D8, symBinAddr: 0x1000264DC, symSize: 0x16EC }
  - { offset: 0x173EC9, size: 0x8, addend: 0x0, symName: __ZN6fuzzer6Merger5ParseERKNSt3__112basic_stringIcNS1_11char_traitsIcEENS1_9allocatorIcEEEEb, symObjAddr: 0x0, symBinAddr: 0x100021098, symSize: 0x188 }
  - { offset: 0x1741A3, size: 0x8, addend: 0x0, symName: __ZN6fuzzer6Merger5ParseERNSt3__113basic_istreamIcNS1_11char_traitsIcEEEEb, symObjAddr: 0x188, symBinAddr: 0x100021220, symSize: 0xB10 }
  - { offset: 0x175D0E, size: 0x8, addend: 0x0, symName: __ZN6fuzzer6Merger11ParseOrExitERNSt3__113basic_istreamIcNS1_11char_traitsIcEEEEb, symObjAddr: 0xC98, symBinAddr: 0x100021D30, symSize: 0x2C }
  - { offset: 0x176771, size: 0x8, addend: 0x0, symName: __ZNSt3__16vectorIN6fuzzer13MergeFileInfoENS_9allocatorIS2_EEE6resizeEm, symObjAddr: 0xF90, symBinAddr: 0x100021D5C, symSize: 0xCC }
  - { offset: 0x176F0D, size: 0x8, addend: 0x0, symName: __ZNK6fuzzer6Merger28ApproximateMemoryConsumptionEv, symObjAddr: 0x1324, symBinAddr: 0x100021E28, symSize: 0xE8 }
  - { offset: 0x177620, size: 0x8, addend: 0x0, symName: __ZN6fuzzer6Merger11ParseOrExitERNSt3__113basic_istreamIcNS1_11char_traitsIcEEEEb, symObjAddr: 0xC98, symBinAddr: 0x100021D30, symSize: 0x2C }
  - { offset: 0x177D1F, size: 0x8, addend: 0x0, symName: __ZNSt3__16vectorIN6fuzzer13MergeFileInfoENS_9allocatorIS2_EEE8__appendEm, symObjAddr: 0x88EC, symBinAddr: 0x100027CE4, symSize: 0x18C }
  - { offset: 0x177E96, size: 0x8, addend: 0x0, symName: __ZNSt3__16vectorIN6fuzzer13MergeFileInfoENS_9allocatorIS2_EEE8__appendEm, symObjAddr: 0x88EC, symBinAddr: 0x100027CE4, symSize: 0x18C }
  - { offset: 0x1782FD, size: 0x8, addend: 0x0, symName: __ZNSt3__16vectorIN6fuzzer13MergeFileInfoENS_9allocatorIS2_EEE20__throw_length_errorB8nn210106Ev, symObjAddr: 0x8A78, symBinAddr: 0x100027E70, symSize: 0x14 }
  - { offset: 0x1783D8, size: 0x8, addend: 0x0, symName: __ZNK6fuzzer6Merger28ApproximateMemoryConsumptionEv, symObjAddr: 0x1324, symBinAddr: 0x100021E28, symSize: 0xE8 }
  - { offset: 0x17842A, size: 0x8, addend: 0x0, symName: __ZNK6fuzzer6Merger28ApproximateMemoryConsumptionEv, symObjAddr: 0x1324, symBinAddr: 0x100021E28, symSize: 0xE8 }
  - { offset: 0x178DBF, size: 0x8, addend: 0x0, symName: __ZN6fuzzer6Merger5MergeERKNSt3__13setIjNS1_4lessIjEENS1_9allocatorIjEEEEPS7_S9_SA_PNS1_6vectorINS1_12basic_stringIcNS1_11char_traitsIcEENS5_IcEEEENS5_ISG_EEEE, symObjAddr: 0x140C, symBinAddr: 0x100021F10, symSize: 0x11CC }
  - { offset: 0x17BF63, size: 0x8, addend: 0x0, symName: __ZNK6fuzzer6Merger11AllFeaturesEv, symObjAddr: 0x25D8, symBinAddr: 0x1000230DC, symSize: 0x358 }
  - { offset: 0x17C63E, size: 0x8, addend: 0x0, symName: __ZNSt3__16vectorIN6fuzzer13MergeFileInfoENS_9allocatorIS2_EEE16__destroy_vectorclB8nn210106Ev, symObjAddr: 0xAFFC, symBinAddr: 0x100029C90, symSize: 0xC4 }
  - { offset: 0x17C8F7, size: 0x8, addend: 0x0, symName: __ZNK6fuzzer6Merger11AllFeaturesEv, symObjAddr: 0x25D8, symBinAddr: 0x1000230DC, symSize: 0x358 }
  - { offset: 0x17DDD6, size: 0x8, addend: 0x0, symName: __ZN6fuzzer6Fuzzer31CrashResistantMergeInternalStepERKNSt3__112basic_stringIcNS1_11char_traitsIcEENS1_9allocatorIcEEEEb, symObjAddr: 0x2930, symBinAddr: 0x100023434, symSize: 0xFEC }
  - { offset: 0x180B22, size: 0x8, addend: 0x0, symName: '__ZNK6fuzzer7TracePC15CollectFeaturesIZNS_6Fuzzer31CrashResistantMergeInternalStepERKNSt3__112basic_stringIcNS3_11char_traitsIcEENS3_9allocatorIcEEEEbE3$_1EEmT_', symObjAddr: 0x391C, symBinAddr: 0x100024420, symSize: 0x4C0 }
  - { offset: 0x181546, size: 0x8, addend: 0x0, symName: '__ZNK6fuzzer7TracePC15CollectFeaturesIZNS_6Fuzzer31CrashResistantMergeInternalStepERKNSt3__112basic_stringIcNS3_11char_traitsIcEENS3_9allocatorIcEEEEbE3$_1EEmT_', symObjAddr: 0x391C, symBinAddr: 0x100024420, symSize: 0x4C0 }
  - { offset: 0x181F71, size: 0x8, addend: 0x0, symName: '__ZNK6fuzzer7TracePC15CollectFeaturesIZNS_6Fuzzer31CrashResistantMergeInternalStepERKNSt3__112basic_stringIcNS3_11char_traitsIcEENS3_9allocatorIcEEEEbE3$_2EEmT_', symObjAddr: 0x3DDC, symBinAddr: 0x1000248E0, symSize: 0x6A8 }
  - { offset: 0x182C5C, size: 0x8, addend: 0x0, symName: __ZNSt3__16__treeImNS_4lessImEENS_9allocatorImEEE7destroyEPNS_11__tree_nodeImPvEE, symObjAddr: 0xB0C0, symBinAddr: 0x100029D54, symSize: 0x48 }
  - { offset: 0x182D52, size: 0x8, addend: 0x0, symName: __ZNSt3__16__treeIPKN6fuzzer7TracePC12PCTableEntryENS_4lessIS5_EENS_9allocatorIS5_EEE7destroyEPNS_11__tree_nodeIS5_PvEE, symObjAddr: 0xB108, symBinAddr: 0x100029D9C, symSize: 0x48 }
  - { offset: 0x182E48, size: 0x8, addend: 0x0, symName: __ZNSt3__16vectorIN6fuzzer13MergeFileInfoENS_9allocatorIS2_EEE16__destroy_vectorclB8nn210106Ev, symObjAddr: 0xAFFC, symBinAddr: 0x100029C90, symSize: 0xC4 }
  - { offset: 0x18388D, size: 0x8, addend: 0x0, symName: '__ZZN6fuzzer6Fuzzer31CrashResistantMergeInternalStepERKNSt3__112basic_stringIcNS1_11char_traitsIcEENS1_9allocatorIcEEEEbENK3$_2clEm', symObjAddr: 0xC61C, symBinAddr: 0x10002B2B0, symSize: 0x140 }
  - { offset: 0x1842E8, size: 0x8, addend: 0x0, symName: __ZN6fuzzer6Merger13SetCoverMergeERKNSt3__13setIjNS1_4lessIjEENS1_9allocatorIjEEEEPS7_S9_SA_PNS1_6vectorINS1_12basic_stringIcNS1_11char_traitsIcEENS5_IcEEEENS5_ISG_EEEE, symObjAddr: 0x4484, symBinAddr: 0x100024F88, symSize: 0x1554 }
  - { offset: 0x187E19, size: 0x8, addend: 0x0, symName: __ZNSt3__16vectorIbNS_9allocatorIbEEE18__construct_at_endB8nn210106Emb, symObjAddr: 0xC75C, symBinAddr: 0x10002B3F0, symSize: 0x1FC }
  - { offset: 0x187E65, size: 0x8, addend: 0x0, symName: __ZNSt3__16vectorIbNS_9allocatorIbEEE18__construct_at_endB8nn210106Emb, symObjAddr: 0xC75C, symBinAddr: 0x10002B3F0, symSize: 0x1FC }
  - { offset: 0x187E81, size: 0x8, addend: 0x0, symName: __ZNSt3__16vectorIbNS_9allocatorIbEEE18__construct_at_endB8nn210106Emb, symObjAddr: 0xC75C, symBinAddr: 0x10002B3F0, symSize: 0x1FC }
  - { offset: 0x188F24, size: 0x8, addend: 0x0, symName: __ZNSt3__16vectorIN6fuzzer13MergeFileInfoENS_9allocatorIS2_EEE18__assign_with_sizeB8nn210106IPS2_S7_EEvT_T0_l, symObjAddr: 0xCD7C, symBinAddr: 0x10002BA10, symSize: 0x2C0 }
  - { offset: 0x189D1D, size: 0x8, addend: 0x0, symName: __ZNSt3__16vectorIN6fuzzer13MergeFileInfoENS_9allocatorIS2_EEE13__vdeallocateEv, symObjAddr: 0xD03C, symBinAddr: 0x10002BCD0, symSize: 0xB4 }
  - { offset: 0x18A277, size: 0x8, addend: 0x0, symName: __ZNSt3__113unordered_setINS_12basic_stringIcNS_11char_traitsIcEENS_9allocatorIcEEEENS_4hashIS6_EENS_8equal_toIS6_EENS4_IS6_EEEC2ERKSC_, symObjAddr: 0x7A4C, symBinAddr: 0x100027BC8, symSize: 0x11C }
  - { offset: 0x18B219, size: 0x8, addend: 0x0, symName: __ZNSt3__16vectorIN6fuzzer13MergeFileInfoENS_9allocatorIS2_EEE18__insert_with_sizeB8nn210106INS_11__wrap_iterIPS2_EES9_EES9_NS7_IPKS2_EET_T0_l, symObjAddr: 0xD20C, symBinAddr: 0x10002BEA0, symSize: 0x354 }
  - { offset: 0x18BE47, size: 0x8, addend: 0x0, symName: __ZNSt3__16vectorIN6fuzzer13MergeFileInfoENS_9allocatorIS2_EEE27__insert_assign_n_uncheckedB8nn210106INS_11__wrap_iterIPS2_EETnNS_9enable_ifIXntsr7is_sameIODTdeclsr3stdE7declvalIRT_EEEOS2_EE5valueEiE4typeELi0EEEvSB_lS8_, symObjAddr: 0xD560, symBinAddr: 0x10002C1F4, symSize: 0x14C }
  - { offset: 0x18CAC7, size: 0x8, addend: 0x0, symName: __ZNSt3__113unordered_setINS_12basic_stringIcNS_11char_traitsIcEENS_9allocatorIcEEEENS_4hashIS6_EENS_8equal_toIS6_EENS4_IS6_EEEC2ERKSC_, symObjAddr: 0x7A4C, symBinAddr: 0x100027BC8, symSize: 0x11C }
  - { offset: 0x18DBFC, size: 0x8, addend: 0x0, symName: __ZNSt3__114__split_bufferIN6fuzzer13MergeFileInfoERNS_9allocatorIS2_EEED2Ev, symObjAddr: 0x8B84, symBinAddr: 0x100027F7C, symSize: 0xA4 }
  - { offset: 0x18E12D, size: 0x8, addend: 0x0, symName: __ZNSt3__16vectorIN6fuzzer13MergeFileInfoENS_9allocatorIS2_EEE20__throw_length_errorB8nn210106Ev, symObjAddr: 0x8A78, symBinAddr: 0x100027E70, symSize: 0x14 }
  - { offset: 0x18E145, size: 0x8, addend: 0x0, symName: __ZNSt3__134__uninitialized_allocator_relocateB8nn210106INS_9allocatorIN6fuzzer13MergeFileInfoEEEPS3_EEvRT_T0_S8_S8_, symObjAddr: 0x8A8C, symBinAddr: 0x100027E84, symSize: 0xF8 }
  - { offset: 0x18E8DE, size: 0x8, addend: 0x0, symName: '__ZZNK6fuzzer7TracePC15CollectFeaturesIZNS_6Fuzzer31CrashResistantMergeInternalStepERKNSt3__112basic_stringIcNS3_11char_traitsIcEENS3_9allocatorIcEEEEbE3$_1EEmT_ENKUlmmhE_clEmmh', symObjAddr: 0xB864, symBinAddr: 0x10002A4F8, symSize: 0x15C }
  - { offset: 0x18EF04, size: 0x8, addend: 0x0, symName: __ZNSt3__16vectorIN6fuzzer13MergeFileInfoENS_9allocatorIS2_EEE13__vdeallocateEv, symObjAddr: 0xD03C, symBinAddr: 0x10002BCD0, symSize: 0xB4 }
  - { offset: 0x18F45E, size: 0x8, addend: 0x0, symName: __ZN6fuzzer13MergeFileInfoC2ERKS0_, symObjAddr: 0xD0F0, symBinAddr: 0x10002BD84, symSize: 0x11C }
  - { offset: 0x18FB9F, size: 0x8, addend: 0x0, symName: __ZNSt3__16vectorIN6fuzzer13MergeFileInfoENS_9allocatorIS2_EEE18__insert_with_sizeB8nn210106INS_11__wrap_iterIPS2_EES9_EES9_NS7_IPKS2_EET_T0_l, symObjAddr: 0xD20C, symBinAddr: 0x10002BEA0, symSize: 0x354 }
  - { offset: 0x18FE31, size: 0x8, addend: 0x0, symName: __ZNKSt3__120__move_backward_implINS_17_ClassicAlgPolicyEEclB8nn210106IPN6fuzzer13MergeFileInfoES6_S6_EENS_4pairIT_T1_EES8_T0_S9_, symObjAddr: 0xD6AC, symBinAddr: 0x10002C340, symSize: 0x130 }
  - { offset: 0x19048C, size: 0x8, addend: 0x0, symName: __ZNSt3__16vectorIN6fuzzer13MergeFileInfoENS_9allocatorIS2_EEE27__insert_assign_n_uncheckedB8nn210106INS_11__wrap_iterIPS2_EETnNS_9enable_ifIXntsr7is_sameIODTdeclsr3stdE7declvalIRT_EEEOS2_EE5valueEiE4typeELi0EEEvSB_lS8_, symObjAddr: 0xD560, symBinAddr: 0x10002C1F4, symSize: 0x14C }
  - { offset: 0x1904E4, size: 0x8, addend: 0x0, symName: __ZNSt3__16vectorIN6fuzzer13MergeFileInfoENS_9allocatorIS2_EEE27__insert_assign_n_uncheckedB8nn210106INS_11__wrap_iterIPS2_EETnNS_9enable_ifIXntsr7is_sameIODTdeclsr3stdE7declvalIRT_EEEOS2_EE5valueEiE4typeELi0EEEvSB_lS8_, symObjAddr: 0xD560, symBinAddr: 0x10002C1F4, symSize: 0x14C }
  - { offset: 0x192BEC, size: 0x8, addend: 0x0, symName: __ZN6fuzzer18MutationDispatcherC2ERNS_6RandomERKNS_14FuzzingOptionsE, symObjAddr: 0x0, symBinAddr: 0x10002C470, symSize: 0x360 }
  - { offset: 0x192C05, size: 0x8, addend: 0x0, symName: __ZN6fuzzer10Dictionary12kMaxDictSizeE, symObjAddr: 0x5688, symBinAddr: 0x10003C280, symSize: 0x0 }
  - { offset: 0x193891, size: 0x8, addend: 0x0, symName: __ZN6fuzzerL6RandChERNS_6RandomE, symObjAddr: 0x1AA8, symBinAddr: 0x10002DF18, symSize: 0xF0 }
  - { offset: 0x1938D0, size: 0x8, addend: 0x0, symName: __ZN6fuzzerL6RandChERNS_6RandomE, symObjAddr: 0x1AA8, symBinAddr: 0x10002DF18, symSize: 0xF0 }
  - { offset: 0x1938EB, size: 0x8, addend: 0x0, symName: __ZN6fuzzerL6RandChERNS_6RandomE, symObjAddr: 0x1AA8, symBinAddr: 0x10002DF18, symSize: 0xF0 }
  - { offset: 0x193906, size: 0x8, addend: 0x0, symName: __ZN6fuzzerL6RandChERNS_6RandomE, symObjAddr: 0x1AA8, symBinAddr: 0x10002DF18, symSize: 0xF0 }
  - { offset: 0x193B07, size: 0x8, addend: 0x0, symName: __ZN6fuzzer19ChangeBinaryIntegerItEEmPhmRNS_6RandomE, symObjAddr: 0x33B4, symBinAddr: 0x10002F824, symSize: 0x230 }
  - { offset: 0x19400A, size: 0x8, addend: 0x0, symName: __ZN6fuzzer19ChangeBinaryIntegerIyEEmPhmRNS_6RandomE, symObjAddr: 0x2F60, symBinAddr: 0x10002F3D0, symSize: 0x22C }
  - { offset: 0x19450D, size: 0x8, addend: 0x0, symName: __ZN6fuzzer19ChangeBinaryIntegerIhEEmPhmRNS_6RandomE, symObjAddr: 0x35E4, symBinAddr: 0x10002FA54, symSize: 0x200 }
  - { offset: 0x1949F3, size: 0x8, addend: 0x0, symName: __ZN6fuzzer19ChangeBinaryIntegerIjEEmPhmRNS_6RandomE, symObjAddr: 0x318C, symBinAddr: 0x10002F5FC, symSize: 0x228 }
  - { offset: 0x19DA8F, size: 0x8, addend: 0x0, symName: __ZNSt3__16vectorIN6fuzzer18MutationDispatcher7MutatorENS_9allocatorIS3_EEE18__insert_with_sizeB8nn210106IPKS3_S9_EENS_11__wrap_iterIPS3_EENSA_IS9_EET_T0_l, symObjAddr: 0x49D0, symBinAddr: 0x100030B14, symSize: 0x474 }
  - { offset: 0x19E2D5, size: 0x8, addend: 0x0, symName: __ZN6fuzzer18MutationDispatcherC2ERNS_6RandomERKNS_14FuzzingOptionsE, symObjAddr: 0x0, symBinAddr: 0x10002C470, symSize: 0x360 }
  - { offset: 0x19EAED, size: 0x8, addend: 0x0, symName: __ZNSt3__16vectorIN6fuzzer18MutationDispatcher7MutatorENS_9allocatorIS3_EEE18__insert_with_sizeB8nn210106IPKS3_S9_EENS_11__wrap_iterIPS3_EENSA_IS9_EET_T0_l, symObjAddr: 0x49D0, symBinAddr: 0x100030B14, symSize: 0x474 }
  - { offset: 0x19F5F9, size: 0x8, addend: 0x0, symName: __ZNSt3__16vectorIN6fuzzer18MutationDispatcher7MutatorENS_9allocatorIS3_EEE20__throw_length_errorB8nn210106Ev, symObjAddr: 0x4E44, symBinAddr: 0x100030F88, symSize: 0x14 }
  - { offset: 0x19F616, size: 0x8, addend: 0x0, symName: __ZNSt3__16vectorIN6fuzzer18MutationDispatcher7MutatorENS_9allocatorIS3_EEE9push_backB8nn210106EOS3_, symObjAddr: 0x12CC, symBinAddr: 0x10002D73C, symSize: 0x130 }
  - { offset: 0x19FA27, size: 0x8, addend: 0x0, symName: __ZN6fuzzer18MutationDispatcher22Mutate_AddWordFromTORCEPhmm, symObjAddr: 0x13FC, symBinAddr: 0x10002D86C, symSize: 0x41C }
  - { offset: 0x19FA32, size: 0x8, addend: 0x0, symName: __ZNSt3__16vectorIN6fuzzer18MutationDispatcher7MutatorENS_9allocatorIS3_EEE18__assign_with_sizeB8nn210106IPS3_S8_EEvT_T0_l, symObjAddr: 0x4E58, symBinAddr: 0x100030F9C, symSize: 0x180 }
  - { offset: 0x1A0450, size: 0x8, addend: 0x0, symName: __ZNSt3__16vectorIhNS_9allocatorIhEEE8__appendEm, symObjAddr: 0x4FD8, symBinAddr: 0x10003111C, symSize: 0x220 }
  - { offset: 0x1A053C, size: 0x8, addend: 0x0, symName: __ZN6fuzzer18MutationDispatcher17Mutate_EraseBytesEPhmm, symObjAddr: 0x360, symBinAddr: 0x10002C7D0, symSize: 0xE4 }
  - { offset: 0x1A0768, size: 0x8, addend: 0x0, symName: __ZN6fuzzer18MutationDispatcher17Mutate_InsertByteEPhmm, symObjAddr: 0x444, symBinAddr: 0x10002C8B4, symSize: 0xB8 }
  - { offset: 0x1A08FB, size: 0x8, addend: 0x0, symName: __ZN6fuzzer18MutationDispatcher26Mutate_InsertRepeatedBytesEPhmm, symObjAddr: 0x4FC, symBinAddr: 0x10002C96C, symSize: 0x248 }
  - { offset: 0x1A0C15, size: 0x8, addend: 0x0, symName: __ZN6fuzzer18MutationDispatcher17Mutate_ChangeByteEPhmm, symObjAddr: 0x744, symBinAddr: 0x10002CBB4, symSize: 0xAC }
  - { offset: 0x1A0D6D, size: 0x8, addend: 0x0, symName: __ZN6fuzzer18MutationDispatcher16Mutate_ChangeBitEPhmm, symObjAddr: 0x7F0, symBinAddr: 0x10002CC60, symSize: 0xC0 }
  - { offset: 0x1A1061, size: 0x8, addend: 0x0, symName: __ZN6fuzzer18MutationDispatcher19Mutate_ShuffleBytesEPhmm, symObjAddr: 0x8B0, symBinAddr: 0x10002CD20, symSize: 0x140 }
  - { offset: 0x1A1566, size: 0x8, addend: 0x0, symName: __ZN6fuzzer18MutationDispatcher25Mutate_ChangeASCIIIntegerEPhmm, symObjAddr: 0x9F0, symBinAddr: 0x10002CE60, symSize: 0x238 }
  - { offset: 0x1A1930, size: 0x8, addend: 0x0, symName: __ZN6fuzzer18MutationDispatcher26Mutate_ChangeBinaryIntegerEPhmm, symObjAddr: 0xC28, symBinAddr: 0x10002D098, symSize: 0xC8 }
  - { offset: 0x1A1B04, size: 0x8, addend: 0x0, symName: __ZN6fuzzer18MutationDispatcher15Mutate_CopyPartEPhmm, symObjAddr: 0xCF0, symBinAddr: 0x10002D160, symSize: 0x174 }
  - { offset: 0x1A1EBC, size: 0x8, addend: 0x0, symName: __ZN6fuzzer18MutationDispatcher12InsertPartOfEPKhmPhmm, symObjAddr: 0x2D78, symBinAddr: 0x10002F1E8, symSize: 0x1E8 }
  - { offset: 0x1A23FD, size: 0x8, addend: 0x0, symName: __ZN6fuzzer18MutationDispatcher16Mutate_CrossOverEPhmm, symObjAddr: 0xE64, symBinAddr: 0x10002D2D4, symSize: 0x2CC }
  - { offset: 0x1A2999, size: 0x8, addend: 0x0, symName: __ZNSt3__16vectorIhNS_9allocatorIhEEE8__appendEm, symObjAddr: 0x4FD8, symBinAddr: 0x10003111C, symSize: 0x220 }
  - { offset: 0x1A2DE3, size: 0x8, addend: 0x0, symName: __ZN6fuzzer18MutationDispatcher10CopyPartOfEPKhmPhm, symObjAddr: 0x2C48, symBinAddr: 0x10002F0B8, symSize: 0x130 }
  - { offset: 0x1A316D, size: 0x8, addend: 0x0, symName: __ZN6fuzzer18MutationDispatcher34Mutate_AddWordFromManualDictionaryEPhmm, symObjAddr: 0x1130, symBinAddr: 0x10002D5A0, symSize: 0xCC }
  - { offset: 0x1A3353, size: 0x8, addend: 0x0, symName: __ZN6fuzzer18MutationDispatcher20ApplyDictionaryEntryEPhmmRNS_15DictionaryEntryE, symObjAddr: 0x1C6C, symBinAddr: 0x10002E0DC, symSize: 0x22C }
  - { offset: 0x1A37DF, size: 0x8, addend: 0x0, symName: __ZNSt3__16vectorIPN6fuzzer15DictionaryEntryENS_9allocatorIS3_EEE9push_backB8nn210106EOS3_, symObjAddr: 0x2B50, symBinAddr: 0x10002EFC0, symSize: 0xF8 }
  - { offset: 0x1A3BF6, size: 0x8, addend: 0x0, symName: __ZN6fuzzer18MutationDispatcher10CopyPartOfEPKhmPhm, symObjAddr: 0x2C48, symBinAddr: 0x10002F0B8, symSize: 0x130 }
  - { offset: 0x1A3C01, size: 0x8, addend: 0x0, symName: __ZN6fuzzer18MutationDispatcher42Mutate_AddWordFromPersistentAutoDictionaryEPhmm, symObjAddr: 0x11FC, symBinAddr: 0x10002D66C, symSize: 0xD0 }
  - { offset: 0x1A4151, size: 0x8, addend: 0x0, symName: __ZNSt3__16vectorIN6fuzzer18MutationDispatcher7MutatorENS_9allocatorIS3_EEE20__throw_length_errorB8nn210106Ev, symObjAddr: 0x4E44, symBinAddr: 0x100030F88, symSize: 0x14 }
  - { offset: 0x1A4169, size: 0x8, addend: 0x0, symName: __ZNSt3__16vectorIN6fuzzer18MutationDispatcher7MutatorENS_9allocatorIS3_EEE18__assign_with_sizeB8nn210106IPS3_S8_EEvT_T0_l, symObjAddr: 0x4E58, symBinAddr: 0x100030F9C, symSize: 0x180 }
  - { offset: 0x1A42BA, size: 0x8, addend: 0x0, symName: __ZN6fuzzer18MutationDispatcher22Mutate_AddWordFromTORCEPhmm, symObjAddr: 0x13FC, symBinAddr: 0x10002D86C, symSize: 0x41C }
  - { offset: 0x1A4AD3, size: 0x8, addend: 0x0, symName: __ZN6fuzzer18MutationDispatcher26MakeDictionaryEntryFromCMPIjEENS_15DictionaryEntryET_S3_PKhm, symObjAddr: 0x29FC, symBinAddr: 0x10002EE6C, symSize: 0x154 }
  - { offset: 0x1A4F02, size: 0x8, addend: 0x0, symName: __ZN6fuzzer18MutationDispatcher26MakeDictionaryEntryFromCMPIyEENS_15DictionaryEntryET_S3_PKhm, symObjAddr: 0x2754, symBinAddr: 0x10002EBC4, symSize: 0x154 }
  - { offset: 0x1A5330, size: 0x8, addend: 0x0, symName: __ZN6fuzzer18MutationDispatcher26MakeDictionaryEntryFromCMPEPKvS2_S2_S2_mPKhm, symObjAddr: 0x1E98, symBinAddr: 0x10002E308, symSize: 0x89C }
  - { offset: 0x1A5ABE, size: 0x8, addend: 0x0, symName: __ZN6fuzzer18MutationDispatcher26MakeDictionaryEntryFromCMPItEENS_15DictionaryEntryET_S3_PKhm, symObjAddr: 0x28A8, symBinAddr: 0x10002ED18, symSize: 0x154 }
  - { offset: 0x1A5EFB, size: 0x8, addend: 0x0, symName: __ZN6fuzzer18MutationDispatcher13Mutate_CustomEPhmm, symObjAddr: 0x1818, symBinAddr: 0x10002DC88, symSize: 0xC4 }
  - { offset: 0x1A602C, size: 0x8, addend: 0x0, symName: __ZN6fuzzer18MutationDispatcher22Mutate_CustomCrossOverEPhmm, symObjAddr: 0x18DC, symBinAddr: 0x10002DD4C, symSize: 0x1C8 }
  - { offset: 0x1A6385, size: 0x8, addend: 0x0, symName: __ZN6fuzzer18MutationDispatcherC1ERNS_6RandomERKNS_14FuzzingOptionsE, symObjAddr: 0x1AA4, symBinAddr: 0x10002DF14, symSize: 0x4 }
  - { offset: 0x1A63CF, size: 0x8, addend: 0x0, symName: __ZN6fuzzer18MutationDispatcherC1ERNS_6RandomERKNS_14FuzzingOptionsE, symObjAddr: 0x1AA4, symBinAddr: 0x10002DF14, symSize: 0x4 }
  - { offset: 0x1A63F0, size: 0x8, addend: 0x0, symName: __ZN6fuzzer18MutationDispatcher21AddWordFromDictionaryERNS_10DictionaryEPhmm, symObjAddr: 0x1B98, symBinAddr: 0x10002E008, symSize: 0xD4 }
  - { offset: 0x1A6658, size: 0x8, addend: 0x0, symName: __ZN6fuzzer18MutationDispatcher26MakeDictionaryEntryFromCMPERKNS_9FixedWordILm64EEES4_PKhm, symObjAddr: 0x2734, symBinAddr: 0x10002EBA4, symSize: 0x20 }
  - { offset: 0x1A6AA4, size: 0x8, addend: 0x0, symName: __ZNSt3__16vectorIPN6fuzzer15DictionaryEntryENS_9allocatorIS3_EEE20__throw_length_errorB8nn210106Ev, symObjAddr: 0x55B4, symBinAddr: 0x10003133C, symSize: 0x14 }
  - { offset: 0x1A6ABC, size: 0x8, addend: 0x0, symName: __ZNSt3__16vectorIN6fuzzer15DictionaryEntryENS_9allocatorIS2_EEE20__throw_length_errorB8nn210106Ev, symObjAddr: 0x55C8, symBinAddr: 0x100031350, symSize: 0x14 }
  - { offset: 0x1A6B65, size: 0x8, addend: 0x0, symName: __ZN6fuzzer18MutationDispatcher21StartMutationSequenceEv, symObjAddr: 0x37E4, symBinAddr: 0x10002FC54, symSize: 0x18 }
  - { offset: 0x1A6D75, size: 0x8, addend: 0x0, symName: __ZN6fuzzer18MutationDispatcher32RecordSuccessfulMutationSequenceEv, symObjAddr: 0x37FC, symBinAddr: 0x10002FC6C, symSize: 0x130 }
  - { offset: 0x1A7371, size: 0x8, addend: 0x0, symName: __ZN6fuzzer18MutationDispatcher26PrintRecommendedDictionaryEv, symObjAddr: 0x392C, symBinAddr: 0x10002FD9C, symSize: 0x268 }
  - { offset: 0x1A7A5D, size: 0x8, addend: 0x0, symName: __ZN6fuzzer18MutationDispatcher21PrintMutationSequenceEb, symObjAddr: 0x3B94, symBinAddr: 0x100030004, symSize: 0x134 }
  - { offset: 0x1A7A68, size: 0x8, addend: 0x0, symName: __ZNSt3__16vectorIN6fuzzer15DictionaryEntryENS_9allocatorIS2_EEE20__throw_length_errorB8nn210106Ev, symObjAddr: 0x55C8, symBinAddr: 0x100031350, symSize: 0x14 }
  - { offset: 0x1A7AE1, size: 0x8, addend: 0x0, symName: __ZN6fuzzer18MutationDispatcher21PrintMutationSequenceEb, symObjAddr: 0x3B94, symBinAddr: 0x100030004, symSize: 0x134 }
  - { offset: 0x1A7D53, size: 0x8, addend: 0x0, symName: __ZN6fuzzer18MutationDispatcher16MutationSequenceEv, symObjAddr: 0x3CC8, symBinAddr: 0x100030138, symSize: 0x6C }
  - { offset: 0x1A7F39, size: 0x8, addend: 0x0, symName: __ZN6fuzzer18MutationDispatcher6MutateEPhmm, symObjAddr: 0x3D34, symBinAddr: 0x1000301A4, symSize: 0x154 }
  - { offset: 0x1A8145, size: 0x8, addend: 0x0, symName: __ZNSt3__16vectorIN6fuzzer18MutationDispatcher7MutatorENS_9allocatorIS3_EEE9push_backB8nn210106ERKS3_, symObjAddr: 0x412C, symBinAddr: 0x10003059C, symSize: 0x130 }
  - { offset: 0x1A8556, size: 0x8, addend: 0x0, symName: __ZN6fuzzer18MutationDispatcher14MutateWithMaskEPhmmRKNSt3__16vectorIhNS2_9allocatorIhEEEE, symObjAddr: 0x425C, symBinAddr: 0x1000306CC, symSize: 0x3D4 }
  - { offset: 0x1A8561, size: 0x8, addend: 0x0, symName: __ZN6fuzzer18MutationDispatcher10MutateImplEPhmmRNSt3__16vectorINS0_7MutatorENS2_9allocatorIS4_EEEE, symObjAddr: 0x3E88, symBinAddr: 0x1000302F8, symSize: 0x150 }
  - { offset: 0x1A8734, size: 0x8, addend: 0x0, symName: __ZN6fuzzer18MutationDispatcher13DefaultMutateEPhmm, symObjAddr: 0x3FD8, symBinAddr: 0x100030448, symSize: 0x154 }
  - { offset: 0x1A8ABE, size: 0x8, addend: 0x0, symName: __ZN6fuzzer18MutationDispatcher14MutateWithMaskEPhmmRKNSt3__16vectorIhNS2_9allocatorIhEEEE, symObjAddr: 0x425C, symBinAddr: 0x1000306CC, symSize: 0x3D4 }
  - { offset: 0x1A8CA8, size: 0x8, addend: 0x0, symName: __ZN6fuzzer18MutationDispatcher25AddWordToManualDictionaryERKNS_9FixedWordILm64EEE, symObjAddr: 0x4630, symBinAddr: 0x100030AA0, symSize: 0x74 }
  - { offset: 0x1AB7F8, size: 0x8, addend: 0x0, symName: __ZN6fuzzer11ComputeSHA1EPKhmPh, symObjAddr: 0x0, symBinAddr: 0x100031364, symSize: 0x15C }
  - { offset: 0x1AB818, size: 0x8, addend: 0x0, symName: __ZN6fuzzer11ComputeSHA1EPKhmPh, symObjAddr: 0x0, symBinAddr: 0x100031364, symSize: 0x15C }
  - { offset: 0x1ABA2D, size: 0x8, addend: 0x0, symName: __ZN6fuzzer12Sha1ToStringEPKh, symObjAddr: 0x15C, symBinAddr: 0x1000314C0, symSize: 0x2C8 }
  - { offset: 0x1ABFE5, size: 0x8, addend: 0x0, symName: __ZN6fuzzer4HashERKNSt3__16vectorIhNS0_9allocatorIhEEEE, symObjAddr: 0x424, symBinAddr: 0x100031788, symSize: 0x50 }
  - { offset: 0x1B0BB6, size: 0x8, addend: 0x0, symName: __ZN12_GLOBAL__N_117sha1_addUncountedEPNS_7sha1nfoEj, symObjAddr: 0x474, symBinAddr: 0x1000317D8, symSize: 0x174 }
  - { offset: 0x1B3222, size: 0x8, addend: 0x0, symName: ___sancov_lowest_stack, symObjAddr: 0x3330, symBinAddr: 0x100044470, symSize: 0x0 }
  - { offset: 0x1B3245, size: 0x8, addend: 0x0, symName: __ZN6fuzzer3TPCE, symObjAddr: 0x54E00, symBinAddr: 0x100044800, symSize: 0x0 }
  - { offset: 0x1B3B32, size: 0x8, addend: 0x0, symName: __ZN6fuzzer34WarnAboutDeprecatedInstrumentationEPKc, symObjAddr: 0x1DD8, symBinAddr: 0x100033724, symSize: 0x20 }
  - { offset: 0x1B3B77, size: 0x8, addend: 0x0, symName: ___sanitizer_cov_trace_pc_guard, symObjAddr: 0x1DF8, symBinAddr: 0x100033744, symSize: 0x28 }
  - { offset: 0x1BAA31, size: 0x8, addend: 0x0, symName: __ZNSt3__112__hash_tableINS_17__hash_value_typeImmEENS_22__unordered_map_hasherImNS_4pairIKmmEENS_4hashImEENS_8equal_toImEELb1EEENS_21__unordered_map_equalImS6_SA_S8_Lb1EEENS_9allocatorIS6_EEE11__do_rehashILb1EEEvm, symObjAddr: 0x3094, symBinAddr: 0x100034984, symSize: 0x1CC }
  - { offset: 0x1BB296, size: 0x8, addend: 0x0, symName: __ZN6fuzzer7TracePCD1Ev, symObjAddr: 0x0, symBinAddr: 0x10003194C, symSize: 0x70 }
  - { offset: 0x1BB688, size: 0x8, addend: 0x0, symName: __ZN6fuzzer7TracePC18GetTotalPCCoverageEv, symObjAddr: 0x70, symBinAddr: 0x1000319BC, symSize: 0xC }
  - { offset: 0x1BB6B2, size: 0x8, addend: 0x0, symName: __ZN6fuzzer7TracePC18GetTotalPCCoverageEv, symObjAddr: 0x70, symBinAddr: 0x1000319BC, symSize: 0xC }
  - { offset: 0x1BB710, size: 0x8, addend: 0x0, symName: __ZN6fuzzer7TracePC28HandleInline8bitCountersInitEPhS1_, symObjAddr: 0x7C, symBinAddr: 0x1000319C8, symSize: 0x1A8 }
  - { offset: 0x1BB8CE, size: 0x8, addend: 0x0, symName: __ZN6fuzzer7TracePC13HandlePCsInitEPKmS2_, symObjAddr: 0x224, symBinAddr: 0x100031B70, symSize: 0x48 }
  - { offset: 0x1BB907, size: 0x8, addend: 0x0, symName: __ZN6fuzzer7TracePC15PrintModuleInfoEv, symObjAddr: 0x26C, symBinAddr: 0x100031BB8, symSize: 0x1A8 }
  - { offset: 0x1BBACD, size: 0x8, addend: 0x0, symName: '__ZNK6fuzzer7TracePC15CollectFeaturesIZNS0_15PrintModuleInfoEvE3$_0EEmT_', symObjAddr: 0x414, symBinAddr: 0x100031D60, symSize: 0xF4 }
  - { offset: 0x1BBADE, size: 0x8, addend: 0x0, symName: '__ZNK6fuzzer7TracePC15CollectFeaturesIZNS0_15PrintModuleInfoEvE3$_0EEmT_', symObjAddr: 0x414, symBinAddr: 0x100031D60, symSize: 0xF4 }
  - { offset: 0x1BBD31, size: 0x8, addend: 0x0, symName: __ZN6fuzzer7TracePC18HandleCallerCalleeEmm, symObjAddr: 0x508, symBinAddr: 0x100031E54, symSize: 0x4C }
  - { offset: 0x1BBDBC, size: 0x8, addend: 0x0, symName: __ZN6fuzzer7TracePC20GetNextInstructionPcEm, symObjAddr: 0x554, symBinAddr: 0x100031EA0, symSize: 0x8 }
  - { offset: 0x1BBDF8, size: 0x8, addend: 0x0, symName: __ZN6fuzzer7TracePC17UpdateObservedPCsEv, symObjAddr: 0x55C, symBinAddr: 0x100031EA8, symSize: 0x5F8 }
  - { offset: 0x1BC9AD, size: 0x8, addend: 0x0, symName: __ZN6fuzzer7TracePC15PCTableEntryIdxEPKNS0_12PCTableEntryE, symObjAddr: 0xB54, symBinAddr: 0x1000324A0, symSize: 0x54 }
  - { offset: 0x1BD140, size: 0x8, addend: 0x0, symName: __ZNSt3__112__hash_tableINS_17__hash_value_typeImmEENS_22__unordered_map_hasherImNS_4pairIKmmEENS_4hashImEENS_8equal_toImEELb1EEENS_21__unordered_map_equalImS6_SA_S8_Lb1EEENS_9allocatorIS6_EEE25__emplace_unique_key_argsImJRKNS_21piecewise_construct_tENS_5tupleIJRS5_EEENSL_IJEEEEEENS4_INS_15__hash_iteratorIPNS_11__hash_nodeIS2_PvEEEEbEERKT_DpOT0_, symObjAddr: 0x2D5C, symBinAddr: 0x100034660, symSize: 0x324 }
  - { offset: 0x1BD76F, size: 0x8, addend: 0x0, symName: __ZN6fuzzer7TracePC15PCTableEntryIdxEPKNS0_12PCTableEntryE, symObjAddr: 0xB54, symBinAddr: 0x1000324A0, symSize: 0x54 }
  - { offset: 0x1BD7DA, size: 0x8, addend: 0x0, symName: __ZN6fuzzer7TracePC17PCTableEntryByIdxEm, symObjAddr: 0xBA8, symBinAddr: 0x1000324F4, symSize: 0x48 }
  - { offset: 0x1BDD25, size: 0x8, addend: 0x0, symName: __ZN6fuzzer7TracePC16SetFocusFunctionERKNSt3__112basic_stringIcNS1_11char_traitsIcEENS1_9allocatorIcEEEE, symObjAddr: 0xBF0, symBinAddr: 0x10003253C, symSize: 0x384 }
  - { offset: 0x1BE799, size: 0x8, addend: 0x0, symName: __ZN6fuzzer7TracePC21ObservedFocusFunctionEv, symObjAddr: 0xF74, symBinAddr: 0x1000328C0, symSize: 0x24 }
  - { offset: 0x1BE7FF, size: 0x8, addend: 0x0, symName: __ZTW21__sancov_lowest_stack, symObjAddr: 0x32D4, symBinAddr: 0x100034B50, symSize: 0x20 }
  - { offset: 0x1BE80A, size: 0x8, addend: 0x0, symName: __ZN6fuzzer7TracePC21ObservedFocusFunctionEv, symObjAddr: 0xF74, symBinAddr: 0x1000328C0, symSize: 0x24 }
  - { offset: 0x1BE833, size: 0x8, addend: 0x0, symName: __ZN6fuzzer7TracePC13PrintCoverageEb, symObjAddr: 0xF98, symBinAddr: 0x1000328E4, symSize: 0xA58 }
  - { offset: 0x1C0A60, size: 0x8, addend: 0x0, symName: __ZN6fuzzer7TracePC17AddValueForMemcmpEPvPKvS3_mb, symObjAddr: 0x19F0, symBinAddr: 0x10003333C, symSize: 0x2C4 }
  - { offset: 0x1C0E43, size: 0x8, addend: 0x0, symName: __ZN6fuzzer7TracePC17AddValueForMemcmpEPvPKvS3_mb, symObjAddr: 0x19F0, symBinAddr: 0x10003333C, symSize: 0x2C4 }
  - { offset: 0x1C1180, size: 0x8, addend: 0x0, symName: __ZN6fuzzer7TracePC19ClearInlineCountersEv, symObjAddr: 0x1CB4, symBinAddr: 0x100033600, symSize: 0xB8 }
  - { offset: 0x1C12EE, size: 0x8, addend: 0x0, symName: __ZN6fuzzer7TracePC18RecordInitialStackEv, symObjAddr: 0x1D6C, symBinAddr: 0x1000336B8, symSize: 0x3C }
  - { offset: 0x1C1335, size: 0x8, addend: 0x0, symName: __ZNK6fuzzer7TracePC17GetMaxStackOffsetEv, symObjAddr: 0x1DA8, symBinAddr: 0x1000336F4, symSize: 0x30 }
  - { offset: 0x1C1363, size: 0x8, addend: 0x0, symName: ___sanitizer_cov_trace_pc_guard, symObjAddr: 0x1DF8, symBinAddr: 0x100033744, symSize: 0x28 }
  - { offset: 0x1C13CA, size: 0x8, addend: 0x0, symName: ___sanitizer_cov_trace_pc, symObjAddr: 0x1E20, symBinAddr: 0x10003376C, symSize: 0x28 }
  - { offset: 0x1C13DB, size: 0x8, addend: 0x0, symName: ___sanitizer_cov_trace_pc, symObjAddr: 0x1E20, symBinAddr: 0x10003376C, symSize: 0x28 }
  - { offset: 0x1C1431, size: 0x8, addend: 0x0, symName: ___sanitizer_cov_trace_pc_guard_init, symObjAddr: 0x1E48, symBinAddr: 0x100033794, symSize: 0x28 }
  - { offset: 0x1C1442, size: 0x8, addend: 0x0, symName: ___sanitizer_cov_trace_pc_guard_init, symObjAddr: 0x1E48, symBinAddr: 0x100033794, symSize: 0x28 }
  - { offset: 0x1C14BA, size: 0x8, addend: 0x0, symName: ___sanitizer_cov_8bit_counters_init, symObjAddr: 0x1E70, symBinAddr: 0x1000337BC, symSize: 0x14 }
  - { offset: 0x1C14CB, size: 0x8, addend: 0x0, symName: ___sanitizer_cov_8bit_counters_init, symObjAddr: 0x1E70, symBinAddr: 0x1000337BC, symSize: 0x14 }
  - { offset: 0x1C1565, size: 0x8, addend: 0x0, symName: ___sanitizer_cov_pcs_init, symObjAddr: 0x1E84, symBinAddr: 0x1000337D0, symSize: 0x64 }
  - { offset: 0x1C159D, size: 0x8, addend: 0x0, symName: ___sanitizer_cov_pcs_init, symObjAddr: 0x1E84, symBinAddr: 0x1000337D0, symSize: 0x64 }
  - { offset: 0x1C161D, size: 0x8, addend: 0x0, symName: ___sanitizer_cov_trace_pc_indir, symObjAddr: 0x1EE8, symBinAddr: 0x100033834, symSize: 0x60 }
  - { offset: 0x1C1794, size: 0x8, addend: 0x0, symName: ___sanitizer_cov_trace_cmp8, symObjAddr: 0x1F48, symBinAddr: 0x100033894, symSize: 0x88 }
  - { offset: 0x1C18DA, size: 0x8, addend: 0x0, symName: ___sanitizer_cov_trace_const_cmp8, symObjAddr: 0x1FD0, symBinAddr: 0x10003391C, symSize: 0x88 }
  - { offset: 0x1C1AC5, size: 0x8, addend: 0x0, symName: ___sanitizer_cov_trace_cmp4, symObjAddr: 0x2058, symBinAddr: 0x1000339A4, symSize: 0x84 }
  - { offset: 0x1C1BF9, size: 0x8, addend: 0x0, symName: ___sanitizer_cov_trace_const_cmp4, symObjAddr: 0x20DC, symBinAddr: 0x100033A28, symSize: 0x84 }
  - { offset: 0x1C1D98, size: 0x8, addend: 0x0, symName: ___sanitizer_cov_trace_cmp2, symObjAddr: 0x2160, symBinAddr: 0x100033AAC, symSize: 0x70 }
  - { offset: 0x1C1EB4, size: 0x8, addend: 0x0, symName: ___sanitizer_cov_trace_const_cmp2, symObjAddr: 0x21D0, symBinAddr: 0x100033B1C, symSize: 0x70 }
  - { offset: 0x1C203B, size: 0x8, addend: 0x0, symName: ___sanitizer_cov_trace_cmp1, symObjAddr: 0x2240, symBinAddr: 0x100033B8C, symSize: 0x70 }
  - { offset: 0x1C2157, size: 0x8, addend: 0x0, symName: ___sanitizer_cov_trace_const_cmp1, symObjAddr: 0x22B0, symBinAddr: 0x100033BFC, symSize: 0x70 }
  - { offset: 0x1C2273, size: 0x8, addend: 0x0, symName: ___sanitizer_cov_trace_switch, symObjAddr: 0x2320, symBinAddr: 0x100033C6C, symSize: 0x2C4 }
  - { offset: 0x1C277A, size: 0x8, addend: 0x0, symName: ___sanitizer_cov_trace_div4, symObjAddr: 0x25E4, symBinAddr: 0x100033F30, symSize: 0x80 }
  - { offset: 0x1C289E, size: 0x8, addend: 0x0, symName: ___sanitizer_cov_trace_div8, symObjAddr: 0x2664, symBinAddr: 0x100033FB0, symSize: 0x84 }
  - { offset: 0x1C2A44, size: 0x8, addend: 0x0, symName: ___sanitizer_cov_trace_gep, symObjAddr: 0x26E8, symBinAddr: 0x100034034, symSize: 0x84 }
  - { offset: 0x1C2B7F, size: 0x8, addend: 0x0, symName: ___sanitizer_weak_hook_memcmp, symObjAddr: 0x276C, symBinAddr: 0x1000340B8, symSize: 0x44 }
  - { offset: 0x1C2C00, size: 0x8, addend: 0x0, symName: ___sanitizer_weak_hook_strncmp, symObjAddr: 0x27B0, symBinAddr: 0x1000340FC, symSize: 0xA8 }
  - { offset: 0x1C2CC1, size: 0x8, addend: 0x0, symName: ___sanitizer_weak_hook_strcmp, symObjAddr: 0x2858, symBinAddr: 0x1000341A4, symSize: 0x74 }
  - { offset: 0x1C2DAA, size: 0x8, addend: 0x0, symName: ___sanitizer_weak_hook_strncasecmp, symObjAddr: 0x28CC, symBinAddr: 0x100034218, symSize: 0xA8 }
  - { offset: 0x1C2EFA, size: 0x8, addend: 0x0, symName: ___sanitizer_weak_hook_strcasecmp, symObjAddr: 0x2974, symBinAddr: 0x1000342C0, symSize: 0x74 }
  - { offset: 0x1C2FE9, size: 0x8, addend: 0x0, symName: ___sanitizer_weak_hook_strstr, symObjAddr: 0x29E8, symBinAddr: 0x100034334, symSize: 0x94 }
  - { offset: 0x1C30EA, size: 0x8, addend: 0x0, symName: ___sanitizer_weak_hook_strcasestr, symObjAddr: 0x2A7C, symBinAddr: 0x1000343C8, symSize: 0x94 }
  - { offset: 0x1C31EB, size: 0x8, addend: 0x0, symName: ___sanitizer_weak_hook_memmem, symObjAddr: 0x2B10, symBinAddr: 0x10003445C, symSize: 0x88 }
  - { offset: 0x1C356D, size: 0x8, addend: 0x0, symName: __ZN6fuzzer7TracePCC2Ev, symObjAddr: 0x2B98, symBinAddr: 0x1000344E4, symSize: 0x17C }
  - { offset: 0x1C3D61, size: 0x8, addend: 0x0, symName: __ZNSt3__112__hash_tableINS_17__hash_value_typeImmEENS_22__unordered_map_hasherImNS_4pairIKmmEENS_4hashImEENS_8equal_toImEELb1EEENS_21__unordered_map_equalImS6_SA_S8_Lb1EEENS_9allocatorIS6_EEE11__do_rehashILb1EEEvm, symObjAddr: 0x3094, symBinAddr: 0x100034984, symSize: 0x1CC }
  - { offset: 0x1C4194, size: 0x8, addend: 0x0, symName: __GLOBAL__sub_I_FuzzerTracePC.cpp, symObjAddr: 0x32F4, symBinAddr: 0x100034B70, symSize: 0x3C }
  - { offset: 0x1C608C, size: 0x8, addend: 0x0, symName: __ZN6fuzzer6Base64ERKNSt3__16vectorIhNS0_9allocatorIhEEEE, symObjAddr: 0x1040, symBinAddr: 0x100035920, symSize: 0x23C }
  - { offset: 0x1C654D, size: 0x8, addend: 0x0, symName: __ZN6fuzzerL14SymbolizeMutexE, symObjAddr: 0x1B18, symBinAddr: 0x1000443D8, symSize: 0x0 }
  - { offset: 0x1C655B, size: 0x8, addend: 0x0, symName: __ZN6fuzzer13PrintHexArrayEPKhmPKc, symObjAddr: 0x0, symBinAddr: 0x100034BAC, symSize: 0x68 }
  - { offset: 0x1C6619, size: 0x8, addend: 0x0, symName: __ZN6fuzzer5PrintERKNSt3__16vectorIhNS0_9allocatorIhEEEEPKc, symObjAddr: 0x68, symBinAddr: 0x100034C14, symSize: 0x68 }
  - { offset: 0x1C66F0, size: 0x8, addend: 0x0, symName: __ZN6fuzzer14PrintASCIIByteEh, symObjAddr: 0xD0, symBinAddr: 0x100034C7C, symSize: 0x88 }
  - { offset: 0x1C675F, size: 0x8, addend: 0x0, symName: __ZN6fuzzer10PrintASCIIEPKhmPKc, symObjAddr: 0x158, symBinAddr: 0x100034D04, symSize: 0xCC }
  - { offset: 0x1C681A, size: 0x8, addend: 0x0, symName: __ZN6fuzzer10PrintASCIIERKNSt3__16vectorIhNS0_9allocatorIhEEEEPKc, symObjAddr: 0x224, symBinAddr: 0x100034DD0, symSize: 0xCC }
  - { offset: 0x1C6900, size: 0x8, addend: 0x0, symName: __ZN6fuzzer7ToASCIIEPhm, symObjAddr: 0x2F0, symBinAddr: 0x100034E9C, symSize: 0x54 }
  - { offset: 0x1C69FD, size: 0x8, addend: 0x0, symName: __ZN6fuzzer7IsASCIIERKNSt3__16vectorIhNS0_9allocatorIhEEEE, symObjAddr: 0x344, symBinAddr: 0x100034EF0, symSize: 0xA0 }
  - { offset: 0x1C6B1E, size: 0x8, addend: 0x0, symName: __ZN6fuzzer7IsASCIIEPKhm, symObjAddr: 0x3E4, symBinAddr: 0x100034F90, symSize: 0xA8 }
  - { offset: 0x1C6B44, size: 0x8, addend: 0x0, symName: __ZN6fuzzer7IsASCIIEPKhm, symObjAddr: 0x3E4, symBinAddr: 0x100034F90, symSize: 0xA8 }
  - { offset: 0x1C6BD9, size: 0x8, addend: 0x0, symName: __ZN6fuzzer23ParseOneDictionaryEntryERKNSt3__112basic_stringIcNS0_11char_traitsIcEENS0_9allocatorIcEEEEPNS0_6vectorIhNS4_IhEEEE, symObjAddr: 0x48C, symBinAddr: 0x100035038, symSize: 0x4DC }
  - { offset: 0x1C7AAF, size: 0x8, addend: 0x0, symName: __ZN6fuzzer19ParseDictionaryFileERKNSt3__112basic_stringIcNS0_11char_traitsIcEENS0_9allocatorIcEEEEPNS0_6vectorINS9_IhNS4_IhEEEENS4_ISB_EEEE, symObjAddr: 0x968, symBinAddr: 0x100035514, symSize: 0x40C }
  - { offset: 0x1C7ABA, size: 0x8, addend: 0x0, symName: __ZN6fuzzer19ParseDictionaryFileERKNSt3__112basic_stringIcNS0_11char_traitsIcEENS0_9allocatorIcEEEEPNS0_6vectorINS9_IhNS4_IhEEEENS4_ISB_EEEE, symObjAddr: 0x968, symBinAddr: 0x100035514, symSize: 0x40C }
  - { offset: 0x1C88A1, size: 0x8, addend: 0x0, symName: __ZN6fuzzer10DescribePCEPKcm, symObjAddr: 0x127C, symBinAddr: 0x100035B5C, symSize: 0x18C }
  - { offset: 0x1C8E40, size: 0x8, addend: 0x0, symName: __ZN6fuzzer7PrintPCEPKcS1_m, symObjAddr: 0x1408, symBinAddr: 0x100035CE8, symSize: 0xA8 }
  - { offset: 0x1C8E4B, size: 0x8, addend: 0x0, symName: __ZN6fuzzer7PrintPCEPKcS1_m, symObjAddr: 0x1408, symBinAddr: 0x100035CE8, symSize: 0xA8 }
  - { offset: 0x1C9039, size: 0x8, addend: 0x0, symName: __ZN6fuzzer15PrintStackTraceEv, symObjAddr: 0x14B0, symBinAddr: 0x100035D90, symSize: 0x5C }
  - { offset: 0x1C90D5, size: 0x8, addend: 0x0, symName: __ZN6fuzzer18PrintMemoryProfileEv, symObjAddr: 0x150C, symBinAddr: 0x100035DEC, symSize: 0x64 }
  - { offset: 0x1C917D, size: 0x8, addend: 0x0, symName: __ZN6fuzzer16NumberOfCpuCoresEv, symObjAddr: 0x1570, symBinAddr: 0x100035E50, symSize: 0x30 }
  - { offset: 0x1C91B9, size: 0x8, addend: 0x0, symName: __ZN6fuzzer14SimpleFastHashEPKvmy, symObjAddr: 0x15A0, symBinAddr: 0x100035E80, symSize: 0x20 }
  - { offset: 0x1C9221, size: 0x8, addend: 0x0, symName: __ZN6fuzzer14SimpleFastHashEPKvmy, symObjAddr: 0x15A0, symBinAddr: 0x100035E80, symSize: 0x20 }
  - { offset: 0x1D1FF7, size: 0x8, addend: 0x0, symName: __GLOBAL__sub_I_FuzzerUtil.cpp, symObjAddr: 0x1930, symBinAddr: 0x100035EA0, symSize: 0x1C }
  - { offset: 0x1D200F, size: 0x8, addend: 0x0, symName: __GLOBAL__sub_I_FuzzerUtil.cpp, symObjAddr: 0x1930, symBinAddr: 0x100035EA0, symSize: 0x1C }
  - { offset: 0x1D3EAA, size: 0x8, addend: 0x0, symName: __ZN6fuzzerL11SignalMutexE, symObjAddr: 0xBB8, symBinAddr: 0x100044418, symSize: 0x0 }
  - { offset: 0x1D3EB8, size: 0x8, addend: 0x0, symName: __ZN6fuzzer14ExecuteCommandERKNS_7CommandE, symObjAddr: 0x0, symBinAddr: 0x100035EBC, symSize: 0x3CC }
  - { offset: 0x1D3EE2, size: 0x8, addend: 0x0, symName: __MergedGlobals, symObjAddr: 0x27450, symBinAddr: 0x100078460, symSize: 0x0 }
  - { offset: 0x1D456D, size: 0x8, addend: 0x0, symName: __MergedGlobals, symObjAddr: 0x27450, symBinAddr: 0x100078460, symSize: 0x0 }
  - { offset: 0x1D4587, size: 0x8, addend: 0x0, symName: __MergedGlobals, symObjAddr: 0x27450, symBinAddr: 0x100078460, symSize: 0x0 }
  - { offset: 0x1D45A3, size: 0x8, addend: 0x0, symName: __MergedGlobals, symObjAddr: 0x27450, symBinAddr: 0x100078460, symSize: 0x0 }
  - { offset: 0x1D45BF, size: 0x8, addend: 0x0, symName: __MergedGlobals, symObjAddr: 0x27450, symBinAddr: 0x100078460, symSize: 0x0 }
  - { offset: 0x1D4837, size: 0x8, addend: 0x0, symName: __ZN6fuzzer13DiscardOutputEi, symObjAddr: 0x7C4, symBinAddr: 0x100036288, symSize: 0x54 }
  - { offset: 0x1D48AF, size: 0x8, addend: 0x0, symName: __ZN6fuzzer13SetThreadNameERNSt3__16threadERKNS0_12basic_stringIcNS0_11char_traitsIcEENS0_9allocatorIcEEEE, symObjAddr: 0x818, symBinAddr: 0x1000362DC, symSize: 0x4 }
  - { offset: 0x1D96C1, size: 0x8, addend: 0x0, symName: __GLOBAL__sub_I_FuzzerUtilDarwin.cpp, symObjAddr: 0xB9C, symBinAddr: 0x1000362E0, symSize: 0x1C }
  - { offset: 0x1DB0DE, size: 0x8, addend: 0x0, symName: __ZN6fuzzer13DiscardOutputEi, symObjAddr: 0x7C4, symBinAddr: 0x100036288, symSize: 0x54 }
  - { offset: 0x1DBDEE, size: 0x8, addend: 0x0, symName: __GLOBAL__sub_I_FuzzerUtilDarwin.cpp, symObjAddr: 0xB9C, symBinAddr: 0x1000362E0, symSize: 0x1C }
  - { offset: 0x1DBE06, size: 0x8, addend: 0x0, symName: __GLOBAL__sub_I_FuzzerUtilDarwin.cpp, symObjAddr: 0xB9C, symBinAddr: 0x1000362E0, symSize: 0x1C }
  - { offset: 0x1DDADA, size: 0x8, addend: 0x0, symName: __ZN6fuzzer14ExecuteCommandERKNS_7CommandEPNSt3__112basic_stringIcNS3_11char_traitsIcEENS3_9allocatorIcEEEE, symObjAddr: 0x0, symBinAddr: 0x1000362FC, symSize: 0xE0 }
  - { offset: 0x1DDB00, size: 0x8, addend: 0x0, symName: __ZN6fuzzer8PageSizeEv, symObjAddr: 0x970, symBinAddr: 0x100036874, symSize: 0x60 }
  - { offset: 0x1DDB2A, size: 0x8, addend: 0x0, symName: __MergedGlobals, symObjAddr: 0x27228, symBinAddr: 0x1000784A0, symSize: 0x0 }
  - { offset: 0x1DDB55, size: 0x8, addend: 0x0, symName: __ZN6fuzzerL21upstream_segv_handlerE, symObjAddr: 0x27220, symBinAddr: 0x100078498, symSize: 0x0 }
  - { offset: 0x1DDB63, size: 0x8, addend: 0x0, symName: __ZN6fuzzer14ExecuteCommandERKNS_7CommandEPNSt3__112basic_stringIcNS3_11char_traitsIcEENS3_9allocatorIcEEEE, symObjAddr: 0x0, symBinAddr: 0x1000362FC, symSize: 0xE0 }
  - { offset: 0x1DE009, size: 0x8, addend: 0x0, symName: __ZN6fuzzer8SetTimerEi, symObjAddr: 0x4D8, symBinAddr: 0x1000363DC, symSize: 0x7C }
  - { offset: 0x1DE082, size: 0x8, addend: 0x0, symName: __ZN6fuzzerL12SetSigactionEiPFviP9__siginfoPvE, symObjAddr: 0x554, symBinAddr: 0x100036458, symSize: 0xB0 }
  - { offset: 0x1DE093, size: 0x8, addend: 0x0, symName: __ZN6fuzzerL12SetSigactionEiPFviP9__siginfoPvE, symObjAddr: 0x554, symBinAddr: 0x100036458, symSize: 0xB0 }
  - { offset: 0x1DE14A, size: 0x8, addend: 0x0, symName: __ZN6fuzzerL12AlarmHandlerEiP9__siginfoPv, symObjAddr: 0x604, symBinAddr: 0x100036508, symSize: 0x4 }
  - { offset: 0x1DE16D, size: 0x8, addend: 0x0, symName: __ZN6fuzzerL12AlarmHandlerEiP9__siginfoPv, symObjAddr: 0x604, symBinAddr: 0x100036508, symSize: 0x4 }
  - { offset: 0x1DE1C4, size: 0x8, addend: 0x0, symName: __ZN6fuzzer16SetSignalHandlerERKNS_14FuzzingOptionsE, symObjAddr: 0x608, symBinAddr: 0x10003650C, symSize: 0x238 }
  - { offset: 0x1DE327, size: 0x8, addend: 0x0, symName: __ZN6fuzzerL16InterruptHandlerEiP9__siginfoPv, symObjAddr: 0x840, symBinAddr: 0x100036744, symSize: 0x4 }
  - { offset: 0x1DE338, size: 0x8, addend: 0x0, symName: __ZN6fuzzerL16InterruptHandlerEiP9__siginfoPv, symObjAddr: 0x840, symBinAddr: 0x100036744, symSize: 0x4 }
  - { offset: 0x1DE36B, size: 0x8, addend: 0x0, symName: __ZN6fuzzerL11SegvHandlerEiP9__siginfoPv, symObjAddr: 0x844, symBinAddr: 0x100036748, symSize: 0x14 }
  - { offset: 0x1DE3BC, size: 0x8, addend: 0x0, symName: __ZN6fuzzerL12CrashHandlerEiP9__siginfoPv, symObjAddr: 0x858, symBinAddr: 0x10003675C, symSize: 0x4 }
  - { offset: 0x1DE3EF, size: 0x8, addend: 0x0, symName: __ZN6fuzzerL21FileSizeExceedHandlerEiP9__siginfoPv, symObjAddr: 0x85C, symBinAddr: 0x100036760, symSize: 0x4 }
  - { offset: 0x1DE422, size: 0x8, addend: 0x0, symName: __ZN6fuzzerL19GracefulExitHandlerEiP9__siginfoPv, symObjAddr: 0x860, symBinAddr: 0x100036764, symSize: 0x4 }
  - { offset: 0x1DE455, size: 0x8, addend: 0x0, symName: __ZN6fuzzer12SleepSecondsEi, symObjAddr: 0x864, symBinAddr: 0x100036768, symSize: 0x4 }
  - { offset: 0x1DE481, size: 0x8, addend: 0x0, symName: __ZN6fuzzer12SleepSecondsEi, symObjAddr: 0x864, symBinAddr: 0x100036768, symSize: 0x4 }
  - { offset: 0x1DE494, size: 0x8, addend: 0x0, symName: __ZN6fuzzer6GetPidEv, symObjAddr: 0x868, symBinAddr: 0x10003676C, symSize: 0x18 }
  - { offset: 0x1DE4C1, size: 0x8, addend: 0x0, symName: __ZN6fuzzer12GetPeakRSSMbEv, symObjAddr: 0x880, symBinAddr: 0x100036784, symSize: 0x4C }
  - { offset: 0x1DE509, size: 0x8, addend: 0x0, symName: __ZN6fuzzer15OpenProcessPipeEPKcS1_, symObjAddr: 0x8CC, symBinAddr: 0x1000367D0, symSize: 0x4 }
  - { offset: 0x1DE547, size: 0x8, addend: 0x0, symName: __ZN6fuzzer15OpenProcessPipeEPKcS1_, symObjAddr: 0x8CC, symBinAddr: 0x1000367D0, symSize: 0x4 }
  - { offset: 0x1DE561, size: 0x8, addend: 0x0, symName: __ZN6fuzzer16CloseProcessPipeEP7__sFILE, symObjAddr: 0x8D0, symBinAddr: 0x1000367D4, symSize: 0x4 }
  - { offset: 0x1DE591, size: 0x8, addend: 0x0, symName: __ZN6fuzzer16CloseProcessPipeEP7__sFILE, symObjAddr: 0x8D0, symBinAddr: 0x1000367D4, symSize: 0x4 }
  - { offset: 0x1DE5A4, size: 0x8, addend: 0x0, symName: __ZN6fuzzer12SearchMemoryEPKvmS1_m, symObjAddr: 0x8D4, symBinAddr: 0x1000367D8, symSize: 0x4 }
  - { offset: 0x1DE5FE, size: 0x8, addend: 0x0, symName: __ZN6fuzzer12SearchMemoryEPKvmS1_m, symObjAddr: 0x8D4, symBinAddr: 0x1000367D8, symSize: 0x4 }
  - { offset: 0x1DE626, size: 0x8, addend: 0x0, symName: __ZN6fuzzer14DisassembleCmdERKNSt3__112basic_stringIcNS0_11char_traitsIcEENS0_9allocatorIcEEEE, symObjAddr: 0x8D8, symBinAddr: 0x1000367DC, symSize: 0x10 }
  - { offset: 0x1DE671, size: 0x8, addend: 0x0, symName: __ZN6fuzzer14SearchRegexCmdERKNSt3__112basic_stringIcNS0_11char_traitsIcEENS0_9allocatorIcEEEE, symObjAddr: 0x8E8, symBinAddr: 0x1000367EC, symSize: 0x88 }
  - { offset: 0x1E4F10, size: 0x8, addend: 0x0, symName: __ZN6fuzzer8SetTimerEi, symObjAddr: 0x4D8, symBinAddr: 0x1000363DC, symSize: 0x7C }
  - { offset: 0x1E79BF, size: 0x8, addend: 0x0, symName: _main, symObjAddr: 0x0, symBinAddr: 0x1000368D4, symSize: 0x34 }
  - { offset: 0x1E79CD, size: 0x8, addend: 0x0, symName: _main, symObjAddr: 0x0, symBinAddr: 0x1000368D4, symSize: 0x34 }
...
